	.text
	.syntax unified
	.eabi_attribute	67, "2.09"	@ Tag_conformance
	.cpu	cortex-a8
	.eabi_attribute	6, 10	@ Tag_CPU_arch
	.eabi_attribute	7, 65	@ Tag_CPU_arch_profile
	.eabi_attribute	8, 1	@ Tag_ARM_ISA_use
	.eabi_attribute	9, 2	@ Tag_THUMB_ISA_use
	.fpu	neon
	.eabi_attribute	17, 1	@ Tag_ABI_PCS_GOT_use
	.eabi_attribute	20, 2	@ Tag_ABI_FP_denormal
	.eabi_attribute	23, 1	@ Tag_ABI_FP_number_model
	.eabi_attribute	34, 1	@ Tag_CPU_unaligned_access
	.eabi_attribute	24, 1	@ Tag_ABI_align_needed
	.eabi_attribute	25, 1	@ Tag_ABI_align_preserved
	.eabi_attribute	28, 1	@ Tag_ABI_VFP_args
	.eabi_attribute	38, 1	@ Tag_ABI_FP_16bit_format
	.eabi_attribute	18, 4	@ Tag_ABI_PCS_wchar_t
	.eabi_attribute	26, 2	@ Tag_ABI_enum_size
	.eabi_attribute	14, 0	@ Tag_ABI_PCS_R9_use
	.eabi_attribute	68, 1	@ Tag_Virtualization_use
	.file	"/root/Bela/projects/RNBO-KPStrong/build/render.bc"
	.file	1 "/usr/bin/../lib/gcc/arm-linux-gnueabihf/6.3.0/../../../../include/arm-linux-gnueabihf/c++/6.3.0/bits" "c++config.h"
	.file	2 "/usr/bin/../lib/gcc/arm-linux-gnueabihf/6.3.0/../../../../include/c++/6.3.0/bits" "alloc_traits.h"
	.file	3 "/usr/bin/../lib/gcc/arm-linux-gnueabihf/6.3.0/../../../../include/c++/6.3.0/ext" "new_allocator.h"
	.file	4 "/usr/bin/../lib/gcc/arm-linux-gnueabihf/6.3.0/../../../../include/arm-linux-gnueabihf/c++/6.3.0/bits" "c++allocator.h"
	.file	5 "/usr/bin/../lib/gcc/arm-linux-gnueabihf/6.3.0/../../../../include/c++/6.3.0/bits" "allocator.h"
	.file	6 "/usr/bin/../lib/gcc/arm-linux-gnueabihf/6.3.0/../../../../include/c++/6.3.0/ext" "alloc_traits.h"
	.file	7 "/usr/bin/../lib/gcc/arm-linux-gnueabihf/6.3.0/../../../../include/c++/6.3.0/bits" "stl_vector.h"
	.file	8 "/usr/bin/../lib/gcc/arm-linux-gnueabihf/6.3.0/../../../../include/c++/6.3.0" "initializer_list"
	.file	9 "/usr/bin/../lib/gcc/arm-linux-gnueabihf/6.3.0/../../../../include/c++/6.3.0" "type_traits"
	.file	10 "/root/Bela/projects/RNBO-KPStrong" "render.cpp"
	.file	11 "./libraries/OnePole" "OnePole.h"
	.file	12 "/usr/bin/../lib/gcc/arm-linux-gnueabihf/6.3.0/../../../../include/c++/6.3.0/bits" "stl_bvector.h"
	.file	13 "/usr/bin/../lib/gcc/arm-linux-gnueabihf/6.3.0/../../../../include/c++/6.3.0/bits" "stl_iterator_base_types.h"
	.file	14 "/usr/bin/../lib/gcc/arm-linux-gnueabihf/6.3.0/../../../../include/c++/6.3.0/bits" "stl_iterator.h"
	.file	15 "/root/Bela/projects/RNBO-KPStrong/rnbo/common" "RNBO_Types.h"
	.file	16 "/usr/lib/llvm-3.9/bin/../lib/clang/3.9.1/include" "stddef.h"
	.file	17 "/usr/bin/../lib/gcc/arm-linux-gnueabihf/6.3.0/../../../../include/c++/6.3.0/bits" "stringfwd.h"
	.file	18 "/root/Bela/projects/RNBO-KPStrong/rnbo/src" "RNBO_Presets.h"
	.file	19 "/usr/bin/../lib/gcc/arm-linux-gnueabihf/6.3.0/../../../../include/c++/6.3.0/bits" "shared_ptr_base.h"
	.file	20 "/usr/bin/../lib/gcc/arm-linux-gnueabihf/6.3.0/../../../../include/c++/6.3.0/ext" "concurrence.h"
	.file	21 "/usr/bin/../lib/gcc/arm-linux-gnueabihf/6.3.0/../../../../include/c++/6.3.0" "new"
	.file	22 "/usr/bin/../lib/gcc/arm-linux-gnueabihf/6.3.0/../../../../include/c++/6.3.0/bits" "shared_ptr.h"
	.file	23 "/root/Bela/projects/RNBO-KPStrong/rnbo/src" "RNBO_PresetList.h"
	.file	24 "/usr/bin/../lib/gcc/arm-linux-gnueabihf/6.3.0/../../../../include/c++/6.3.0/bits" "unique_ptr.h"
	.file	25 "/usr/bin/../lib/gcc/arm-linux-gnueabihf/6.3.0/../../../../include/c++/6.3.0" "tuple"
	.file	26 "/usr/bin/../lib/gcc/arm-linux-gnueabihf/6.3.0/../../../../include/c++/6.3.0/bits" "uses_allocator.h"
	.file	27 "./include" "Bela.h"
	.file	28 "./libraries/Trill" "Trill.h"
	.file	29 "/usr/bin/../lib/gcc/arm-linux-gnueabihf/6.3.0/../../../../include/c++/6.3.0/bits" "basic_string.h"
	.file	30 "/usr/bin/../lib/gcc/arm-linux-gnueabihf/6.3.0/../../../../include/c++/6.3.0/bits" "cpp_type_traits.h"
	.file	31 "/usr/bin/../lib/gcc/arm-linux-gnueabihf/6.3.0/../../../../include/c++/6.3.0/bits" "char_traits.h"
	.file	32 "/usr/include" "stdlib.h"
	.file	33 "/usr/include/arm-linux-gnueabihf/bits" "stdlib-float.h"
	.file	34 "/usr/include/arm-linux-gnueabihf/bits" "stdlib-bsearch.h"
	.file	35 "/usr/bin/../lib/gcc/arm-linux-gnueabihf/6.3.0/../../../../include/c++/6.3.0" "cstdlib"
	.file	36 "/root/Bela/projects/RNBO-KPStrong/build" "render.cpp"
	.file	37 "/usr/include/arm-linux-gnueabihf/bits" "math-finite.h"
	.file	38 "/usr/include/arm-linux-gnueabihf/bits" "mathcalls.h"
	.file	39 "/usr/include/arm-linux-gnueabihf/bits" "mathdef.h"
	.file	40 "/root/Bela/projects/RNBO-KPStrong/rnbo/common" "RNBO_Math.h"
	.file	41 "/usr/include" "stdint.h"
	.file	42 "/usr/bin/../lib/gcc/arm-linux-gnueabihf/6.3.0/../../../../include/c++/6.3.0/debug" "debug.h"
	.file	43 "/usr/bin/../lib/gcc/arm-linux-gnueabihf/6.3.0/../../../../include/c++/6.3.0/bits" "exception_ptr.h"
	.file	44 "/usr/include" "wchar.h"
	.file	45 "/usr/include" "libio.h"
	.file	46 "/usr/include/arm-linux-gnueabihf/bits" "types.h"
	.file	47 "/usr/include" "stdio.h"
	.file	48 "/usr/lib/llvm-3.9/bin/../lib/clang/3.9.1/include" "stdarg.h"
	.file	49 "/usr/include" "time.h"
	.file	50 "/usr/include" "locale.h"
	.file	51 "/usr/include" "ctype.h"
	.file	52 "/usr/include" "_G_config.h"
	.file	53 "/usr/include/arm-linux-gnueabihf/bits" "stdio.h"
	.file	54 "/usr/lib/llvm-3.9/bin/../lib/clang/3.9.1/include" "__stddef_max_align_t.h"
	.file	55 "/usr/include" "wctype.h"
	.file	56 "/usr/include" "string.h"
	.section	.text._ZNSt6vectorIjSaIjEED2Ev,"axG",%progbits,_ZNSt6vectorIjSaIjEED2Ev,comdat
	.weak	_ZNSt6vectorIjSaIjEED2Ev
	.p2align	2
	.type	_ZNSt6vectorIjSaIjEED2Ev,%function
_ZNSt6vectorIjSaIjEED2Ev:               @ @_ZNSt6vectorIjSaIjEED2Ev
.Lfunc_begin0:
	.loc	7 426 0                 @ /usr/bin/../lib/gcc/arm-linux-gnueabihf/6.3.0/../../../../include/c++/6.3.0/bits/stl_vector.h:426:0
	.fnstart
	.cfi_startproc
@ BB#0:
	.save	{r4, r10, r11, lr}
	push	{r4, r10, r11, lr}
.Ltmp0:
	.cfi_def_cfa_offset 16
.Ltmp1:
	.cfi_offset lr, -4
.Ltmp2:
	.cfi_offset r11, -8
.Ltmp3:
	.cfi_offset r10, -12
.Ltmp4:
	.cfi_offset r4, -16
	.setfp	r11, sp, #8
	add	r11, sp, #8
.Ltmp5:
	.cfi_def_cfa r11, 8
	@DEBUG_VALUE: ~vector:this <- %R0
	mov	r4, r0
.Ltmp6:
	@DEBUG_VALUE: ~vector:this <- %R4
	.loc	7 160 37 prologue_end   @ /usr/bin/../lib/gcc/arm-linux-gnueabihf/6.3.0/../../../../include/c++/6.3.0/bits/stl_vector.h:160:37
	ldr	r0, [r4]
.Ltmp7:
	@DEBUG_VALUE: _M_deallocate:__p <- %R0
	@DEBUG_VALUE: deallocate:__p <- %R0
	@DEBUG_VALUE: deallocate:__p <- %R0
	.loc	7 177 6                 @ /usr/bin/../lib/gcc/arm-linux-gnueabihf/6.3.0/../../../../include/c++/6.3.0/bits/stl_vector.h:177:6
	cmp	r0, #0
	beq	.LBB0_2
.Ltmp8:
@ BB#1:
	@DEBUG_VALUE: deallocate:__p <- %R0
	@DEBUG_VALUE: deallocate:__p <- %R0
	@DEBUG_VALUE: _M_deallocate:__p <- %R0
	@DEBUG_VALUE: ~vector:this <- %R4
	.loc	3 110 9                 @ /usr/bin/../lib/gcc/arm-linux-gnueabihf/6.3.0/../../../../include/c++/6.3.0/ext/new_allocator.h:110:9
	bl	_ZdlPv
.Ltmp9:
.LBB0_2:                                @ %_ZNSt12_Vector_baseIjSaIjEED2Ev.exit
	@DEBUG_VALUE: ~vector:this <- %R4
	.loc	7 427 33 discriminator 1 @ /usr/bin/../lib/gcc/arm-linux-gnueabihf/6.3.0/../../../../include/c++/6.3.0/bits/stl_vector.h:427:33
	mov	r0, r4
	pop	{r4, r10, r11, pc}
.Ltmp10:
.Lfunc_end0:
	.size	_ZNSt6vectorIjSaIjEED2Ev, .Lfunc_end0-_ZNSt6vectorIjSaIjEED2Ev
	.cfi_endproc
	.fnend

	.section	.text._ZNSt13_Bvector_baseISaIbEED2Ev,"axG",%progbits,_ZNSt13_Bvector_baseISaIbEED2Ev,comdat
	.weak	_ZNSt13_Bvector_baseISaIbEED2Ev
	.p2align	2
	.type	_ZNSt13_Bvector_baseISaIbEED2Ev,%function
_ZNSt13_Bvector_baseISaIbEED2Ev:        @ @_ZNSt13_Bvector_baseISaIbEED2Ev
.Lfunc_begin1:
	.loc	12 485 0                @ /usr/bin/../lib/gcc/arm-linux-gnueabihf/6.3.0/../../../../include/c++/6.3.0/bits/stl_bvector.h:485:0
	.fnstart
	.cfi_startproc
@ BB#0:
	.save	{r4, r10, r11, lr}
	push	{r4, r10, r11, lr}
.Ltmp11:
	.cfi_def_cfa_offset 16
.Ltmp12:
	.cfi_offset lr, -4
.Ltmp13:
	.cfi_offset r11, -8
.Ltmp14:
	.cfi_offset r10, -12
.Ltmp15:
	.cfi_offset r4, -16
	.setfp	r11, sp, #8
	add	r11, sp, #8
.Ltmp16:
	.cfi_def_cfa r11, 8
	@DEBUG_VALUE: ~_Bvector_base:this <- %R0
	mov	r4, r0
.Ltmp17:
	@DEBUG_VALUE: _M_deallocate:this <- %R4
	@DEBUG_VALUE: ~_Bvector_base:this <- %R4
	.loc	12 497 23 prologue_end  @ /usr/bin/../lib/gcc/arm-linux-gnueabihf/6.3.0/../../../../include/c++/6.3.0/bits/stl_bvector.h:497:23
	ldr	r0, [r4]
.Ltmp18:
	.loc	12 497 6 is_stmt 0      @ /usr/bin/../lib/gcc/arm-linux-gnueabihf/6.3.0/../../../../include/c++/6.3.0/bits/stl_bvector.h:497:6
	cmp	r0, #0
	beq	.LBB1_2
.Ltmp19:
@ BB#1:
	@DEBUG_VALUE: ~_Bvector_base:this <- %R4
	@DEBUG_VALUE: _M_deallocate:this <- %R4
	@DEBUG_VALUE: deallocate:__p <- %R0
	@DEBUG_VALUE: deallocate:__p <- %R0
	.loc	3 110 9 is_stmt 1       @ /usr/bin/../lib/gcc/arm-linux-gnueabihf/6.3.0/../../../../include/c++/6.3.0/ext/new_allocator.h:110:9
	bl	_ZdlPv
.Ltmp20:
.LBB1_2:                                @ %_ZNSt13_Bvector_baseISaIbEE13_M_deallocateEv.exit
	@DEBUG_VALUE: ~_Bvector_base:this <- %R4
	@DEBUG_VALUE: _M_deallocate:this <- %R4
	.loc	12 485 32 discriminator 1 @ /usr/bin/../lib/gcc/arm-linux-gnueabihf/6.3.0/../../../../include/c++/6.3.0/bits/stl_bvector.h:485:32
	mov	r0, r4
	pop	{r4, r10, r11, pc}
.Ltmp21:
.Lfunc_end1:
	.size	_ZNSt13_Bvector_baseISaIbEED2Ev, .Lfunc_end1-_ZNSt13_Bvector_baseISaIbEED2Ev
	.cfi_endproc
	.fnend

	.text
	.weak	Bela_userSettings
	.p2align	2
	.type	Bela_userSettings,%function
Bela_userSettings:                      @ @Bela_userSettings
.Lfunc_begin2:
	.loc	10 45 0                 @ /root/Bela/projects/RNBO-KPStrong/render.cpp:45:0
	.fnstart
	.cfi_startproc
@ BB#0:
	@DEBUG_VALUE: Bela_userSettings:settings <- %R0
	mov	r2, #0
.Ltmp22:
	.loc	10 46 30 prologue_end   @ /root/Bela/projects/RNBO-KPStrong/render.cpp:46:30
	mov	r1, #1
	.loc	10 47 23                @ /root/Bela/projects/RNBO-KPStrong/render.cpp:47:23
	str	r2, [r0, #348]
	.loc	10 48 33                @ /root/Bela/projects/RNBO-KPStrong/render.cpp:48:33
	str	r2, [r0, #352]
	.loc	10 46 30                @ /root/Bela/projects/RNBO-KPStrong/render.cpp:46:30
	str	r1, [r0, #356]
	.loc	10 49 1                 @ /root/Bela/projects/RNBO-KPStrong/render.cpp:49:1
	bx	lr
.Ltmp23:
.Lfunc_end2:
	.size	Bela_userSettings, .Lfunc_end2-Bela_userSettings
	.cfi_endproc
	.fnend

	.globl	_Z4loopPv
	.p2align	2
	.type	_Z4loopPv,%function
_Z4loopPv:                              @ @_Z4loopPv
.Lfunc_begin3:
	.loc	10 72 0                 @ /root/Bela/projects/RNBO-KPStrong/render.cpp:72:0
	.fnstart
	.cfi_startproc
@ BB#0:
	.save	{r4, r5, r11, lr}
	push	{r4, r5, r11, lr}
.Ltmp24:
	.cfi_def_cfa_offset 16
.Ltmp25:
	.cfi_offset lr, -4
.Ltmp26:
	.cfi_offset r11, -8
.Ltmp27:
	.cfi_offset r5, -12
.Ltmp28:
	.cfi_offset r4, -16
	.setfp	r11, sp, #8
	add	r11, sp, #8
.Ltmp29:
	.cfi_def_cfa r11, 8
	@DEBUG_VALUE: loop: <- %R0
.Ltmp30:
	.loc	10 73 9 prologue_end discriminator 1 @ /root/Bela/projects/RNBO-KPStrong/render.cpp:73:9
	bl	Bela_stopRequested
.Ltmp31:
	.loc	10 73 2 is_stmt 0 discriminator 1 @ /root/Bela/projects/RNBO-KPStrong/render.cpp:73:2
	cmp	r0, #0
	.loc	10 85 1 is_stmt 1       @ /root/Bela/projects/RNBO-KPStrong/render.cpp:85:1
	popne	{r4, r5, r11, pc}
.Ltmp32:
	.loc	10 76 15                @ /root/Bela/projects/RNBO-KPStrong/render.cpp:76:15
	movw	r5, :lower16:.L_MergedGlobals
	movt	r5, :upper16:.L_MergedGlobals
.LBB3_1:                                @ %.lr.ph
                                        @ =>This Inner Loop Header: Depth=1
	add	r4, r5, #40
	mov	r0, r4
	bl	_ZN5Trill7readI2CEv
	.loc	10 77 28                @ /root/Bela/projects/RNBO-KPStrong/render.cpp:77:28
	mov	r0, r4
	bl	_ZN5Trill17compoundTouchSizeEv
	.loc	10 78 35                @ /root/Bela/projects/RNBO-KPStrong/render.cpp:78:35
	mov	r0, r4
	.loc	10 77 14                @ /root/Bela/projects/RNBO-KPStrong/render.cpp:77:14
	vstr	s0, [r5, #4]
	.loc	10 78 35                @ /root/Bela/projects/RNBO-KPStrong/render.cpp:78:35
	bl	_ZN5Trill31compoundTouchHorizontalLocationEv
	.loc	10 79 35                @ /root/Bela/projects/RNBO-KPStrong/render.cpp:79:35
	mov	r0, r4
	.loc	10 78 21                @ /root/Bela/projects/RNBO-KPStrong/render.cpp:78:21
	vstr	s0, [r5, #12]
	.loc	10 79 35                @ /root/Bela/projects/RNBO-KPStrong/render.cpp:79:35
	bl	_ZN5Trill21compoundTouchLocationEv
	.loc	10 79 21 is_stmt 0      @ /root/Bela/projects/RNBO-KPStrong/render.cpp:79:21
	vstr	s0, [r5, #16]
	.loc	10 80 10 is_stmt 1      @ /root/Bela/projects/RNBO-KPStrong/render.cpp:80:10
	ldr	r0, [r5, #8]
	.loc	10 80 3 is_stmt 0       @ /root/Bela/projects/RNBO-KPStrong/render.cpp:80:3
	bl	usleep
.Ltmp33:
	.loc	10 73 9 is_stmt 1 discriminator 1 @ /root/Bela/projects/RNBO-KPStrong/render.cpp:73:9
	bl	Bela_stopRequested
	.loc	10 73 2 is_stmt 0 discriminator 1 @ /root/Bela/projects/RNBO-KPStrong/render.cpp:73:2
	cmp	r0, #0
	beq	.LBB3_1
@ BB#2:                                 @ %._crit_edge
	.loc	10 85 1 is_stmt 1       @ /root/Bela/projects/RNBO-KPStrong/render.cpp:85:1
	pop	{r4, r5, r11, pc}
.Ltmp34:
.Lfunc_end3:
	.size	_Z4loopPv, .Lfunc_end3-_Z4loopPv
	.cfi_endproc
	.fnend

	.globl	setup
	.p2align	4
	.type	setup,%function
setup:                                  @ @setup
.Lfunc_begin4:
	.loc	10 88 0                 @ /root/Bela/projects/RNBO-KPStrong/render.cpp:88:0
	.fnstart
	.cfi_startproc
@ BB#0:
	.save	{r4, r5, r6, r7, r8, r9, r10, r11, lr}
	push	{r4, r5, r6, r7, r8, r9, r10, r11, lr}
.Ltmp67:
	.cfi_def_cfa_offset 36
.Ltmp68:
	.cfi_offset lr, -4
.Ltmp69:
	.cfi_offset r11, -8
.Ltmp70:
	.cfi_offset r10, -12
.Ltmp71:
	.cfi_offset r9, -16
.Ltmp72:
	.cfi_offset r8, -20
.Ltmp73:
	.cfi_offset r7, -24
.Ltmp74:
	.cfi_offset r6, -28
.Ltmp75:
	.cfi_offset r5, -32
.Ltmp76:
	.cfi_offset r4, -36
	.setfp	r11, sp, #28
	add	r11, sp, #28
.Ltmp77:
	.cfi_def_cfa r11, 8
	.pad	#148
	sub	sp, sp, #148
	@DEBUG_VALUE: setup:context <- %R0
	@DEBUG_VALUE: setup:userData <- %R1
	mov	r4, r0
.Ltmp78:
	@DEBUG_VALUE: setup:context <- %R4
	.loc	10 90 5 prologue_end    @ /root/Bela/projects/RNBO-KPStrong/render.cpp:90:5
	ldrb	r0, [r4, #88]
	tst	r0, #1
	bne	.LBB4_65
.Ltmp79:
@ BB#1:
	@DEBUG_VALUE: setup:context <- %R4
	@DEBUG_VALUE: setup:userData <- %R1
	.loc	10 95 43                @ /root/Bela/projects/RNBO-KPStrong/render.cpp:95:43
	vldr	s0, [r4, #32]
	.loc	10 95 14 is_stmt 0      @ /root/Bela/projects/RNBO-KPStrong/render.cpp:95:14
	vldr	s2, [r4, #48]
.Ltmp80:
	.loc	10 95 5                 @ /root/Bela/projects/RNBO-KPStrong/render.cpp:95:5
	vcmpe.f32	s2, s0
	vmrs	APSR_nzcv, fpscr
	bne	.LBB4_66
.Ltmp81:
@ BB#2:
	@DEBUG_VALUE: setup:context <- %R4
	@DEBUG_VALUE: setup:userData <- %R1
	.loc	10 102 17 is_stmt 1     @ /root/Bela/projects/RNBO-KPStrong/render.cpp:102:17
	movw	r6, :lower16:.L_MergedGlobals
	mov	r1, #1
.Ltmp82:
	movt	r6, :upper16:.L_MergedGlobals
	add	r5, r6, #40
	mov	r2, #2
	mov	r3, #255
	mov	r0, r5
	bl	_ZN5Trill5setupEjNS_6DeviceEh
.Ltmp83:
	.loc	10 102 5 is_stmt 0      @ /root/Bela/projects/RNBO-KPStrong/render.cpp:102:5
	cmp	r0, #0
	bne	.LBB4_67
.Ltmp84:
@ BB#3:
	@DEBUG_VALUE: setup:context <- %R4
	.loc	10 110 14 is_stmt 1     @ /root/Bela/projects/RNBO-KPStrong/render.cpp:110:14
	mov	r0, r5
	bl	_ZN5Trill12printDetailsEv
	.loc	10 111 2                @ /root/Bela/projects/RNBO-KPStrong/render.cpp:111:2
	movw	r0, :lower16:_Z4loopPv
	mov	r1, #0
	movt	r0, :upper16:_Z4loopPv
	mov	r2, #0
	bl	Bela_runAuxiliaryTask
	.loc	10 114 29               @ /root/Bela/projects/RNBO-KPStrong/render.cpp:114:29
	vldr	s2, [r4, #32]
	.loc	10 114 11 is_stmt 0     @ /root/Bela/projects/RNBO-KPStrong/render.cpp:114:11
	vmov.f32	d0, #1.000000e+00
	add	r0, r6, #20
	mov	r1, #0
	vmov.f32	s1, s2
	bl	_ZN7OnePole5setupEffNS_4TypeE
	.loc	10 117 9 is_stmt 1      @ /root/Bela/projects/RNBO-KPStrong/render.cpp:117:9
	mov	r0, #40
	bl	_Znwj
	mov	r5, r0
	.loc	10 117 13 is_stmt 0     @ /root/Bela/projects/RNBO-KPStrong/render.cpp:117:13
.Ltmp35:
	mov	r1, #0
	bl	_ZN4RNBO10CoreObjectC1EPNS_12EventHandlerE
.Ltmp36:
.Ltmp85:
@ BB#4:
	@DEBUG_VALUE: setup:context <- %R4
	.loc	10 117 7 discriminator 1 @ /root/Bela/projects/RNBO-KPStrong/render.cpp:117:7
	movw	r7, :lower16:.L_MergedGlobals.1
	movt	r7, :upper16:.L_MergedGlobals.1
	str	r5, [r7]
.Ltmp86:
	.loc	7 656 66 is_stmt 1      @ /usr/bin/../lib/gcc/arm-linux-gnueabihf/6.3.0/../../../../include/c++/6.3.0/bits/stl_vector.h:656:66
	ldr	r0, [r7, #8]
	ldr	r3, [r7, #12]
.Ltmp87:
	.file	57 "/usr/bin/../lib/gcc/arm-linux-gnueabihf/6.3.0/../../../../include/c++/6.3.0/bits" "stl_algobase.h"
	.loc	57 200 11               @ /usr/bin/../lib/gcc/arm-linux-gnueabihf/6.3.0/../../../../include/c++/6.3.0/bits/stl_algobase.h:200:11
	ldr	r1, [r4, #40]
.Ltmp88:
	@DEBUG_VALUE: resize:__new_size <- %R1
	.loc	7 656 50                @ /usr/bin/../lib/gcc/arm-linux-gnueabihf/6.3.0/../../../../include/c++/6.3.0/bits/stl_vector.h:656:50
	sub	r2, r3, r0
.Ltmp89:
	.loc	7 678 11                @ /usr/bin/../lib/gcc/arm-linux-gnueabihf/6.3.0/../../../../include/c++/6.3.0/bits/stl_vector.h:678:11
	cmp	r1, r2, asr #2
.Ltmp90:
	.loc	7 679 43                @ /usr/bin/../lib/gcc/arm-linux-gnueabihf/6.3.0/../../../../include/c++/6.3.0/bits/stl_vector.h:679:43
	addlo	r0, r0, r1, lsl #2
.Ltmp91:
	@DEBUG_VALUE: _M_erase_at_end:__pos <- %R0
	.loc	7 1437 26               @ /usr/bin/../lib/gcc/arm-linux-gnueabihf/6.3.0/../../../../include/c++/6.3.0/bits/stl_vector.h:1437:26
	strlo	r0, [r7, #12]
.Ltmp92:
	.loc	7 656 66                @ /usr/bin/../lib/gcc/arm-linux-gnueabihf/6.3.0/../../../../include/c++/6.3.0/bits/stl_vector.h:656:66
	ldr	r0, [r7, #20]
.Ltmp93:
	.loc	7 656 40 is_stmt 0      @ /usr/bin/../lib/gcc/arm-linux-gnueabihf/6.3.0/../../../../include/c++/6.3.0/bits/stl_vector.h:656:40
	ldr	r2, [r7, #24]
.Ltmp94:
	.loc	57 200 11 is_stmt 1     @ /usr/bin/../lib/gcc/arm-linux-gnueabihf/6.3.0/../../../../include/c++/6.3.0/bits/stl_algobase.h:200:11
	ldr	r1, [r4, #56]
.Ltmp95:
	@DEBUG_VALUE: resize:__new_size <- %R1
	.loc	7 656 50                @ /usr/bin/../lib/gcc/arm-linux-gnueabihf/6.3.0/../../../../include/c++/6.3.0/bits/stl_vector.h:656:50
	sub	r2, r2, r0
.Ltmp96:
	.loc	7 678 11                @ /usr/bin/../lib/gcc/arm-linux-gnueabihf/6.3.0/../../../../include/c++/6.3.0/bits/stl_vector.h:678:11
	cmp	r1, r2, asr #2
.Ltmp97:
	.loc	7 679 43                @ /usr/bin/../lib/gcc/arm-linux-gnueabihf/6.3.0/../../../../include/c++/6.3.0/bits/stl_vector.h:679:43
	addlo	r0, r0, r1, lsl #2
.Ltmp98:
	@DEBUG_VALUE: _M_erase_at_end:__pos <- %R0
	.loc	7 1437 26               @ /usr/bin/../lib/gcc/arm-linux-gnueabihf/6.3.0/../../../../include/c++/6.3.0/bits/stl_vector.h:1437:26
	strlo	r0, [r7, #24]
.Ltmp99:
	@DEBUG_VALUE: setup:hiddenParameters <- 0
	.loc	10 121 45               @ /root/Bela/projects/RNBO-KPStrong/render.cpp:121:45
	ldr	r0, [r5]
.Ltmp100:
	ldr	r1, [r0]
.Ltmp101:
	mov	r0, r5
	blx	r1
	mov	r1, r0
	.loc	10 121 2 is_stmt 0 discriminator 1 @ /root/Bela/projects/RNBO-KPStrong/render.cpp:121:2
	movw	r0, :lower16:.L.str.7
	movt	r0, :upper16:.L.str.7
	bl	printf
.Ltmp102:
	@DEBUG_VALUE: n <- 0
	.loc	10 122 30 is_stmt 1 discriminator 1 @ /root/Bela/projects/RNBO-KPStrong/render.cpp:122:30
	ldr	r0, [r7]
	.loc	10 122 36 is_stmt 0 discriminator 1 @ /root/Bela/projects/RNBO-KPStrong/render.cpp:122:36
	ldr	r1, [r0]
	ldr	r1, [r1]
	blx	r1
	.loc	10 122 2 discriminator 1 @ /root/Bela/projects/RNBO-KPStrong/render.cpp:122:2
	cmp	r0, #0
	beq	.LBB4_32
.Ltmp103:
@ BB#5:                                 @ %.lr.ph
	@DEBUG_VALUE: setup:context <- %R4
	add	r0, sp, #88
	mov	r10, #0
.Ltmp104:
	.loc	15 236 7 is_stmt 1      @ /root/Bela/projects/RNBO-KPStrong/rnbo/common/RNBO_Types.h:236:7
	add	r5, r0, #24
	.loc	15 232 18               @ /root/Bela/projects/RNBO-KPStrong/rnbo/common/RNBO_Types.h:232:18
	add	r0, r0, #8
	str	r0, [sp, #4]            @ 4-byte Spill
	mov	r0, #0
.Ltmp105:
	.loc	10 122 2 discriminator 1 @ /root/Bela/projects/RNBO-KPStrong/render.cpp:122:2
	str	r0, [sp]                @ 4-byte Spill
	b	.LBB4_7
.Ltmp106:
.LBB4_6:                                @   in Loop: Header=BB4_7 Depth=1
	.loc	10 142 12               @ /root/Bela/projects/RNBO-KPStrong/render.cpp:142:12
	movw	r0, :lower16:stderr
	.loc	10 142 4 is_stmt 0      @ /root/Bela/projects/RNBO-KPStrong/render.cpp:142:4
	movw	r1, :lower16:.L.str.12
	.loc	10 142 12               @ /root/Bela/projects/RNBO-KPStrong/render.cpp:142:12
	movt	r0, :upper16:stderr
	.loc	10 142 4                @ /root/Bela/projects/RNBO-KPStrong/render.cpp:142:4
	movt	r1, :upper16:.L.str.12
	.loc	10 142 12               @ /root/Bela/projects/RNBO-KPStrong/render.cpp:142:12
	ldr	r0, [r0]
	.loc	10 142 4                @ /root/Bela/projects/RNBO-KPStrong/render.cpp:142:4
	mov	r2, r8
	bl	fprintf
	b	.LBB4_28
.Ltmp107:
.LBB4_7:                                @ =>This Loop Header: Depth=1
                                        @     Child Loop BB4_13 Depth 2
                                        @     Child Loop BB4_18 Depth 2
                                        @     Child Loop BB4_26 Depth 2
	adr	r0, .LCPI4_1
	add	r2, sp, #88
.Ltmp108:
	.loc	15 232 18 is_stmt 1     @ /root/Bela/projects/RNBO-KPStrong/rnbo/common/RNBO_Types.h:232:18
	vld1.64	{d16, d17}, [r0:128]
	.loc	15 231 10               @ /root/Bela/projects/RNBO-KPStrong/rnbo/common/RNBO_Types.h:231:10
	mov	r0, #2
	str	r0, [sp, #92]
	.loc	15 232 18               @ /root/Bela/projects/RNBO-KPStrong/rnbo/common/RNBO_Types.h:232:18
	ldr	r0, [sp, #4]            @ 4-byte Reload
	vst1.32	{d16, d17}, [r0]
	mov	r0, #0
	.loc	15 242 16               @ /root/Bela/projects/RNBO-KPStrong/rnbo/common/RNBO_Types.h:242:16
	str	r0, [sp, #124]
	.loc	15 237 8                @ /root/Bela/projects/RNBO-KPStrong/rnbo/common/RNBO_Types.h:237:8
	str	r0, [r5]
	str	r0, [r5, #4]
	strb	r0, [r5, #8]
	.loc	15 243 15               @ /root/Bela/projects/RNBO-KPStrong/rnbo/common/RNBO_Types.h:243:15
	movw	r0, :lower16:.L.str.19
	movt	r0, :upper16:.L.str.19
	str	r0, [sp, #128]
	.loc	15 244 15               @ /root/Bela/projects/RNBO-KPStrong/rnbo/common/RNBO_Types.h:244:15
	str	r0, [sp, #132]
	.loc	15 245 15               @ /root/Bela/projects/RNBO-KPStrong/rnbo/common/RNBO_Types.h:245:15
	mvn	r0, #0
	str	r0, [sp, #136]
.Ltmp109:
	.loc	10 125 3                @ /root/Bela/projects/RNBO-KPStrong/render.cpp:125:3
	ldr	r0, [r7]
	.loc	10 125 9 is_stmt 0      @ /root/Bela/projects/RNBO-KPStrong/render.cpp:125:9
	ldr	r1, [r0]
	ldr	r3, [r1, #12]
.Ltmp110:
	@DEBUG_VALUE: findIndex<unsigned int>:value <- %R10
	@DEBUG_VALUE: ParameterInfo:this <- undef
	@DEBUG_VALUE: info <- undef
	mov	r1, r10
	blx	r3
.Ltmp111:
	.loc	10 126 13 is_stmt 1     @ /root/Bela/projects/RNBO-KPStrong/render.cpp:126:13
	ldrb	r0, [sp, #120]
	.loc	10 126 21 is_stmt 0     @ /root/Bela/projects/RNBO-KPStrong/render.cpp:126:21
	cmp	r0, #0
	beq	.LBB4_9
.Ltmp112:
@ BB#8:                                 @   in Loop: Header=BB4_7 Depth=1
	@DEBUG_VALUE: findIndex<unsigned int>:value <- %R10
	.loc	10 126 29 discriminator 1 @ /root/Bela/projects/RNBO-KPStrong/render.cpp:126:29
	ldrb	r0, [sp, #116]
	.loc	10 126 36 discriminator 1 @ /root/Bela/projects/RNBO-KPStrong/render.cpp:126:36
	cmp	r0, #0
	beq	.LBB4_11
.Ltmp113:
.LBB4_9:                                @   in Loop: Header=BB4_7 Depth=1
	@DEBUG_VALUE: findIndex<unsigned int>:value <- %R10
	.loc	10 126 40 discriminator 2 @ /root/Bela/projects/RNBO-KPStrong/render.cpp:126:40
	ldrb	r0, [r6]
	.loc	10 126 6 discriminator 2 @ /root/Bela/projects/RNBO-KPStrong/render.cpp:126:6
	cmp	r0, #0
	bne	.LBB4_11
.Ltmp114:
@ BB#10:                                @   in Loop: Header=BB4_7 Depth=1
	@DEBUG_VALUE: findIndex<unsigned int>:value <- %R10
	.loc	10 128 20 is_stmt 1     @ /root/Bela/projects/RNBO-KPStrong/render.cpp:128:20
	ldr	r0, [sp]                @ 4-byte Reload
	add	r0, r0, #1
.Ltmp115:
	@DEBUG_VALUE: setup:hiddenParameters <- [%SP+0]
	.loc	10 129 4                @ /root/Bela/projects/RNBO-KPStrong/render.cpp:129:4
	str	r0, [sp]                @ 4-byte Spill
	b	.LBB4_29
.Ltmp116:
.LBB4_11:                               @   in Loop: Header=BB4_7 Depth=1
	@DEBUG_VALUE: findIndex<unsigned int>:value <- %R10
	.loc	10 131 24               @ /root/Bela/projects/RNBO-KPStrong/render.cpp:131:24
	ldr	r0, [r7]
	.loc	10 131 30 is_stmt 0     @ /root/Bela/projects/RNBO-KPStrong/render.cpp:131:30
	ldr	r1, [r0]
	ldr	r2, [r1, #4]
	mov	r1, r10
	blx	r2
	mov	r2, r0
	.loc	10 131 3 discriminator 1 @ /root/Bela/projects/RNBO-KPStrong/render.cpp:131:3
	movw	r0, :lower16:.L.str.8
	movt	r0, :upper16:.L.str.8
	mov	r1, r10
	bl	printf
.Ltmp117:
	@DEBUG_VALUE: i <- 0
	@DEBUG_VALUE: findIndex<unsigned int>:found <- -1
	.loc	7 656 66 is_stmt 1      @ /usr/bin/../lib/gcc/arm-linux-gnueabihf/6.3.0/../../../../include/c++/6.3.0/bits/stl_vector.h:656:66
	ldrd	r0, r1, [r7, #8]
	mvn	r8, #0
.Ltmp118:
	.loc	10 132 20 discriminator 1 @ /root/Bela/projects/RNBO-KPStrong/render.cpp:132:20
	mvn	r9, #0
.Ltmp119:
	.loc	10 55 2 discriminator 1 @ /root/Bela/projects/RNBO-KPStrong/render.cpp:55:2
	cmp	r1, r0
	beq	.LBB4_16
.Ltmp120:
@ BB#12:                                @ %.lr.ph.i
                                        @   in Loop: Header=BB4_7 Depth=1
	@DEBUG_VALUE: findIndex<unsigned int>:value <- %R10
	.loc	7 656 50                @ /usr/bin/../lib/gcc/arm-linux-gnueabihf/6.3.0/../../../../include/c++/6.3.0/bits/stl_vector.h:656:50
	sub	r1, r1, r0
	mov	r9, #0
	asr	r1, r1, #2
.Ltmp121:
.LBB4_13:                               @   Parent Loop BB4_7 Depth=1
                                        @ =>  This Inner Loop Header: Depth=2
	@DEBUG_VALUE: operator[]:__n <- %R9
	.loc	10 57 15                @ /root/Bela/projects/RNBO-KPStrong/render.cpp:57:15
	ldr	r2, [r0, r9, lsl #2]
.Ltmp122:
	.loc	10 57 6 is_stmt 0       @ /root/Bela/projects/RNBO-KPStrong/render.cpp:57:6
	cmp	r2, r10
	beq	.LBB4_16
.Ltmp123:
@ BB#14:                                @   in Loop: Header=BB4_13 Depth=2
	@DEBUG_VALUE: operator[]:__n <- %R9
	.loc	10 55 37 is_stmt 1 discriminator 3 @ /root/Bela/projects/RNBO-KPStrong/render.cpp:55:37
	add	r9, r9, #1
.Ltmp124:
	@DEBUG_VALUE: i <- %R9
	.loc	10 55 2 is_stmt 0 discriminator 1 @ /root/Bela/projects/RNBO-KPStrong/render.cpp:55:2
	cmp	r9, r1
	blo	.LBB4_13
.Ltmp125:
@ BB#15:                                @   in Loop: Header=BB4_7 Depth=1
	@DEBUG_VALUE: i <- %R9
	.loc	10 132 20 is_stmt 1 discriminator 1 @ /root/Bela/projects/RNBO-KPStrong/render.cpp:132:20
	mvn	r9, #0
.Ltmp126:
.LBB4_16:                               @ %_ZL9findIndexIjEiT_RKSt6vectorIS0_SaIS0_EE.exit
                                        @   in Loop: Header=BB4_7 Depth=1
	@DEBUG_VALUE: findIndex<unsigned int>:found <- -1
	@DEBUG_VALUE: i <- 0
	.loc	10 117 7 discriminator 1 @ /root/Bela/projects/RNBO-KPStrong/render.cpp:117:7
	movw	r0, :lower16:.L_MergedGlobals.1
	movt	r0, :upper16:.L_MergedGlobals.1
	mov	r1, r0
.Ltmp127:
	.loc	7 656 66                @ /usr/bin/../lib/gcc/arm-linux-gnueabihf/6.3.0/../../../../include/c++/6.3.0/bits/stl_vector.h:656:66
	ldr	r0, [r1, #20]
	.loc	7 656 40 is_stmt 0      @ /usr/bin/../lib/gcc/arm-linux-gnueabihf/6.3.0/../../../../include/c++/6.3.0/bits/stl_vector.h:656:40
	ldr	r1, [r1, #24]
.Ltmp128:
	.loc	10 55 2 is_stmt 1 discriminator 1 @ /root/Bela/projects/RNBO-KPStrong/render.cpp:55:2
	cmp	r1, r0
	beq	.LBB4_21
@ BB#17:                                @ %.lr.ph.i66
                                        @   in Loop: Header=BB4_7 Depth=1
.Ltmp129:
	.loc	7 656 50                @ /usr/bin/../lib/gcc/arm-linux-gnueabihf/6.3.0/../../../../include/c++/6.3.0/bits/stl_vector.h:656:50
	sub	r1, r1, r0
	asr	r2, r1, #2
	mov	r1, #0
.Ltmp130:
.LBB4_18:                               @   Parent Loop BB4_7 Depth=1
                                        @ =>  This Inner Loop Header: Depth=2
	@DEBUG_VALUE: operator[]:__n <- %R1
	.loc	10 57 15                @ /root/Bela/projects/RNBO-KPStrong/render.cpp:57:15
	ldr	r3, [r0, r1, lsl #2]
.Ltmp131:
	.loc	10 57 6 is_stmt 0       @ /root/Bela/projects/RNBO-KPStrong/render.cpp:57:6
	cmp	r3, r10
	beq	.LBB4_20
.Ltmp132:
@ BB#19:                                @   in Loop: Header=BB4_18 Depth=2
	@DEBUG_VALUE: operator[]:__n <- %R1
	.loc	10 55 37 is_stmt 1 discriminator 3 @ /root/Bela/projects/RNBO-KPStrong/render.cpp:55:37
	add	r1, r1, #1
.Ltmp133:
	@DEBUG_VALUE: i <- %R1
	.loc	10 55 2 is_stmt 0 discriminator 1 @ /root/Bela/projects/RNBO-KPStrong/render.cpp:55:2
	cmp	r1, r2
	blo	.LBB4_18
	b	.LBB4_21
.Ltmp134:
.LBB4_20:                               @   in Loop: Header=BB4_7 Depth=1
	@DEBUG_VALUE: operator[]:__n <- %R1
	.loc	10 133 21 is_stmt 1 discriminator 1 @ /root/Bela/projects/RNBO-KPStrong/render.cpp:133:21
	mov	r8, r1
.Ltmp135:
.LBB4_21:                               @ %_ZL9findIndexIjEiT_RKSt6vectorIS0_SaIS0_EE.exit69
                                        @   in Loop: Header=BB4_7 Depth=1
	@DEBUG_VALUE: analog <- %R9
	.loc	10 134 6                @ /root/Bela/projects/RNBO-KPStrong/render.cpp:134:6
	cmp	r9, #0
	blt	.LBB4_23
.Ltmp136:
@ BB#22:                                @   in Loop: Header=BB4_7 Depth=1
	@DEBUG_VALUE: analog <- %R9
	.loc	10 135 4                @ /root/Bela/projects/RNBO-KPStrong/render.cpp:135:4
	movw	r0, :lower16:.L.str.9
	mov	r1, r9
	movt	r0, :upper16:.L.str.9
	bl	printf
.Ltmp137:
.LBB4_23:                               @   in Loop: Header=BB4_7 Depth=1
	@DEBUG_VALUE: analog <- %R9
	@DEBUG_VALUE: digital <- %R8
	.loc	10 136 6                @ /root/Bela/projects/RNBO-KPStrong/render.cpp:136:6
	cmp	r8, #0
	blt	.LBB4_27
.Ltmp138:
@ BB#24:                                @   in Loop: Header=BB4_7 Depth=1
	@DEBUG_VALUE: digital <- %R8
	@DEBUG_VALUE: analog <- %R9
	.loc	10 137 4                @ /root/Bela/projects/RNBO-KPStrong/render.cpp:137:4
	movw	r0, :lower16:.L.str.10
	mov	r1, r8
	movt	r0, :upper16:.L.str.10
	bl	printf
.Ltmp139:
	@DEBUG_VALUE: pinMode:f <- 0
	@DEBUG_VALUE: pinMode:mode <- 0
	@DEBUG_VALUE: pinMode:frame <- 0
	.loc	27 1535 30 discriminator 1 @ ./include/Bela.h:1535:30
	ldr	r0, [r4, #52]
	.loc	27 1535 2 is_stmt 0 discriminator 1 @ ./include/Bela.h:1535:2
	cmp	r0, #0
	beq	.LBB4_27
.Ltmp140:
@ BB#25:                                @ %.lr.ph.i71
                                        @   in Loop: Header=BB4_7 Depth=1
	@DEBUG_VALUE: digital <- %R8
	@DEBUG_VALUE: analog <- %R9
	.loc	27 1537 13 is_stmt 1    @ ./include/Bela.h:1537:13
	ldr	r1, [r4, #16]
	.loc	27 1537 30 is_stmt 0    @ ./include/Bela.h:1537:30
	mov	r0, #1
	lsl	r0, r0, r8
	mov	r2, #0
.Ltmp141:
.LBB4_26:                               @   Parent Loop BB4_7 Depth=1
                                        @ =>  This Inner Loop Header: Depth=2
	.loc	27 1537 24              @ ./include/Bela.h:1537:24
	ldr	r3, [r1, r2, lsl #2]
	orr	r3, r3, r0
	str	r3, [r1, r2, lsl #2]
.Ltmp142:
	.loc	27 1535 46 is_stmt 1 discriminator 2 @ ./include/Bela.h:1535:46
	add	r2, r2, #1
.Ltmp143:
	@DEBUG_VALUE: pinMode:f <- %R2
	.loc	27 1535 30 is_stmt 0 discriminator 1 @ ./include/Bela.h:1535:30
	ldr	r3, [r4, #52]
	.loc	27 1535 2 discriminator 1 @ ./include/Bela.h:1535:2
	cmp	r2, r3
	blo	.LBB4_26
.Ltmp144:
.LBB4_27:                               @ %_ZL7pinModeP11BelaContextiii.exit
                                        @   in Loop: Header=BB4_7 Depth=1
	.loc	10 140 3 is_stmt 1      @ /root/Bela/projects/RNBO-KPStrong/render.cpp:140:3
	mov	r0, #10
	bl	putchar
.Ltmp145:
	.loc	10 141 18               @ /root/Bela/projects/RNBO-KPStrong/render.cpp:141:18
	orr	r0, r8, r9
	cmp	r0, #0
	bge	.LBB4_6
.Ltmp146:
.LBB4_28:                               @   in Loop: Header=BB4_7 Depth=1
	.loc	10 117 7 discriminator 1 @ /root/Bela/projects/RNBO-KPStrong/render.cpp:117:7
	movw	r7, :lower16:.L_MergedGlobals.1
	movt	r7, :upper16:.L_MergedGlobals.1
.LBB4_29:                               @   in Loop: Header=BB4_7 Depth=1
.Ltmp147:
	.loc	10 122 30 discriminator 1 @ /root/Bela/projects/RNBO-KPStrong/render.cpp:122:30
	ldr	r0, [r7]
	.loc	10 122 36 is_stmt 0 discriminator 1 @ /root/Bela/projects/RNBO-KPStrong/render.cpp:122:36
	ldr	r1, [r0]
	ldr	r1, [r1]
	blx	r1
	.loc	10 122 56 discriminator 3 @ /root/Bela/projects/RNBO-KPStrong/render.cpp:122:56
	add	r10, r10, #1
.Ltmp148:
	@DEBUG_VALUE: n <- %R10
	.loc	10 122 2 discriminator 1 @ /root/Bela/projects/RNBO-KPStrong/render.cpp:122:2
	cmp	r10, r0
	blo	.LBB4_7
.Ltmp149:
@ BB#30:                                @ %._crit_edge
	@DEBUG_VALUE: n <- %R10
	ldr	r1, [sp]                @ 4-byte Reload
	.loc	10 144 5 is_stmt 1      @ /root/Bela/projects/RNBO-KPStrong/render.cpp:144:5
	cmp	r1, #0
	beq	.LBB4_32
.Ltmp150:
@ BB#31:
	@DEBUG_VALUE: n <- %R10
	.loc	10 145 3                @ /root/Bela/projects/RNBO-KPStrong/render.cpp:145:3
	movw	r0, :lower16:.L.str.13
	movt	r0, :upper16:.L.str.13
	bl	printf
.Ltmp151:
.LBB4_32:                               @ %._crit_edge.i.i.i.i
	.loc	31 290 33               @ /usr/bin/../lib/gcc/arm-linux-gnueabihf/6.3.0/../../../../include/c++/6.3.0/bits/char_traits.h:290:33
	movw	r0, :lower16:.L.str.14
	add	r5, sp, #88
.Ltmp152:
	@DEBUG_VALUE: _M_data:this <- %R5
	@DEBUG_VALUE: c_str:this <- %R5
	@DEBUG_VALUE: setup:presetFile <- [%R5+0]
	@DEBUG_VALUE: _M_data:this <- %R5
	@DEBUG_VALUE: _M_length:this <- %R5
	@DEBUG_VALUE: _M_set_length:__n <- 12
	@DEBUG_VALUE: _M_set_length:this <- %R5
	@DEBUG_VALUE: _M_data:this <- %R5
	@DEBUG_VALUE: _M_construct<const char *>:__dnew <- 12
	@DEBUG_VALUE: _M_construct<const char *>:this <- %R5
	@DEBUG_VALUE: _M_construct_aux<const char *>:this <- %R5
	@DEBUG_VALUE: _M_construct<const char *>:this <- %R5
	@DEBUG_VALUE: _S_copy_chars:__p <- %R9
	@DEBUG_VALUE: _S_copy:__d <- %R9
	@DEBUG_VALUE: _M_local_data:this <- %R5
	@DEBUG_VALUE: basic_string:this <- %R5
	movt	r0, :upper16:.L.str.14
.Ltmp153:
	.loc	29 142 51               @ /usr/bin/../lib/gcc/arm-linux-gnueabihf/6.3.0/../../../../include/c++/6.3.0/bits/basic_string.h:142:51
	add	r9, r5, #8
.Ltmp154:
	.loc	31 290 33               @ /usr/bin/../lib/gcc/arm-linux-gnueabihf/6.3.0/../../../../include/c++/6.3.0/bits/char_traits.h:290:33
	vldr	d16, [r0]
	movw	r0, #29546
	movt	r0, #28271
.Ltmp155:
	.loc	29 110 25               @ /usr/bin/../lib/gcc/arm-linux-gnueabihf/6.3.0/../../../../include/c++/6.3.0/bits/basic_string.h:110:25
	str	r9, [sp, #88]
.Ltmp156:
	@DEBUG_VALUE: _S_copy:__n <- 12
	.loc	31 290 33               @ /usr/bin/../lib/gcc/arm-linux-gnueabihf/6.3.0/../../../../include/c++/6.3.0/bits/char_traits.h:290:33
	str	r0, [sp, #104]
	mov	r0, #12
.Ltmp157:
	@DEBUG_VALUE: _M_length:__length <- 12
	vstr	d16, [sp, #96]
.Ltmp158:
	.loc	10 147 2                @ /root/Bela/projects/RNBO-KPStrong/render.cpp:147:2
	mov	r1, r9
.Ltmp159:
	.loc	29 132 26               @ /usr/bin/../lib/gcc/arm-linux-gnueabihf/6.3.0/../../../../include/c++/6.3.0/bits/basic_string.h:132:26
	str	r0, [sp, #92]
.Ltmp160:
	.loc	31 243 14               @ /usr/bin/../lib/gcc/arm-linux-gnueabihf/6.3.0/../../../../include/c++/6.3.0/bits/char_traits.h:243:14
	mov	r0, #0
	strb	r0, [sp, #108]
.Ltmp161:
	.loc	10 147 2                @ /root/Bela/projects/RNBO-KPStrong/render.cpp:147:2
	movw	r0, :lower16:.L.str.15
	movt	r0, :upper16:.L.str.15
	bl	printf
	.loc	10 148 18               @ /root/Bela/projects/RNBO-KPStrong/render.cpp:148:18
.Ltmp38:
	add	r8, sp, #64
	mov	r1, r5
	mov	r0, r8
	bl	_ZN7IoUtils12readTextFileERKNSt7__cxx1112basic_stringIcSt11char_traitsIcESaIcEEE
.Ltmp39:
.Ltmp162:
	@DEBUG_VALUE: _S_copy:__s <- %R0
@ BB#33:
	@DEBUG_VALUE: _S_copy:__s <- %R0
	@DEBUG_VALUE: basic_string:this <- %R5
	@DEBUG_VALUE: _M_local_data:this <- %R5
	@DEBUG_VALUE: _M_construct<const char *>:this <- %R5
	@DEBUG_VALUE: _M_construct_aux<const char *>:this <- %R5
	@DEBUG_VALUE: _M_construct<const char *>:this <- %R5
	@DEBUG_VALUE: _M_data:this <- %R5
	@DEBUG_VALUE: _M_set_length:this <- %R5
	@DEBUG_VALUE: _M_length:this <- %R5
	@DEBUG_VALUE: _M_data:this <- %R5
	@DEBUG_VALUE: setup:presetFile <- [%R5+0]
	@DEBUG_VALUE: c_str:this <- %R5
	@DEBUG_VALUE: _M_data:this <- %R5
	.loc	29 811 16               @ /usr/bin/../lib/gcc/arm-linux-gnueabihf/6.3.0/../../../../include/c++/6.3.0/bits/basic_string.h:811:16
	ldr	r6, [sp, #68]
.Ltmp163:
	@DEBUG_VALUE: _M_construct<char *>:__dnew <- %R6
	@DEBUG_VALUE: _S_copy:__n <- %R6
	.loc	10 149 5                @ /root/Bela/projects/RNBO-KPStrong/render.cpp:149:5
	cmp	r6, #0
	beq	.LBB4_59
.Ltmp164:
@ BB#34:
	@DEBUG_VALUE: _S_copy:__n <- %R6
	@DEBUG_VALUE: _M_construct<char *>:__dnew <- %R6
	@DEBUG_VALUE: _S_copy:__s <- %R0
	@DEBUG_VALUE: basic_string:this <- %R5
	@DEBUG_VALUE: _M_local_data:this <- %R5
	@DEBUG_VALUE: _M_construct<const char *>:this <- %R5
	@DEBUG_VALUE: _M_construct_aux<const char *>:this <- %R5
	@DEBUG_VALUE: _M_construct<const char *>:this <- %R5
	@DEBUG_VALUE: _M_data:this <- %R5
	@DEBUG_VALUE: _M_set_length:this <- %R5
	@DEBUG_VALUE: _M_length:this <- %R5
	@DEBUG_VALUE: _M_data:this <- %R5
	@DEBUG_VALUE: setup:presetFile <- [%R5+0]
	@DEBUG_VALUE: c_str:this <- %R5
	@DEBUG_VALUE: _M_data:this <- %R5
	.loc	10 152 16               @ /root/Bela/projects/RNBO-KPStrong/render.cpp:152:16
.Ltmp41:
	mov	r0, #12
.Ltmp165:
	bl	_Znwj
	mov	r10, r0
.Ltmp42:
.Ltmp166:
@ BB#35:
	@DEBUG_VALUE: _S_copy:__n <- %R6
	@DEBUG_VALUE: _M_construct<char *>:__dnew <- %R6
	@DEBUG_VALUE: basic_string:this <- %R5
	@DEBUG_VALUE: _M_local_data:this <- %R5
	@DEBUG_VALUE: _M_construct<const char *>:this <- %R5
	@DEBUG_VALUE: _M_construct_aux<const char *>:this <- %R5
	@DEBUG_VALUE: _M_construct<const char *>:this <- %R5
	@DEBUG_VALUE: _M_data:this <- %R5
	@DEBUG_VALUE: _M_set_length:this <- %R5
	@DEBUG_VALUE: _M_length:this <- %R5
	@DEBUG_VALUE: _M_data:this <- %R5
	@DEBUG_VALUE: setup:presetFile <- [%R5+0]
	@DEBUG_VALUE: c_str:this <- %R5
	@DEBUG_VALUE: _M_data:this <- %R5
	add	r0, sp, #40
.Ltmp167:
	@DEBUG_VALUE: _M_construct<char *>:this <- %R0
	@DEBUG_VALUE: _M_construct_aux<char *>:this <- %R0
	@DEBUG_VALUE: _M_construct<char *>:this <- %R0
	@DEBUG_VALUE: _M_local_data:this <- %R0
	.loc	29 136 28               @ /usr/bin/../lib/gcc/arm-linux-gnueabihf/6.3.0/../../../../include/c++/6.3.0/bits/basic_string.h:136:28
	ldr	r5, [sp, #64]
.Ltmp168:
	@DEBUG_VALUE: _M_construct<char *>:__beg <- %R5
	@DEBUG_VALUE: _M_construct_aux<char *>:__beg <- %R5
	@DEBUG_VALUE: _M_construct<char *>:__beg <- %R5
	@DEBUG_VALUE: _S_copy_chars:__k1 <- %R5
	@DEBUG_VALUE: _S_copy:__s <- %R5
	@DEBUG_VALUE: assign:__c2 <- %R5
	.loc	29 142 51               @ /usr/bin/../lib/gcc/arm-linux-gnueabihf/6.3.0/../../../../include/c++/6.3.0/bits/basic_string.h:142:51
	add	r7, r0, #8
.Ltmp169:
	.loc	29 110 25               @ /usr/bin/../lib/gcc/arm-linux-gnueabihf/6.3.0/../../../../include/c++/6.3.0/bits/basic_string.h:110:25
	str	r7, [sp, #40]
.Ltmp170:
	.file	58 "/usr/bin/../lib/gcc/arm-linux-gnueabihf/6.3.0/../../../../include/c++/6.3.0/bits" "basic_string.tcc"
	.loc	58 211 42               @ /usr/bin/../lib/gcc/arm-linux-gnueabihf/6.3.0/../../../../include/c++/6.3.0/bits/basic_string.tcc:211:42
	cmp	r5, #0
	beq	.LBB4_70
.Ltmp171:
@ BB#36:
	@DEBUG_VALUE: assign:__c2 <- %R5
	@DEBUG_VALUE: _S_copy:__s <- %R5
	@DEBUG_VALUE: _S_copy_chars:__k1 <- %R5
	@DEBUG_VALUE: _M_construct<char *>:__beg <- %R5
	@DEBUG_VALUE: _M_construct_aux<char *>:__beg <- %R5
	@DEBUG_VALUE: _M_construct<char *>:__beg <- %R5
	@DEBUG_VALUE: _M_local_data:this <- %R0
	@DEBUG_VALUE: _M_construct<char *>:this <- %R0
	@DEBUG_VALUE: _M_construct_aux<char *>:this <- %R0
	@DEBUG_VALUE: _M_construct<char *>:this <- %R0
	@DEBUG_VALUE: _S_copy:__n <- %R6
	@DEBUG_VALUE: _M_construct<char *>:__dnew <- %R6
	.loc	58 215 12               @ /usr/bin/../lib/gcc/arm-linux-gnueabihf/6.3.0/../../../../include/c++/6.3.0/bits/basic_string.tcc:215:12
	str	r6, [r11, #-32]
	.loc	58 217 6                @ /usr/bin/../lib/gcc/arm-linux-gnueabihf/6.3.0/../../../../include/c++/6.3.0/bits/basic_string.tcc:217:6
	cmp	r6, #15
	bls	.LBB4_39
.Ltmp172:
@ BB#37:                                @ %.noexc6.i
	@DEBUG_VALUE: assign:__c2 <- %R5
	@DEBUG_VALUE: _S_copy:__s <- %R5
	@DEBUG_VALUE: _S_copy_chars:__k1 <- %R5
	@DEBUG_VALUE: _M_construct<char *>:__beg <- %R5
	@DEBUG_VALUE: _M_construct_aux<char *>:__beg <- %R5
	@DEBUG_VALUE: _M_construct<char *>:__beg <- %R5
	@DEBUG_VALUE: _M_local_data:this <- %R0
	@DEBUG_VALUE: _M_construct<char *>:this <- %R0
	@DEBUG_VALUE: _M_construct_aux<char *>:this <- %R0
	@DEBUG_VALUE: _M_construct<char *>:this <- %R0
	@DEBUG_VALUE: _S_copy:__n <- %R6
	@DEBUG_VALUE: _M_construct<char *>:__dnew <- %R6
	.loc	58 219 14               @ /usr/bin/../lib/gcc/arm-linux-gnueabihf/6.3.0/../../../../include/c++/6.3.0/bits/basic_string.tcc:219:14
.Ltmp43:
	add	r0, sp, #40
.Ltmp173:
	sub	r1, r11, #32
.Ltmp174:
	@DEBUG_VALUE: _M_construct<char *>:__dnew <- [%R1+0]
	mov	r2, #0
	bl	_ZNSt7__cxx1112basic_stringIcSt11char_traitsIcESaIcEE9_M_createERjj
.Ltmp175:
.Ltmp44:
.Ltmp176:
@ BB#38:                                @ %.noexc82
	@DEBUG_VALUE: assign:__c2 <- %R5
	@DEBUG_VALUE: _S_copy:__s <- %R5
	@DEBUG_VALUE: _S_copy_chars:__k1 <- %R5
	@DEBUG_VALUE: _M_construct<char *>:__beg <- %R5
	@DEBUG_VALUE: _M_construct_aux<char *>:__beg <- %R5
	@DEBUG_VALUE: _M_construct<char *>:__beg <- %R5
	@DEBUG_VALUE: _S_copy:__n <- %R6
	@DEBUG_VALUE: _M_data:__p <- %R0
	.loc	58 220 18               @ /usr/bin/../lib/gcc/arm-linux-gnueabihf/6.3.0/../../../../include/c++/6.3.0/bits/basic_string.tcc:220:18
	ldr	r1, [r11, #-32]
.Ltmp177:
	@DEBUG_VALUE: _M_capacity:__capacity <- %R1
	@DEBUG_VALUE: _M_construct<char *>:__dnew <- %R1
	.loc	29 128 26               @ /usr/bin/../lib/gcc/arm-linux-gnueabihf/6.3.0/../../../../include/c++/6.3.0/bits/basic_string.h:128:26
	str	r0, [sp, #40]
.Ltmp178:
	.loc	29 160 31               @ /usr/bin/../lib/gcc/arm-linux-gnueabihf/6.3.0/../../../../include/c++/6.3.0/bits/basic_string.h:160:31
	str	r1, [sp, #48]
	b	.LBB4_40
.Ltmp179:
.LBB4_39:                               @ %._crit_edge.i.i.i.i79
	@DEBUG_VALUE: assign:__c2 <- %R5
	@DEBUG_VALUE: _S_copy:__s <- %R5
	@DEBUG_VALUE: _S_copy_chars:__k1 <- %R5
	@DEBUG_VALUE: _M_construct<char *>:__beg <- %R5
	@DEBUG_VALUE: _M_construct_aux<char *>:__beg <- %R5
	@DEBUG_VALUE: _M_construct<char *>:__beg <- %R5
	@DEBUG_VALUE: _M_local_data:this <- %R0
	@DEBUG_VALUE: _M_construct<char *>:this <- %R0
	@DEBUG_VALUE: _M_construct_aux<char *>:this <- %R0
	@DEBUG_VALUE: _M_construct<char *>:this <- %R0
	@DEBUG_VALUE: _S_copy:__n <- %R6
	@DEBUG_VALUE: _M_construct<char *>:__dnew <- %R6
	.loc	29 136 28               @ /usr/bin/../lib/gcc/arm-linux-gnueabihf/6.3.0/../../../../include/c++/6.3.0/bits/basic_string.h:136:28
	mov	r0, r7
.Ltmp180:
.LBB4_40:
	@DEBUG_VALUE: assign:__c2 <- %R5
	@DEBUG_VALUE: _S_copy:__s <- %R5
	@DEBUG_VALUE: _S_copy_chars:__k1 <- %R5
	@DEBUG_VALUE: _M_construct<char *>:__beg <- %R5
	@DEBUG_VALUE: _M_construct_aux<char *>:__beg <- %R5
	@DEBUG_VALUE: _M_construct<char *>:__beg <- %R5
	@DEBUG_VALUE: _S_copy:__n <- %R6
	.loc	29 297 6                @ /usr/bin/../lib/gcc/arm-linux-gnueabihf/6.3.0/../../../../include/c++/6.3.0/bits/basic_string.h:297:6
	cmp	r6, #1
	bne	.LBB4_43
.Ltmp181:
@ BB#41:
	@DEBUG_VALUE: assign:__c2 <- %R5
	@DEBUG_VALUE: _S_copy:__s <- %R5
	@DEBUG_VALUE: _S_copy_chars:__k1 <- %R5
	@DEBUG_VALUE: _M_construct<char *>:__beg <- %R5
	@DEBUG_VALUE: _M_construct_aux<char *>:__beg <- %R5
	@DEBUG_VALUE: _M_construct<char *>:__beg <- %R5
	@DEBUG_VALUE: _S_copy:__n <- %R6
	.loc	31 243 16               @ /usr/bin/../lib/gcc/arm-linux-gnueabihf/6.3.0/../../../../include/c++/6.3.0/bits/char_traits.h:243:16
	ldrb	r1, [r5]
	.loc	31 243 14 is_stmt 0     @ /usr/bin/../lib/gcc/arm-linux-gnueabihf/6.3.0/../../../../include/c++/6.3.0/bits/char_traits.h:243:14
	strb	r1, [r0]
	b	.LBB4_44
.Ltmp182:
	.p2align	4
@ BB#42:
.LCPI4_1:
	.long	0                       @ float 0
	.long	1065353216              @ float 1
	.long	0                       @ float 0
	.long	1065353216              @ float 1
.LBB4_43:
.Ltmp183:
	@DEBUG_VALUE: assign:__c2 <- %R5
	@DEBUG_VALUE: _S_copy:__s <- %R5
	@DEBUG_VALUE: _S_copy_chars:__k1 <- %R5
	@DEBUG_VALUE: _M_construct<char *>:__beg <- %R5
	@DEBUG_VALUE: _M_construct_aux<char *>:__beg <- %R5
	@DEBUG_VALUE: _M_construct<char *>:__beg <- %R5
	@DEBUG_VALUE: _S_copy:__n <- %R6
	@DEBUG_VALUE: _S_copy_chars:__p <- %R0
	.loc	31 290 33 is_stmt 1     @ /usr/bin/../lib/gcc/arm-linux-gnueabihf/6.3.0/../../../../include/c++/6.3.0/bits/char_traits.h:290:33
	mov	r1, r5
	mov	r2, r6
	bl	memcpy
.Ltmp184:
.LBB4_44:
	@DEBUG_VALUE: assign:__c2 <- %R5
	@DEBUG_VALUE: _S_copy:__s <- %R5
	@DEBUG_VALUE: _S_copy_chars:__k1 <- %R5
	@DEBUG_VALUE: _M_construct<char *>:__beg <- %R5
	@DEBUG_VALUE: _M_construct_aux<char *>:__beg <- %R5
	@DEBUG_VALUE: _M_construct<char *>:__beg <- %R5
	@DEBUG_VALUE: _S_copy:__n <- %R6
	.loc	58 232 16               @ /usr/bin/../lib/gcc/arm-linux-gnueabihf/6.3.0/../../../../include/c++/6.3.0/bits/basic_string.tcc:232:16
	ldr	r0, [r11, #-32]
.Ltmp185:
	@DEBUG_VALUE: _M_set_length:__n <- %R0
	@DEBUG_VALUE: _M_length:__length <- %R0
	@DEBUG_VALUE: _M_construct<char *>:__dnew <- %R0
	.loc	31 243 14               @ /usr/bin/../lib/gcc/arm-linux-gnueabihf/6.3.0/../../../../include/c++/6.3.0/bits/char_traits.h:243:14
	mov	r2, #0
.Ltmp186:
	.loc	29 132 26               @ /usr/bin/../lib/gcc/arm-linux-gnueabihf/6.3.0/../../../../include/c++/6.3.0/bits/basic_string.h:132:26
	str	r0, [sp, #44]
.Ltmp187:
	.loc	29 136 28               @ /usr/bin/../lib/gcc/arm-linux-gnueabihf/6.3.0/../../../../include/c++/6.3.0/bits/basic_string.h:136:28
	ldr	r1, [sp, #40]
.Ltmp188:
	.loc	31 243 14               @ /usr/bin/../lib/gcc/arm-linux-gnueabihf/6.3.0/../../../../include/c++/6.3.0/bits/char_traits.h:243:14
	strb	r2, [r1, r0]
.Ltmp189:
	.loc	10 152 20 discriminator 2 @ /root/Bela/projects/RNBO-KPStrong/render.cpp:152:20
.Ltmp45:
	add	r1, sp, #40
.Ltmp190:
	@DEBUG_VALUE: _M_data:this <- %R1
	@DEBUG_VALUE: _M_length:this <- %R1
	mov	r0, r10
.Ltmp191:
	bl	_ZN4RNBO10PresetListC1ENSt7__cxx1112basic_stringIcSt11char_traitsIcESaIcEEE
.Ltmp192:
.Ltmp46:
.Ltmp193:
@ BB#45:
	@DEBUG_VALUE: assign:__c2 <- %R5
	@DEBUG_VALUE: _S_copy:__s <- %R5
	@DEBUG_VALUE: _S_copy_chars:__k1 <- %R5
	@DEBUG_VALUE: _M_construct<char *>:__beg <- %R5
	@DEBUG_VALUE: _M_construct_aux<char *>:__beg <- %R5
	@DEBUG_VALUE: _M_construct<char *>:__beg <- %R5
	@DEBUG_VALUE: _S_copy:__n <- %R6
	.loc	29 136 28               @ /usr/bin/../lib/gcc/arm-linux-gnueabihf/6.3.0/../../../../include/c++/6.3.0/bits/basic_string.h:136:28
	ldr	r0, [sp, #40]
.Ltmp194:
	@DEBUG_VALUE: deallocate:__p <- %R0
	@DEBUG_VALUE: deallocate:__p <- %R0
	.loc	10 117 7 discriminator 1 @ /root/Bela/projects/RNBO-KPStrong/render.cpp:117:7
	movw	r5, :lower16:.L_MergedGlobals.1
.Ltmp195:
	movt	r5, :upper16:.L_MergedGlobals.1
.Ltmp196:
	.loc	10 152 14 discriminator 3 @ /root/Bela/projects/RNBO-KPStrong/render.cpp:152:14
	str	r10, [r5, #4]
.Ltmp197:
	.loc	29 180 6                @ /usr/bin/../lib/gcc/arm-linux-gnueabihf/6.3.0/../../../../include/c++/6.3.0/bits/basic_string.h:180:6
	cmp	r0, r7
	beq	.LBB4_47
.Ltmp198:
@ BB#46:
	@DEBUG_VALUE: deallocate:__p <- %R0
	@DEBUG_VALUE: deallocate:__p <- %R0
	@DEBUG_VALUE: _S_copy:__n <- %R6
	.loc	3 110 9                 @ /usr/bin/../lib/gcc/arm-linux-gnueabihf/6.3.0/../../../../include/c++/6.3.0/ext/new_allocator.h:110:9
	bl	_ZdlPv
.Ltmp199:
	.loc	10 153 32               @ /root/Bela/projects/RNBO-KPStrong/render.cpp:153:32
	ldr	r10, [r5, #4]
.Ltmp200:
.LBB4_47:                               @ %_ZNSt7__cxx1112basic_stringIcSt11char_traitsIcESaIcEED2Ev.exit77
	@DEBUG_VALUE: _S_copy:__n <- %R6
	.loc	10 153 44 is_stmt 0     @ /root/Bela/projects/RNBO-KPStrong/render.cpp:153:44
.Ltmp48:
	mov	r0, r10
	bl	_ZN4RNBO10PresetList4sizeEv
	mov	r1, r0
.Ltmp49:
.Ltmp201:
@ BB#48:
	@DEBUG_VALUE: _S_copy:__n <- %R6
	.loc	10 153 3 discriminator 1 @ /root/Bela/projects/RNBO-KPStrong/render.cpp:153:3
	movw	r0, :lower16:.L.str.16
	movt	r0, :upper16:.L.str.16
	bl	printf
.Ltmp202:
	.loc	10 117 7 is_stmt 1 discriminator 1 @ /root/Bela/projects/RNBO-KPStrong/render.cpp:117:7
	movw	r0, :lower16:.L_MergedGlobals.1
	movt	r0, :upper16:.L_MergedGlobals.1
.Ltmp203:
	.loc	10 154 6                @ /root/Bela/projects/RNBO-KPStrong/render.cpp:154:6
	ldr	r0, [r0, #4]
	.loc	10 154 18 is_stmt 0     @ /root/Bela/projects/RNBO-KPStrong/render.cpp:154:18
.Ltmp50:
	bl	_ZN4RNBO10PresetList4sizeEv
.Ltmp51:
.Ltmp204:
@ BB#49:
	@DEBUG_VALUE: _S_copy:__n <- %R6
	.loc	10 154 6 discriminator 1 @ /root/Bela/projects/RNBO-KPStrong/render.cpp:154:6
	cmp	r0, #0
	beq	.LBB4_59
.Ltmp205:
@ BB#50:
	@DEBUG_VALUE: _S_copy:__n <- %R6
	@DEBUG_VALUE: idx <- 0
	.loc	10 117 7 is_stmt 1 discriminator 1 @ /root/Bela/projects/RNBO-KPStrong/render.cpp:117:7
	movw	r5, :lower16:.L_MergedGlobals.1
	movt	r5, :upper16:.L_MergedGlobals.1
.Ltmp206:
	.loc	10 157 35               @ /root/Bela/projects/RNBO-KPStrong/render.cpp:157:35
	ldr	r1, [r5, #4]
	.loc	10 157 47 is_stmt 0     @ /root/Bela/projects/RNBO-KPStrong/render.cpp:157:47
.Ltmp52:
	add	r0, sp, #36
	mov	r2, #0
	bl	_ZN4RNBO10PresetList13presetAtIndexEj
.Ltmp53:
.Ltmp207:
@ BB#51:
	@DEBUG_VALUE: _S_copy:__n <- %R6
	.loc	10 158 43 is_stmt 1     @ /root/Bela/projects/RNBO-KPStrong/render.cpp:158:43
	ldr	r1, [r5, #4]
	.loc	10 158 55 is_stmt 0     @ /root/Bela/projects/RNBO-KPStrong/render.cpp:158:55
.Ltmp55:
	add	r5, sp, #12
	mov	r2, #0
	mov	r0, r5
	bl	_ZN4RNBO10PresetList17presetNameAtIndexB5cxx11Ej
.Ltmp56:
.Ltmp208:
@ BB#52:
	@DEBUG_VALUE: _S_copy:__n <- %R6
	.loc	29 136 28 is_stmt 1     @ /usr/bin/../lib/gcc/arm-linux-gnueabihf/6.3.0/../../../../include/c++/6.3.0/bits/basic_string.h:136:28
	ldr	r2, [sp, #12]
.Ltmp209:
	.loc	10 158 4 discriminator 1 @ /root/Bela/projects/RNBO-KPStrong/render.cpp:158:4
	movw	r0, :lower16:.L.str.17
	movt	r0, :upper16:.L.str.17
	mov	r1, #0
	mov	r6, #0
.Ltmp210:
	bl	printf
.Ltmp211:
	.loc	29 136 28               @ /usr/bin/../lib/gcc/arm-linux-gnueabihf/6.3.0/../../../../include/c++/6.3.0/bits/basic_string.h:136:28
	ldr	r0, [sp, #12]
.Ltmp212:
	@DEBUG_VALUE: _M_local_data:this <- %R5
	@DEBUG_VALUE: _M_data:this <- %R5
	@DEBUG_VALUE: _M_is_local:this <- %R5
	@DEBUG_VALUE: _M_dispose:this <- %R5
	@DEBUG_VALUE: ~basic_string:this <- %R5
	@DEBUG_VALUE: _M_data:this <- %R5
	@DEBUG_VALUE: deallocate:__p <- %R0
	@DEBUG_VALUE: deallocate:__p <- %R0
	.loc	29 152 57               @ /usr/bin/../lib/gcc/arm-linux-gnueabihf/6.3.0/../../../../include/c++/6.3.0/bits/basic_string.h:152:57
	add	r1, r5, #8
.Ltmp213:
	.loc	29 180 6                @ /usr/bin/../lib/gcc/arm-linux-gnueabihf/6.3.0/../../../../include/c++/6.3.0/bits/basic_string.h:180:6
	cmp	r0, r1
	beq	.LBB4_54
.Ltmp214:
@ BB#53:
	@DEBUG_VALUE: deallocate:__p <- %R0
	@DEBUG_VALUE: deallocate:__p <- %R0
	@DEBUG_VALUE: _M_data:this <- %R5
	@DEBUG_VALUE: ~basic_string:this <- %R5
	@DEBUG_VALUE: _M_dispose:this <- %R5
	@DEBUG_VALUE: _M_is_local:this <- %R5
	@DEBUG_VALUE: _M_data:this <- %R5
	@DEBUG_VALUE: _M_local_data:this <- %R5
	.loc	3 110 9                 @ /usr/bin/../lib/gcc/arm-linux-gnueabihf/6.3.0/../../../../include/c++/6.3.0/ext/new_allocator.h:110:9
	bl	_ZdlPv
.Ltmp215:
.LBB4_54:                               @ %_ZNSt7__cxx1112basic_stringIcSt11char_traitsIcESaIcEED2Ev.exit76
	@DEBUG_VALUE: _M_data:this <- %R5
	@DEBUG_VALUE: ~basic_string:this <- %R5
	@DEBUG_VALUE: _M_dispose:this <- %R5
	@DEBUG_VALUE: _M_is_local:this <- %R5
	@DEBUG_VALUE: _M_data:this <- %R5
	@DEBUG_VALUE: _M_local_data:this <- %R5
	.loc	10 117 7 discriminator 1 @ /root/Bela/projects/RNBO-KPStrong/render.cpp:117:7
	movw	r0, :lower16:.L_MergedGlobals.1
.Ltmp216:
	.loc	24 308 16               @ /usr/bin/../lib/gcc/arm-linux-gnueabihf/6.3.0/../../../../include/c++/6.3.0/bits/unique_ptr.h:308:16
	ldr	r1, [sp, #36]
.Ltmp217:
	.loc	10 117 7 discriminator 1 @ /root/Bela/projects/RNBO-KPStrong/render.cpp:117:7
	movt	r0, :upper16:.L_MergedGlobals.1
.Ltmp218:
	.loc	24 331 20               @ /usr/bin/../lib/gcc/arm-linux-gnueabihf/6.3.0/../../../../include/c++/6.3.0/bits/unique_ptr.h:331:20
	str	r6, [sp, #36]
.Ltmp219:
	.loc	10 159 4                @ /root/Bela/projects/RNBO-KPStrong/render.cpp:159:4
	ldr	r0, [r0]
.Ltmp220:
	.loc	25 115 4                @ /usr/bin/../lib/gcc/arm-linux-gnueabihf/6.3.0/../../../../include/c++/6.3.0/tuple:115:4
	str	r1, [sp, #8]
.Ltmp221:
	.loc	10 159 10               @ /root/Bela/projects/RNBO-KPStrong/render.cpp:159:10
.Ltmp58:
	add	r1, sp, #8
.Ltmp222:
	@DEBUG_VALUE: unique_ptr:this <- %R1
	bl	_ZN4RNBO10CoreObject9setPresetESt10unique_ptrINS_12PatcherStateESt14default_deleteIS2_EE
.Ltmp223:
.Ltmp59:
.Ltmp224:
@ BB#55:
	@DEBUG_VALUE: _M_data:this <- %R5
	@DEBUG_VALUE: ~basic_string:this <- %R5
	@DEBUG_VALUE: _M_dispose:this <- %R5
	@DEBUG_VALUE: _M_is_local:this <- %R5
	@DEBUG_VALUE: _M_data:this <- %R5
	@DEBUG_VALUE: _M_local_data:this <- %R5
	.loc	24 238 6                @ /usr/bin/../lib/gcc/arm-linux-gnueabihf/6.3.0/../../../../include/c++/6.3.0/bits/unique_ptr.h:238:6
	ldr	r0, [sp, #8]
.Ltmp225:
	@DEBUG_VALUE: operator():__ptr <- %R0
	.loc	24 238 6 is_stmt 0      @ /usr/bin/../lib/gcc/arm-linux-gnueabihf/6.3.0/../../../../include/c++/6.3.0/bits/unique_ptr.h:238:6
	cmp	r0, #0
	beq	.LBB4_57
.Ltmp226:
@ BB#56:                                @ %_ZNKSt14default_deleteIN4RNBO12PatcherStateEEclEPS1_.exit.i74
	@DEBUG_VALUE: operator():__ptr <- %R0
	@DEBUG_VALUE: _M_data:this <- %R5
	@DEBUG_VALUE: ~basic_string:this <- %R5
	@DEBUG_VALUE: _M_dispose:this <- %R5
	@DEBUG_VALUE: _M_is_local:this <- %R5
	@DEBUG_VALUE: _M_data:this <- %R5
	@DEBUG_VALUE: _M_local_data:this <- %R5
	.loc	24 76 2 is_stmt 1 discriminator 1 @ /usr/bin/../lib/gcc/arm-linux-gnueabihf/6.3.0/../../../../include/c++/6.3.0/bits/unique_ptr.h:76:2
	ldr	r1, [r0]
	ldr	r1, [r1, #4]
	blx	r1
.Ltmp227:
.LBB4_57:                               @ %_ZNSt10unique_ptrIN4RNBO12PatcherStateESt14default_deleteIS1_EED2Ev.exit75
	@DEBUG_VALUE: _M_data:this <- %R5
	@DEBUG_VALUE: ~basic_string:this <- %R5
	@DEBUG_VALUE: _M_dispose:this <- %R5
	@DEBUG_VALUE: _M_is_local:this <- %R5
	@DEBUG_VALUE: _M_data:this <- %R5
	@DEBUG_VALUE: _M_local_data:this <- %R5
	mov	r0, #0
	.loc	24 240 8                @ /usr/bin/../lib/gcc/arm-linux-gnueabihf/6.3.0/../../../../include/c++/6.3.0/bits/unique_ptr.h:240:8
	str	r0, [sp, #8]
.Ltmp228:
	.loc	24 238 6                @ /usr/bin/../lib/gcc/arm-linux-gnueabihf/6.3.0/../../../../include/c++/6.3.0/bits/unique_ptr.h:238:6
	ldr	r0, [sp, #36]
.Ltmp229:
	@DEBUG_VALUE: operator():__ptr <- %R0
	.loc	24 238 6 is_stmt 0      @ /usr/bin/../lib/gcc/arm-linux-gnueabihf/6.3.0/../../../../include/c++/6.3.0/bits/unique_ptr.h:238:6
	cmp	r0, #0
	beq	.LBB4_59
.Ltmp230:
@ BB#58:                                @ %_ZNKSt14default_deleteIN4RNBO12PatcherStateEEclEPS1_.exit.i72
	@DEBUG_VALUE: operator():__ptr <- %R0
	@DEBUG_VALUE: _M_data:this <- %R5
	@DEBUG_VALUE: ~basic_string:this <- %R5
	@DEBUG_VALUE: _M_dispose:this <- %R5
	@DEBUG_VALUE: _M_is_local:this <- %R5
	@DEBUG_VALUE: _M_data:this <- %R5
	@DEBUG_VALUE: _M_local_data:this <- %R5
	.loc	24 76 2 is_stmt 1 discriminator 1 @ /usr/bin/../lib/gcc/arm-linux-gnueabihf/6.3.0/../../../../include/c++/6.3.0/bits/unique_ptr.h:76:2
	ldr	r1, [r0]
	ldr	r1, [r1, #4]
	blx	r1
.Ltmp231:
.LBB4_59:
	.loc	10 117 7 discriminator 1 @ /root/Bela/projects/RNBO-KPStrong/render.cpp:117:7
	movw	r0, :lower16:.L_MergedGlobals.1
	.loc	10 162 60               @ /root/Bela/projects/RNBO-KPStrong/render.cpp:162:60
	ldr	r1, [r4, #20]
	.loc	10 117 7 discriminator 1 @ /root/Bela/projects/RNBO-KPStrong/render.cpp:117:7
	movt	r0, :upper16:.L_MergedGlobals.1
	.loc	10 162 34               @ /root/Bela/projects/RNBO-KPStrong/render.cpp:162:34
	vldr	s0, [r4, #32]
	.loc	10 162 2 is_stmt 0      @ /root/Bela/projects/RNBO-KPStrong/render.cpp:162:2
	ldr	r0, [r0]
	.loc	10 162 8                @ /root/Bela/projects/RNBO-KPStrong/render.cpp:162:8
.Ltmp64:
	mov	r2, #1
	bl	_ZN4RNBO10CoreObject16prepareToProcessEfjb
.Ltmp65:
@ BB#60:
	.loc	10 166 2 is_stmt 1      @ /root/Bela/projects/RNBO-KPStrong/render.cpp:166:2
	movw	r0, :lower16:.Lstr
	movt	r0, :upper16:.Lstr
	bl	puts
.Ltmp232:
	.loc	29 136 28               @ /usr/bin/../lib/gcc/arm-linux-gnueabihf/6.3.0/../../../../include/c++/6.3.0/bits/basic_string.h:136:28
	ldr	r0, [sp, #64]
.Ltmp233:
	@DEBUG_VALUE: _M_local_data:this <- %R8
	@DEBUG_VALUE: _M_data:this <- %R8
	@DEBUG_VALUE: deallocate:__p <- %R0
	@DEBUG_VALUE: deallocate:__p <- %R0
	.loc	29 152 57               @ /usr/bin/../lib/gcc/arm-linux-gnueabihf/6.3.0/../../../../include/c++/6.3.0/bits/basic_string.h:152:57
	add	r1, r8, #8
.Ltmp234:
	.loc	29 180 6                @ /usr/bin/../lib/gcc/arm-linux-gnueabihf/6.3.0/../../../../include/c++/6.3.0/bits/basic_string.h:180:6
	cmp	r0, r1
	beq	.LBB4_62
.Ltmp235:
@ BB#61:
	@DEBUG_VALUE: deallocate:__p <- %R0
	@DEBUG_VALUE: deallocate:__p <- %R0
	@DEBUG_VALUE: _M_data:this <- %R8
	@DEBUG_VALUE: _M_local_data:this <- %R8
	.loc	3 110 9                 @ /usr/bin/../lib/gcc/arm-linux-gnueabihf/6.3.0/../../../../include/c++/6.3.0/ext/new_allocator.h:110:9
	bl	_ZdlPv
.Ltmp236:
.LBB4_62:                               @ %_ZNSt7__cxx1112basic_stringIcSt11char_traitsIcESaIcEED2Ev.exit62
	@DEBUG_VALUE: _M_data:this <- %R8
	@DEBUG_VALUE: _M_local_data:this <- %R8
	.loc	29 136 28               @ /usr/bin/../lib/gcc/arm-linux-gnueabihf/6.3.0/../../../../include/c++/6.3.0/bits/basic_string.h:136:28
	ldr	r0, [sp, #88]
.Ltmp237:
	@DEBUG_VALUE: deallocate:__p <- %R0
	@DEBUG_VALUE: deallocate:__p <- %R0
	.loc	29 180 6                @ /usr/bin/../lib/gcc/arm-linux-gnueabihf/6.3.0/../../../../include/c++/6.3.0/bits/basic_string.h:180:6
	cmp	r0, r9
	beq	.LBB4_64
.Ltmp238:
@ BB#63:
	@DEBUG_VALUE: deallocate:__p <- %R0
	@DEBUG_VALUE: deallocate:__p <- %R0
	@DEBUG_VALUE: _M_data:this <- %R8
	@DEBUG_VALUE: _M_local_data:this <- %R8
	.loc	3 110 9                 @ /usr/bin/../lib/gcc/arm-linux-gnueabihf/6.3.0/../../../../include/c++/6.3.0/ext/new_allocator.h:110:9
	bl	_ZdlPv
.Ltmp239:
.LBB4_64:                               @ %_ZNSt7__cxx1112basic_stringIcSt11char_traitsIcESaIcEED2Ev.exit60
	@DEBUG_VALUE: _M_data:this <- %R8
	@DEBUG_VALUE: _M_local_data:this <- %R8
	mov	r0, #1
	.loc	10 168 1 discriminator 14 @ /root/Bela/projects/RNBO-KPStrong/render.cpp:168:1
	sub	sp, r11, #28
	pop	{r4, r5, r6, r7, r8, r9, r10, r11, pc}
.Ltmp240:
.LBB4_65:
	@DEBUG_VALUE: setup:context <- %R4
	@DEBUG_VALUE: setup:userData <- %R1
	.loc	10 92 11                @ /root/Bela/projects/RNBO-KPStrong/render.cpp:92:11
	movw	r0, :lower16:stderr
	movt	r0, :upper16:stderr
	ldr	r3, [r0]
	.loc	10 92 3 is_stmt 0       @ /root/Bela/projects/RNBO-KPStrong/render.cpp:92:3
	movw	r0, :lower16:.L.str
	movt	r0, :upper16:.L.str
	b	.LBB4_68
.Ltmp241:
.LBB4_66:
	@DEBUG_VALUE: setup:context <- %R4
	@DEBUG_VALUE: setup:userData <- %R1
	.loc	10 97 11 is_stmt 1      @ /root/Bela/projects/RNBO-KPStrong/render.cpp:97:11
	movw	r0, :lower16:stderr
	.loc	10 97 3 is_stmt 0       @ /root/Bela/projects/RNBO-KPStrong/render.cpp:97:3
	mov	r1, #70
.Ltmp242:
	.loc	10 97 11                @ /root/Bela/projects/RNBO-KPStrong/render.cpp:97:11
	movt	r0, :upper16:stderr
	ldr	r3, [r0]
	.loc	10 97 3                 @ /root/Bela/projects/RNBO-KPStrong/render.cpp:97:3
	movw	r0, :lower16:.L.str.5
	movt	r0, :upper16:.L.str.5
	b	.LBB4_69
.Ltmp243:
.LBB4_67:
	@DEBUG_VALUE: setup:context <- %R4
	.loc	10 103 11 is_stmt 1     @ /root/Bela/projects/RNBO-KPStrong/render.cpp:103:11
	movw	r0, :lower16:stderr
	movt	r0, :upper16:stderr
	ldr	r3, [r0]
	.loc	10 103 3 is_stmt 0      @ /root/Bela/projects/RNBO-KPStrong/render.cpp:103:3
	movw	r0, :lower16:.L.str.6
	movt	r0, :upper16:.L.str.6
.Ltmp244:
.LBB4_68:
	@DEBUG_VALUE: setup:context <- %R4
	.loc	10 92 3 is_stmt 1       @ /root/Bela/projects/RNBO-KPStrong/render.cpp:92:3
	mov	r1, #34
.Ltmp245:
.LBB4_69:
	@DEBUG_VALUE: setup:context <- %R4
	mov	r2, #1
	bl	fwrite
	mov	r0, #0
.Ltmp246:
	.loc	10 168 1 discriminator 14 @ /root/Bela/projects/RNBO-KPStrong/render.cpp:168:1
	sub	sp, r11, #28
	pop	{r4, r5, r6, r7, r8, r9, r10, r11, pc}
.Ltmp247:
.LBB4_70:                               @ %.noexc.i
	@DEBUG_VALUE: assign:__c2 <- %R5
	@DEBUG_VALUE: _S_copy:__s <- %R5
	@DEBUG_VALUE: _S_copy_chars:__k1 <- %R5
	@DEBUG_VALUE: _M_construct<char *>:__beg <- %R5
	@DEBUG_VALUE: _M_construct_aux<char *>:__beg <- %R5
	@DEBUG_VALUE: _M_construct<char *>:__beg <- %R5
	@DEBUG_VALUE: _M_local_data:this <- %R0
	@DEBUG_VALUE: _M_construct<char *>:this <- %R0
	@DEBUG_VALUE: _M_construct_aux<char *>:this <- %R0
	@DEBUG_VALUE: _M_construct<char *>:this <- %R0
	@DEBUG_VALUE: _S_copy:__n <- %R6
	@DEBUG_VALUE: _M_construct<char *>:__dnew <- %R6
	.loc	58 212 4                @ /usr/bin/../lib/gcc/arm-linux-gnueabihf/6.3.0/../../../../include/c++/6.3.0/bits/basic_string.tcc:212:4
.Ltmp61:
	movw	r0, :lower16:.L.str.20
.Ltmp248:
	movt	r0, :upper16:.L.str.20
	mov	lr, pc
	b	_ZSt19__throw_logic_errorPKc
.Ltmp62:
.Ltmp249:
@ BB#71:                                @ %.noexc81
	@DEBUG_VALUE: assign:__c2 <- %R5
	@DEBUG_VALUE: _S_copy:__s <- %R5
	@DEBUG_VALUE: _S_copy_chars:__k1 <- %R5
	@DEBUG_VALUE: _M_construct<char *>:__beg <- %R5
	@DEBUG_VALUE: _M_construct_aux<char *>:__beg <- %R5
	@DEBUG_VALUE: _M_construct<char *>:__beg <- %R5
	@DEBUG_VALUE: _S_copy:__n <- %R6
	@DEBUG_VALUE: _M_construct<char *>:__dnew <- %R6
.LBB4_72:
	@DEBUG_VALUE: assign:__c2 <- %R5
	@DEBUG_VALUE: _S_copy:__s <- %R5
	@DEBUG_VALUE: _S_copy_chars:__k1 <- %R5
	@DEBUG_VALUE: _M_construct<char *>:__beg <- %R5
	@DEBUG_VALUE: _M_construct_aux<char *>:__beg <- %R5
	@DEBUG_VALUE: _M_construct<char *>:__beg <- %R5
	@DEBUG_VALUE: _S_copy:__n <- %R6
.Ltmp63:
	mov	r4, r0
	b	.LBB4_83
.Ltmp250:
.LBB4_73:
	@DEBUG_VALUE: _M_data:this <- %R5
	@DEBUG_VALUE: ~basic_string:this <- %R5
	@DEBUG_VALUE: _M_dispose:this <- %R5
	@DEBUG_VALUE: _M_is_local:this <- %R5
	@DEBUG_VALUE: _M_data:this <- %R5
	@DEBUG_VALUE: _M_local_data:this <- %R5
.Ltmp60:
	mov	r4, r0
.Ltmp251:
	.loc	24 238 6                @ /usr/bin/../lib/gcc/arm-linux-gnueabihf/6.3.0/../../../../include/c++/6.3.0/bits/unique_ptr.h:238:6
	ldr	r0, [sp, #8]
.Ltmp252:
	@DEBUG_VALUE: operator():__ptr <- %R0
	.loc	24 238 6 is_stmt 0      @ /usr/bin/../lib/gcc/arm-linux-gnueabihf/6.3.0/../../../../include/c++/6.3.0/bits/unique_ptr.h:238:6
	cmp	r0, #0
	beq	.LBB4_75
.Ltmp253:
@ BB#74:                                @ %_ZNKSt14default_deleteIN4RNBO12PatcherStateEEclEPS1_.exit.i64
	@DEBUG_VALUE: operator():__ptr <- %R0
	@DEBUG_VALUE: _M_data:this <- %R5
	@DEBUG_VALUE: ~basic_string:this <- %R5
	@DEBUG_VALUE: _M_dispose:this <- %R5
	@DEBUG_VALUE: _M_is_local:this <- %R5
	@DEBUG_VALUE: _M_data:this <- %R5
	@DEBUG_VALUE: _M_local_data:this <- %R5
	.loc	24 76 2 is_stmt 1 discriminator 1 @ /usr/bin/../lib/gcc/arm-linux-gnueabihf/6.3.0/../../../../include/c++/6.3.0/bits/unique_ptr.h:76:2
	ldr	r1, [r0]
	ldr	r1, [r1, #4]
	blx	r1
.Ltmp254:
.LBB4_75:                               @ %_ZNSt10unique_ptrIN4RNBO12PatcherStateESt14default_deleteIS1_EED2Ev.exit65
	@DEBUG_VALUE: _M_data:this <- %R5
	@DEBUG_VALUE: ~basic_string:this <- %R5
	@DEBUG_VALUE: _M_dispose:this <- %R5
	@DEBUG_VALUE: _M_is_local:this <- %R5
	@DEBUG_VALUE: _M_data:this <- %R5
	@DEBUG_VALUE: _M_local_data:this <- %R5
	.loc	24 240 8                @ /usr/bin/../lib/gcc/arm-linux-gnueabihf/6.3.0/../../../../include/c++/6.3.0/bits/unique_ptr.h:240:8
	mov	r0, #0
	str	r0, [sp, #8]
	b	.LBB4_77
.Ltmp255:
.LBB4_76:
	@DEBUG_VALUE: _S_copy:__n <- %R6
.Ltmp57:
	mov	r4, r0
.Ltmp256:
.LBB4_77:
	.loc	24 238 6                @ /usr/bin/../lib/gcc/arm-linux-gnueabihf/6.3.0/../../../../include/c++/6.3.0/bits/unique_ptr.h:238:6
	ldr	r0, [sp, #36]
.Ltmp257:
	@DEBUG_VALUE: operator():__ptr <- %R0
	.loc	24 238 6 is_stmt 0      @ /usr/bin/../lib/gcc/arm-linux-gnueabihf/6.3.0/../../../../include/c++/6.3.0/bits/unique_ptr.h:238:6
	cmp	r0, #0
	beq	.LBB4_79
.Ltmp258:
@ BB#78:                                @ %_ZNKSt14default_deleteIN4RNBO12PatcherStateEEclEPS1_.exit.i
	@DEBUG_VALUE: operator():__ptr <- %R0
	.loc	24 76 2 is_stmt 1 discriminator 1 @ /usr/bin/../lib/gcc/arm-linux-gnueabihf/6.3.0/../../../../include/c++/6.3.0/bits/unique_ptr.h:76:2
	ldr	r1, [r0]
	ldr	r1, [r1, #4]
	blx	r1
.Ltmp259:
.LBB4_79:                               @ %_ZNSt10unique_ptrIN4RNBO12PatcherStateESt14default_deleteIS1_EED2Ev.exit
	.loc	24 240 8                @ /usr/bin/../lib/gcc/arm-linux-gnueabihf/6.3.0/../../../../include/c++/6.3.0/bits/unique_ptr.h:240:8
	mov	r0, #0
	str	r0, [sp, #36]
	b	.LBB4_88
.Ltmp260:
.LBB4_80:
	@DEBUG_VALUE: _S_copy:__n <- %R6
.Ltmp54:
	b	.LBB4_87
.Ltmp261:
.LBB4_81:
	@DEBUG_VALUE: assign:__c2 <- %R5
	@DEBUG_VALUE: _S_copy:__s <- %R5
	@DEBUG_VALUE: _S_copy_chars:__k1 <- %R5
	@DEBUG_VALUE: _M_construct<char *>:__beg <- %R5
	@DEBUG_VALUE: _M_construct_aux<char *>:__beg <- %R5
	@DEBUG_VALUE: _M_construct<char *>:__beg <- %R5
	@DEBUG_VALUE: _S_copy:__n <- %R6
.Ltmp47:
	mov	r4, r0
.Ltmp262:
	.loc	29 136 28               @ /usr/bin/../lib/gcc/arm-linux-gnueabihf/6.3.0/../../../../include/c++/6.3.0/bits/basic_string.h:136:28
	ldr	r0, [sp, #40]
.Ltmp263:
	@DEBUG_VALUE: deallocate:__p <- %R0
	@DEBUG_VALUE: deallocate:__p <- %R0
	.loc	29 180 6                @ /usr/bin/../lib/gcc/arm-linux-gnueabihf/6.3.0/../../../../include/c++/6.3.0/bits/basic_string.h:180:6
	cmp	r0, r7
	beq	.LBB4_83
.Ltmp264:
@ BB#82:
	@DEBUG_VALUE: deallocate:__p <- %R0
	@DEBUG_VALUE: deallocate:__p <- %R0
	@DEBUG_VALUE: assign:__c2 <- %R5
	@DEBUG_VALUE: _S_copy:__s <- %R5
	@DEBUG_VALUE: _S_copy_chars:__k1 <- %R5
	@DEBUG_VALUE: _M_construct<char *>:__beg <- %R5
	@DEBUG_VALUE: _M_construct_aux<char *>:__beg <- %R5
	@DEBUG_VALUE: _M_construct<char *>:__beg <- %R5
	@DEBUG_VALUE: _S_copy:__n <- %R6
	.loc	3 110 9                 @ /usr/bin/../lib/gcc/arm-linux-gnueabihf/6.3.0/../../../../include/c++/6.3.0/ext/new_allocator.h:110:9
	bl	_ZdlPv
.Ltmp265:
.LBB4_83:                               @ %_ZNSt7__cxx1112basic_stringIcSt11char_traitsIcESaIcEED2Ev.exit70
	@DEBUG_VALUE: assign:__c2 <- %R5
	@DEBUG_VALUE: _S_copy:__s <- %R5
	@DEBUG_VALUE: _S_copy_chars:__k1 <- %R5
	@DEBUG_VALUE: _M_construct<char *>:__beg <- %R5
	@DEBUG_VALUE: _M_construct_aux<char *>:__beg <- %R5
	@DEBUG_VALUE: _M_construct<char *>:__beg <- %R5
	@DEBUG_VALUE: _S_copy:__n <- %R6
	.loc	10 152 3 discriminator 6 @ /root/Bela/projects/RNBO-KPStrong/render.cpp:152:3
	mov	r0, r10
	bl	_ZdlPv
	b	.LBB4_88
.Ltmp266:
.LBB4_84:
	@DEBUG_VALUE: _S_copy:__s <- %R0
	@DEBUG_VALUE: basic_string:this <- %R5
	@DEBUG_VALUE: _M_local_data:this <- %R5
	@DEBUG_VALUE: _M_construct<const char *>:this <- %R5
	@DEBUG_VALUE: _M_construct_aux<const char *>:this <- %R5
	@DEBUG_VALUE: _M_construct<const char *>:this <- %R5
	@DEBUG_VALUE: _M_data:this <- %R5
	@DEBUG_VALUE: _M_set_length:this <- %R5
	@DEBUG_VALUE: _M_length:this <- %R5
	@DEBUG_VALUE: _M_data:this <- %R5
	@DEBUG_VALUE: setup:presetFile <- [%R5+0]
	@DEBUG_VALUE: c_str:this <- %R5
	@DEBUG_VALUE: _M_data:this <- %R5
.Ltmp40:
	mov	r4, r0
	b	.LBB4_90
.Ltmp267:
.LBB4_85:
	@DEBUG_VALUE: setup:context <- %R4
.Ltmp37:
	mov	r4, r0
.Ltmp268:
	.loc	10 117 9 discriminator 2 @ /root/Bela/projects/RNBO-KPStrong/render.cpp:117:9
	mov	r0, r5
	b	.LBB4_91
.LBB4_86:
.Ltmp66:
.LBB4_87:
	mov	r4, r0
.LBB4_88:
.Ltmp269:
	.loc	29 136 28               @ /usr/bin/../lib/gcc/arm-linux-gnueabihf/6.3.0/../../../../include/c++/6.3.0/bits/basic_string.h:136:28
	ldr	r0, [sp, #64]
.Ltmp270:
	@DEBUG_VALUE: _M_local_data:this <- %R8
	@DEBUG_VALUE: _M_data:this <- %R8
	@DEBUG_VALUE: deallocate:__p <- %R0
	@DEBUG_VALUE: deallocate:__p <- %R0
	.loc	29 152 57               @ /usr/bin/../lib/gcc/arm-linux-gnueabihf/6.3.0/../../../../include/c++/6.3.0/bits/basic_string.h:152:57
	add	r1, r8, #8
.Ltmp271:
	.loc	29 180 6                @ /usr/bin/../lib/gcc/arm-linux-gnueabihf/6.3.0/../../../../include/c++/6.3.0/bits/basic_string.h:180:6
	cmp	r0, r1
	beq	.LBB4_90
.Ltmp272:
@ BB#89:
	@DEBUG_VALUE: deallocate:__p <- %R0
	@DEBUG_VALUE: deallocate:__p <- %R0
	@DEBUG_VALUE: _M_data:this <- %R8
	@DEBUG_VALUE: _M_local_data:this <- %R8
	.loc	3 110 9                 @ /usr/bin/../lib/gcc/arm-linux-gnueabihf/6.3.0/../../../../include/c++/6.3.0/ext/new_allocator.h:110:9
	bl	_ZdlPv
.Ltmp273:
.LBB4_90:
	.loc	29 136 28               @ /usr/bin/../lib/gcc/arm-linux-gnueabihf/6.3.0/../../../../include/c++/6.3.0/bits/basic_string.h:136:28
	ldr	r0, [sp, #88]
.Ltmp274:
	@DEBUG_VALUE: deallocate:__p <- %R0
	@DEBUG_VALUE: deallocate:__p <- %R0
	.loc	29 180 6                @ /usr/bin/../lib/gcc/arm-linux-gnueabihf/6.3.0/../../../../include/c++/6.3.0/bits/basic_string.h:180:6
	cmp	r0, r9
	beq	.LBB4_92
.Ltmp275:
.LBB4_91:
	.loc	10 117 9 discriminator 2 @ /root/Bela/projects/RNBO-KPStrong/render.cpp:117:9
	bl	_ZdlPv
.Ltmp276:
.LBB4_92:
	mov	r0, r4
	mov	lr, pc
	b	_Unwind_Resume
@ BB#93:
.Lfunc_end4:
	.size	setup, .Lfunc_end4-setup
	.cfi_endproc
	.file	59 "<stdin>"
	.file	60 "/usr/include" "unistd.h"
	.globl	__gxx_personality_v0
	.personality __gxx_personality_v0
	.handlerdata
	.p2align	2
GCC_except_table4:
.Lexception0:
	.byte	255                     @ @LPStart Encoding = omit
	.byte	0                       @ @TType Encoding = absptr
	.asciz	"\323\201"              @ @TType base offset
	.byte	3                       @ Call site Encoding = udata4
	.ascii	"\320\001"              @ Call site table length
	.long	.Lfunc_begin4-.Lfunc_begin4 @ >> Call Site 1 <<
	.long	.Ltmp35-.Lfunc_begin4   @   Call between .Lfunc_begin4 and .Ltmp35
	.long	0                       @     has no landing pad
	.byte	0                       @   On action: cleanup
	.long	.Ltmp35-.Lfunc_begin4   @ >> Call Site 2 <<
	.long	.Ltmp36-.Ltmp35         @   Call between .Ltmp35 and .Ltmp36
	.long	.Ltmp37-.Lfunc_begin4   @     jumps to .Ltmp37
	.byte	0                       @   On action: cleanup
	.long	.Ltmp36-.Lfunc_begin4   @ >> Call Site 3 <<
	.long	.Ltmp38-.Ltmp36         @   Call between .Ltmp36 and .Ltmp38
	.long	0                       @     has no landing pad
	.byte	0                       @   On action: cleanup
	.long	.Ltmp38-.Lfunc_begin4   @ >> Call Site 4 <<
	.long	.Ltmp39-.Ltmp38         @   Call between .Ltmp38 and .Ltmp39
	.long	.Ltmp40-.Lfunc_begin4   @     jumps to .Ltmp40
	.byte	0                       @   On action: cleanup
	.long	.Ltmp41-.Lfunc_begin4   @ >> Call Site 5 <<
	.long	.Ltmp42-.Ltmp41         @   Call between .Ltmp41 and .Ltmp42
	.long	.Ltmp66-.Lfunc_begin4   @     jumps to .Ltmp66
	.byte	0                       @   On action: cleanup
	.long	.Ltmp43-.Lfunc_begin4   @ >> Call Site 6 <<
	.long	.Ltmp44-.Ltmp43         @   Call between .Ltmp43 and .Ltmp44
	.long	.Ltmp63-.Lfunc_begin4   @     jumps to .Ltmp63
	.byte	0                       @   On action: cleanup
	.long	.Ltmp44-.Lfunc_begin4   @ >> Call Site 7 <<
	.long	.Ltmp45-.Ltmp44         @   Call between .Ltmp44 and .Ltmp45
	.long	0                       @     has no landing pad
	.byte	0                       @   On action: cleanup
	.long	.Ltmp45-.Lfunc_begin4   @ >> Call Site 8 <<
	.long	.Ltmp46-.Ltmp45         @   Call between .Ltmp45 and .Ltmp46
	.long	.Ltmp47-.Lfunc_begin4   @     jumps to .Ltmp47
	.byte	0                       @   On action: cleanup
	.long	.Ltmp48-.Lfunc_begin4   @ >> Call Site 9 <<
	.long	.Ltmp51-.Ltmp48         @   Call between .Ltmp48 and .Ltmp51
	.long	.Ltmp66-.Lfunc_begin4   @     jumps to .Ltmp66
	.byte	0                       @   On action: cleanup
	.long	.Ltmp52-.Lfunc_begin4   @ >> Call Site 10 <<
	.long	.Ltmp53-.Ltmp52         @   Call between .Ltmp52 and .Ltmp53
	.long	.Ltmp54-.Lfunc_begin4   @     jumps to .Ltmp54
	.byte	0                       @   On action: cleanup
	.long	.Ltmp55-.Lfunc_begin4   @ >> Call Site 11 <<
	.long	.Ltmp56-.Ltmp55         @   Call between .Ltmp55 and .Ltmp56
	.long	.Ltmp57-.Lfunc_begin4   @     jumps to .Ltmp57
	.byte	0                       @   On action: cleanup
	.long	.Ltmp58-.Lfunc_begin4   @ >> Call Site 12 <<
	.long	.Ltmp59-.Ltmp58         @   Call between .Ltmp58 and .Ltmp59
	.long	.Ltmp60-.Lfunc_begin4   @     jumps to .Ltmp60
	.byte	0                       @   On action: cleanup
	.long	.Ltmp59-.Lfunc_begin4   @ >> Call Site 13 <<
	.long	.Ltmp64-.Ltmp59         @   Call between .Ltmp59 and .Ltmp64
	.long	0                       @     has no landing pad
	.byte	0                       @   On action: cleanup
	.long	.Ltmp64-.Lfunc_begin4   @ >> Call Site 14 <<
	.long	.Ltmp65-.Ltmp64         @   Call between .Ltmp64 and .Ltmp65
	.long	.Ltmp66-.Lfunc_begin4   @     jumps to .Ltmp66
	.byte	0                       @   On action: cleanup
	.long	.Ltmp61-.Lfunc_begin4   @ >> Call Site 15 <<
	.long	.Ltmp62-.Ltmp61         @   Call between .Ltmp61 and .Ltmp62
	.long	.Ltmp63-.Lfunc_begin4   @     jumps to .Ltmp63
	.byte	0                       @   On action: cleanup
	.long	.Ltmp62-.Lfunc_begin4   @ >> Call Site 16 <<
	.long	.Lfunc_end4-.Ltmp62     @   Call between .Ltmp62 and .Lfunc_end4
	.long	0                       @     has no landing pad
	.byte	0                       @   On action: cleanup
	.p2align	2
	.fnend

	.globl	render
	.p2align	3
	.type	render,%function
render:                                 @ @render
.Lfunc_begin5:
	.loc	10 171 0                @ /root/Bela/projects/RNBO-KPStrong/render.cpp:171:0
	.fnstart
	.cfi_startproc
@ BB#0:
	.save	{r4, r5, r6, r7, r8, r9, r10, r11, lr}
	push	{r4, r5, r6, r7, r8, r9, r10, r11, lr}
.Ltmp277:
	.cfi_def_cfa_offset 36
.Ltmp278:
	.cfi_offset lr, -4
.Ltmp279:
	.cfi_offset r11, -8
.Ltmp280:
	.cfi_offset r10, -12
.Ltmp281:
	.cfi_offset r9, -16
.Ltmp282:
	.cfi_offset r8, -20
.Ltmp283:
	.cfi_offset r7, -24
.Ltmp284:
	.cfi_offset r6, -28
.Ltmp285:
	.cfi_offset r5, -32
.Ltmp286:
	.cfi_offset r4, -36
	.setfp	r11, sp, #28
	add	r11, sp, #28
.Ltmp287:
	.cfi_def_cfa r11, 8
	.pad	#4
	sub	sp, sp, #4
	.vsave	{d8, d9, d10, d11, d12}
	vpush	{d8, d9, d10, d11, d12}
.Ltmp288:
	.cfi_offset d12, -48
.Ltmp289:
	.cfi_offset d11, -56
.Ltmp290:
	.cfi_offset d10, -64
.Ltmp291:
	.cfi_offset d9, -72
.Ltmp292:
	.cfi_offset d8, -80
	.pad	#8
	sub	sp, sp, #8
	@DEBUG_VALUE: render:context <- %R0
	@DEBUG_VALUE: render:userData <- %R1
	mov	r9, r0
.Ltmp293:
	@DEBUG_VALUE: render:context <- %R9
	.loc	10 178 6 prologue_end   @ /root/Bela/projects/RNBO-KPStrong/render.cpp:178:6
	movw	r0, :lower16:.L_MergedGlobals
	movt	r0, :upper16:.L_MergedGlobals
	.loc	10 178 17 is_stmt 0     @ /root/Bela/projects/RNBO-KPStrong/render.cpp:178:17
	vldr	d17, .LCPI5_0
	.loc	10 178 6                @ /root/Bela/projects/RNBO-KPStrong/render.cpp:178:6
	vldr	s18, [r0, #4]
.Ltmp294:
	.loc	10 181 2 is_stmt 1      @ /root/Bela/projects/RNBO-KPStrong/render.cpp:181:2
	vmov.f32	d10, #1.000000e+00
	vmov.i32	d0, #0x0
.Ltmp295:
	.loc	7 656 40                @ /usr/bin/../lib/gcc/arm-linux-gnueabihf/6.3.0/../../../../include/c++/6.3.0/bits/stl_vector.h:656:40
	movw	r4, :lower16:.L_MergedGlobals.1
.Ltmp296:
	.loc	10 178 6                @ /root/Bela/projects/RNBO-KPStrong/render.cpp:178:6
	vcvt.f64.f32	d16, s18
.Ltmp297:
	.loc	7 656 40                @ /usr/bin/../lib/gcc/arm-linux-gnueabihf/6.3.0/../../../../include/c++/6.3.0/bits/stl_vector.h:656:40
	movt	r4, :upper16:.L_MergedGlobals.1
	mov	r7, #0
.Ltmp298:
	.loc	10 181 2                @ /root/Bela/projects/RNBO-KPStrong/render.cpp:181:2
	vcmpe.f64	d16, d17
	vmrs	APSR_nzcv, fpscr
	vmov.i32	d8, #0x0
.Ltmp299:
	.loc	10 189 30               @ /root/Bela/projects/RNBO-KPStrong/render.cpp:189:30
	vldr	s22, [r0, #12]
	.loc	10 186 23               @ /root/Bela/projects/RNBO-KPStrong/render.cpp:186:23
	vldr	s24, [r0, #16]
	.loc	10 193 2                @ /root/Bela/projects/RNBO-KPStrong/render.cpp:193:2
	ldr	r0, [r4]
.Ltmp300:
	.loc	7 656 66                @ /usr/bin/../lib/gcc/arm-linux-gnueabihf/6.3.0/../../../../include/c++/6.3.0/bits/stl_vector.h:656:66
	ldr	r6, [r4, #8]
	ldr	r5, [r4, #12]
.Ltmp301:
	.loc	10 193 8                @ /root/Bela/projects/RNBO-KPStrong/render.cpp:193:8
	ldr	r1, [r0]
.Ltmp302:
	.loc	10 173 34               @ /root/Bela/projects/RNBO-KPStrong/render.cpp:173:34
	ldr	r8, [r9, #20]
.Ltmp303:
	@DEBUG_VALUE: render:nFrames <- %R8
	.loc	10 193 8                @ /root/Bela/projects/RNBO-KPStrong/render.cpp:193:8
	ldr	r2, [r1, #20]
	mov	r1, #0
.Ltmp304:
	.loc	10 181 2                @ /root/Bela/projects/RNBO-KPStrong/render.cpp:181:2
	vmovgt.f32	s0, s20
.Ltmp305:
	.loc	10 193 8                @ /root/Bela/projects/RNBO-KPStrong/render.cpp:193:8
                                        @ kill: %S0<def> %S0<kill> %D0<kill>
	vmov.f32	s1, s16
	blx	r2
.Ltmp306:
	.file	61 "./include" "Utilities.h"
	.loc	61 73 44                @ ./include/Utilities.h:73:44
	vldr	s0, .LCPI5_1
	vldr	s2, .LCPI5_2
	vmul.f32	d16, d12, d0
.Ltmp307:
	.loc	10 194 2                @ /root/Bela/projects/RNBO-KPStrong/render.cpp:194:2
	ldr	r0, [r4]
	.loc	10 194 8 is_stmt 0      @ /root/Bela/projects/RNBO-KPStrong/render.cpp:194:8
	ldr	r1, [r0]
.Ltmp308:
	@DEBUG_VALUE: map:in_max <- 1.000000e+00
	@DEBUG_VALUE: map:in_min <- 0.000000e+00
	.loc	61 73 44 is_stmt 1      @ ./include/Utilities.h:73:44
	vadd.f32	d0, d16, d1
.Ltmp309:
	.loc	10 194 8                @ /root/Bela/projects/RNBO-KPStrong/render.cpp:194:8
	ldr	r2, [r1, #20]
.Ltmp310:
	@DEBUG_VALUE: render:noteRate <- %S0
	mov	r1, #1
                                        @ kill: %S0<def> %S0<kill> %D0<kill>
.Ltmp311:
	vmov.f32	s1, s16
	blx	r2
.Ltmp312:
	.loc	61 73 44                @ ./include/Utilities.h:73:44
	vldr	s0, .LCPI5_3
	.loc	61 73 64 is_stmt 0      @ ./include/Utilities.h:73:64
	vldr	s2, .LCPI5_4
.Ltmp313:
	@DEBUG_VALUE: map:in_max <- 1.000000e+00
	@DEBUG_VALUE: map:in_min <- 0.000000e+00
	.loc	61 73 44                @ ./include/Utilities.h:73:44
	vmul.f32	d16, d11, d0
	.loc	61 73 64                @ ./include/Utilities.h:73:64
	vadd.f32	d0, d16, d1
.Ltmp314:
	.loc	10 189 20 is_stmt 1 discriminator 2 @ /root/Bela/projects/RNBO-KPStrong/render.cpp:189:20
                                        @ kill: %S0<def> %S0<kill> %D0<kill>
	bl	floorf
.Ltmp315:
	@DEBUG_VALUE: render:noteValue <- %S0
	.loc	10 195 2                @ /root/Bela/projects/RNBO-KPStrong/render.cpp:195:2
	ldr	r0, [r4]
	.loc	10 195 8 is_stmt 0      @ /root/Bela/projects/RNBO-KPStrong/render.cpp:195:8
	vmov.f32	s1, s16
	ldr	r1, [r0]
	ldr	r2, [r1, #20]
	mov	r1, #2
	blx	r2
.Ltmp316:
	.loc	61 73 64 is_stmt 1      @ ./include/Utilities.h:73:64
	vsub.f32	d0, d10, d9
.Ltmp317:
	.loc	10 196 2                @ /root/Bela/projects/RNBO-KPStrong/render.cpp:196:2
	ldr	r0, [r4]
	.loc	10 196 8 is_stmt 0      @ /root/Bela/projects/RNBO-KPStrong/render.cpp:196:8
	ldr	r1, [r0]
.Ltmp318:
	@DEBUG_VALUE: map:in_max <- 1.000000e+00
	@DEBUG_VALUE: map:in_min <- 0.000000e+00
                                        @ kill: %S0<def> %S0<kill> %D0<kill>
	vmov.f32	s1, s16
	ldr	r2, [r1, #28]
.Ltmp319:
	@DEBUG_VALUE: render:dampen <- %S0
	mov	r1, #4
	blx	r2
.Ltmp320:
	.loc	10 201 29 is_stmt 1     @ /root/Bela/projects/RNBO-KPStrong/render.cpp:201:29
	ldr	r0, [r4]
.Ltmp321:
	.loc	7 656 50                @ /usr/bin/../lib/gcc/arm-linux-gnueabihf/6.3.0/../../../../include/c++/6.3.0/bits/stl_vector.h:656:50
	sub	r6, r5, r6
.Ltmp322:
	.loc	10 200 40               @ /root/Bela/projects/RNBO-KPStrong/render.cpp:200:40
	ldr	r2, [r9, #24]
	.loc	10 200 67 is_stmt 0     @ /root/Bela/projects/RNBO-KPStrong/render.cpp:200:67
	ldr	r3, [r9, #40]
	.loc	10 201 35 is_stmt 1     @ /root/Bela/projects/RNBO-KPStrong/render.cpp:201:35
	ldr	r1, [r0]
	.loc	10 200 56               @ /root/Bela/projects/RNBO-KPStrong/render.cpp:200:56
	sub	r2, r2, r6, asr #2
	.loc	10 200 84 is_stmt 0     @ /root/Bela/projects/RNBO-KPStrong/render.cpp:200:84
	add	r5, r2, r3
.Ltmp323:
	@DEBUG_VALUE: render:maxInChannels <- %R5
	@DEBUG_VALUE: render:nInChannels <- %R5
	.loc	10 201 35 is_stmt 1     @ /root/Bela/projects/RNBO-KPStrong/render.cpp:201:35
	ldr	r1, [r1, #56]
	.loc	10 201 35 is_stmt 0 discriminator 1 @ /root/Bela/projects/RNBO-KPStrong/render.cpp:201:35
	blx	r1
	mov	r4, r8
.Ltmp324:
	@DEBUG_VALUE: render:nFrames <- %R4
	mov	r8, r0
.Ltmp325:
	@DEBUG_VALUE: render:nInChannels <- %R8
	.loc	10 202 5 is_stmt 1      @ /root/Bela/projects/RNBO-KPStrong/render.cpp:202:5
	cmp	r8, r5
	.loc	10 204 2                @ /root/Bela/projects/RNBO-KPStrong/render.cpp:204:2
	mov	r0, #7
	.loc	10 202 5                @ /root/Bela/projects/RNBO-KPStrong/render.cpp:202:5
	movhi	r8, r5
.Ltmp326:
	.loc	10 204 2                @ /root/Bela/projects/RNBO-KPStrong/render.cpp:204:2
	add	r0, r0, r8, lsl #2
	bfc	r0, #0, #3
	sub	r10, sp, r0
.Ltmp327:
	@DEBUG_VALUE: render:inputs <-  [complex expression]
	mov	sp, r10
.Ltmp328:
	@DEBUG_VALUE: c <- 0
	.loc	10 205 2 discriminator 1 @ /root/Bela/projects/RNBO-KPStrong/render.cpp:205:2
	cmp	r8, #0
	beq	.LBB5_6
.Ltmp329:
@ BB#1:                                 @ %.lr.ph80
	@DEBUG_VALUE: render:inputs <-  [complex expression]
	@DEBUG_VALUE: render:nFrames <- %R4
	@DEBUG_VALUE: render:maxInChannels <- %R5
	@DEBUG_VALUE: render:context <- %R9
	.loc	10 207 19               @ /root/Bela/projects/RNBO-KPStrong/render.cpp:207:19
	ldr	r0, [r9, #24]
.Ltmp330:
	.loc	7 656 50                @ /usr/bin/../lib/gcc/arm-linux-gnueabihf/6.3.0/../../../../include/c++/6.3.0/bits/stl_vector.h:656:50
	asr	r1, r6, #2
.Ltmp331:
	@DEBUG_VALUE: render:nAnalogParameters <- %R1
	.loc	10 205 2 discriminator 1 @ /root/Bela/projects/RNBO-KPStrong/render.cpp:205:2
	rsb	r2, r0, #0
	sub	r1, r2, r1
.Ltmp332:
	lsl	r2, r4, #2
	mul	r1, r4, r1
	lsl	r1, r1, #2
.Ltmp333:
.LBB5_2:                                @ =>This Inner Loop Header: Depth=1
	.loc	10 207 6                @ /root/Bela/projects/RNBO-KPStrong/render.cpp:207:6
	cmp	r7, r0
	bhs	.LBB5_4
@ BB#3:                                 @   in Loop: Header=BB5_2 Depth=1
.Ltmp334:
	.loc	10 208 46               @ /root/Bela/projects/RNBO-KPStrong/render.cpp:208:46
	mul	r3, r7, r4
	.loc	10 208 34 is_stmt 0     @ /root/Bela/projects/RNBO-KPStrong/render.cpp:208:34
	ldr	r6, [r9]
	.loc	10 208 42               @ /root/Bela/projects/RNBO-KPStrong/render.cpp:208:42
	add	r3, r6, r3, lsl #2
	b	.LBB5_5
.LBB5_4:                                @   in Loop: Header=BB5_2 Depth=1
	.loc	10 210 34 is_stmt 1     @ /root/Bela/projects/RNBO-KPStrong/render.cpp:210:34
	ldr	r3, [r9, #8]
	add	r3, r3, r1
.LBB5_5:                                @   in Loop: Header=BB5_2 Depth=1
	.loc	10 208 14               @ /root/Bela/projects/RNBO-KPStrong/render.cpp:208:14
	str	r3, [r10, r7, lsl #2]
.Ltmp335:
	.loc	10 205 43 discriminator 3 @ /root/Bela/projects/RNBO-KPStrong/render.cpp:205:43
	add	r7, r7, #1
.Ltmp336:
	@DEBUG_VALUE: c <- %R7
	.loc	10 205 28 is_stmt 0 discriminator 1 @ /root/Bela/projects/RNBO-KPStrong/render.cpp:205:28
	add	r1, r1, r2
	.loc	10 205 2 discriminator 1 @ /root/Bela/projects/RNBO-KPStrong/render.cpp:205:2
	cmp	r7, r8
	blo	.LBB5_2
.Ltmp337:
.LBB5_6:                                @ %._crit_edge81
	.loc	7 656 40 is_stmt 1      @ /usr/bin/../lib/gcc/arm-linux-gnueabihf/6.3.0/../../../../include/c++/6.3.0/bits/stl_vector.h:656:40
	movw	r0, :lower16:.L_MergedGlobals.1
.Ltmp338:
	.loc	10 213 41               @ /root/Bela/projects/RNBO-KPStrong/render.cpp:213:41
	ldr	r5, [r9, #28]
.Ltmp339:
	.loc	7 656 40                @ /usr/bin/../lib/gcc/arm-linux-gnueabihf/6.3.0/../../../../include/c++/6.3.0/bits/stl_vector.h:656:40
	movt	r0, :upper16:.L_MergedGlobals.1
.Ltmp340:
	.loc	10 213 69               @ /root/Bela/projects/RNBO-KPStrong/render.cpp:213:69
	ldr	r6, [r9, #44]
	.loc	10 214 30               @ /root/Bela/projects/RNBO-KPStrong/render.cpp:214:30
	ldr	r0, [r0]
	.loc	10 214 36 is_stmt 0     @ /root/Bela/projects/RNBO-KPStrong/render.cpp:214:36
	ldr	r1, [r0]
	ldr	r1, [r1, #60]
	.loc	10 214 36 discriminator 1 @ /root/Bela/projects/RNBO-KPStrong/render.cpp:214:36
	blx	r1
	.loc	10 213 58 is_stmt 1     @ /root/Bela/projects/RNBO-KPStrong/render.cpp:213:58
	add	r1, r6, r5
.Ltmp341:
	@DEBUG_VALUE: render:maxOutChannels <- %R1
	@DEBUG_VALUE: render:nOutChannels <- %R1
	mov	r12, r4
.Ltmp342:
	@DEBUG_VALUE: render:nOutChannels <- %R0
	.loc	10 215 5                @ /root/Bela/projects/RNBO-KPStrong/render.cpp:215:5
	cmp	r0, r1
	movhi	r0, r1
.Ltmp343:
	.loc	10 204 2                @ /root/Bela/projects/RNBO-KPStrong/render.cpp:204:2
	mov	r1, #7
.Ltmp344:
	.loc	10 217 2                @ /root/Bela/projects/RNBO-KPStrong/render.cpp:217:2
	add	r1, r1, r0, lsl #2
	bfc	r1, #0, #3
	sub	r3, sp, r1
.Ltmp345:
	@DEBUG_VALUE: render:outputs <-  [complex expression]
	mov	sp, r3
.Ltmp346:
	@DEBUG_VALUE: c <- 0
	.loc	10 218 2 discriminator 1 @ /root/Bela/projects/RNBO-KPStrong/render.cpp:218:2
	cmp	r0, #0
	beq	.LBB5_12
.Ltmp347:
@ BB#7:                                 @ %.lr.ph
	@DEBUG_VALUE: render:outputs <-  [complex expression]
	.loc	10 220 19               @ /root/Bela/projects/RNBO-KPStrong/render.cpp:220:19
	ldr	r1, [r9, #28]
	mov	r2, #0
.Ltmp348:
	.loc	10 218 2 discriminator 1 @ /root/Bela/projects/RNBO-KPStrong/render.cpp:218:2
	lsl	r6, r12, #2
	mul	r7, r1, r12
	sub	r7, r2, r7, lsl #2
.Ltmp349:
.LBB5_8:                                @ =>This Inner Loop Header: Depth=1
	.loc	10 220 6                @ /root/Bela/projects/RNBO-KPStrong/render.cpp:220:6
	cmp	r2, r1
	bhs	.LBB5_10
@ BB#9:                                 @   in Loop: Header=BB5_8 Depth=1
.Ltmp350:
	.loc	10 221 39               @ /root/Bela/projects/RNBO-KPStrong/render.cpp:221:39
	mul	r5, r2, r12
	.loc	10 221 26 is_stmt 0     @ /root/Bela/projects/RNBO-KPStrong/render.cpp:221:26
	ldr	r4, [r9, #4]
	.loc	10 221 35               @ /root/Bela/projects/RNBO-KPStrong/render.cpp:221:35
	add	r5, r4, r5, lsl #2
	b	.LBB5_11
.LBB5_10:                               @   in Loop: Header=BB5_8 Depth=1
	.loc	10 223 26 is_stmt 1     @ /root/Bela/projects/RNBO-KPStrong/render.cpp:223:26
	ldr	r5, [r9, #12]
	add	r5, r5, r7
.LBB5_11:                               @   in Loop: Header=BB5_8 Depth=1
	.loc	10 221 15               @ /root/Bela/projects/RNBO-KPStrong/render.cpp:221:15
	str	r5, [r3, r2, lsl #2]
.Ltmp351:
	.loc	10 218 44 discriminator 3 @ /root/Bela/projects/RNBO-KPStrong/render.cpp:218:44
	add	r2, r2, #1
.Ltmp352:
	@DEBUG_VALUE: c <- %R2
	.loc	10 218 28 is_stmt 0 discriminator 1 @ /root/Bela/projects/RNBO-KPStrong/render.cpp:218:28
	add	r7, r7, r6
	.loc	10 218 2 discriminator 1 @ /root/Bela/projects/RNBO-KPStrong/render.cpp:218:2
	cmp	r2, r0
	blo	.LBB5_8
.Ltmp353:
.LBB5_12:                               @ %._crit_edge
	.loc	7 656 40 is_stmt 1      @ /usr/bin/../lib/gcc/arm-linux-gnueabihf/6.3.0/../../../../include/c++/6.3.0/bits/stl_vector.h:656:40
	movw	r1, :lower16:.L_MergedGlobals.1
	movt	r1, :upper16:.L_MergedGlobals.1
.Ltmp354:
	.loc	10 225 2                @ /root/Bela/projects/RNBO-KPStrong/render.cpp:225:2
	ldr	r1, [r1]
	.loc	10 225 8 is_stmt 0      @ /root/Bela/projects/RNBO-KPStrong/render.cpp:225:8
	sub	sp, sp, #16
	mov	r2, #0
	stm	sp, {r0, r12}
	mov	r0, r1
	str	r2, [sp, #8]
	mov	r1, r10
	str	r2, [sp, #12]
	mov	r2, r8
	bl	_ZN4RNBO10CoreObject7processEPPfjS2_jjPKNS_9EventListINS_9MidiEventEEEPS5_
	add	sp, sp, #16
	.loc	10 226 1 is_stmt 1      @ /root/Bela/projects/RNBO-KPStrong/render.cpp:226:1
	sub	sp, r11, #72
	vpop	{d8, d9, d10, d11, d12}
	add	sp, sp, #4
	pop	{r4, r5, r6, r7, r8, r9, r10, r11, pc}
.Ltmp355:
	.p2align	3
@ BB#13:
.LCPI5_0:
	.long	2576980378              @ double 0.20000000000000001
	.long	1070176665
.LCPI5_1:
	.long	3274964992              @ float -180
.LCPI5_2:
	.long	1128792064              @ float 200
.LCPI5_3:
	.long	1111228416              @ float 47
.LCPI5_4:
	.long	1108344832              @ float 36
.Lfunc_end5:
	.size	render, .Lfunc_end5-render
	.cfi_endproc
	.fnend

	.globl	cleanup
	.p2align	2
	.type	cleanup,%function
cleanup:                                @ @cleanup
.Lfunc_begin6:
	.loc	10 229 0                @ /root/Bela/projects/RNBO-KPStrong/render.cpp:229:0
	.fnstart
	.cfi_startproc
@ BB#0:
	.save	{r4, r5, r11, lr}
	push	{r4, r5, r11, lr}
.Ltmp356:
	.cfi_def_cfa_offset 16
.Ltmp357:
	.cfi_offset lr, -4
.Ltmp358:
	.cfi_offset r11, -8
.Ltmp359:
	.cfi_offset r5, -12
.Ltmp360:
	.cfi_offset r4, -16
	.setfp	r11, sp, #8
	add	r11, sp, #8
.Ltmp361:
	.cfi_def_cfa r11, 8
	@DEBUG_VALUE: cleanup:context <- %R0
	@DEBUG_VALUE: cleanup:userData <- %R1
.Ltmp362:
	.loc	10 230 9 prologue_end   @ /root/Bela/projects/RNBO-KPStrong/render.cpp:230:9
	movw	r5, :lower16:.L_MergedGlobals.1
	movt	r5, :upper16:.L_MergedGlobals.1
	ldr	r4, [r5, #4]
	.loc	10 230 2 is_stmt 0      @ /root/Bela/projects/RNBO-KPStrong/render.cpp:230:2
	cmp	r4, #0
	beq	.LBB6_2
.Ltmp363:
@ BB#1:
	@DEBUG_VALUE: cleanup:userData <- %R1
	@DEBUG_VALUE: cleanup:context <- %R0
	.loc	10 230 2 discriminator 1 @ /root/Bela/projects/RNBO-KPStrong/render.cpp:230:2
	mov	r0, r4
.Ltmp364:
	bl	_ZN4RNBO10PresetListD1Ev
.Ltmp365:
	.loc	10 230 2 discriminator 2 @ /root/Bela/projects/RNBO-KPStrong/render.cpp:230:2
	mov	r0, r4
	bl	_ZdlPv
.LBB6_2:
	.loc	10 231 9 is_stmt 1      @ /root/Bela/projects/RNBO-KPStrong/render.cpp:231:9
	ldr	r0, [r5]
	.loc	10 231 2 is_stmt 0      @ /root/Bela/projects/RNBO-KPStrong/render.cpp:231:2
	cmp	r0, #0
	.loc	10 232 1 is_stmt 1      @ /root/Bela/projects/RNBO-KPStrong/render.cpp:232:1
	popeq	{r4, r5, r11, pc}
	.loc	10 231 2 discriminator 1 @ /root/Bela/projects/RNBO-KPStrong/render.cpp:231:2
	ldr	r1, [r0]
	ldr	r1, [r1, #68]
	pop	{r4, r5, r11, lr}
	bx	r1
.Ltmp366:
.Lfunc_end6:
	.size	cleanup, .Lfunc_end6-cleanup
	.cfi_endproc
	.fnend

	.section	.text.startup,"ax",%progbits
	.p2align	2
	.type	_GLOBAL__sub_I_render.ii,%function
_GLOBAL__sub_I_render.ii:               @ @_GLOBAL__sub_I_render.ii
.Lfunc_begin7:
	.loc	36 0 0                  @ /root/Bela/projects/RNBO-KPStrong/build/render.cpp:0:0
	.fnstart
	.cfi_startproc
@ BB#0:
	.save	{r4, r5, r6, r7, r8, r9, r11, lr}
	push	{r4, r5, r6, r7, r8, r9, r11, lr}
.Ltmp370:
	.cfi_def_cfa_offset 32
.Ltmp371:
	.cfi_offset lr, -4
.Ltmp372:
	.cfi_offset r11, -8
.Ltmp373:
	.cfi_offset r9, -12
.Ltmp374:
	.cfi_offset r8, -16
.Ltmp375:
	.cfi_offset r7, -20
.Ltmp376:
	.cfi_offset r6, -24
.Ltmp377:
	.cfi_offset r5, -28
.Ltmp378:
	.cfi_offset r4, -32
	.setfp	r11, sp, #24
	add	r11, sp, #24
.Ltmp379:
	.cfi_def_cfa r11, 8
.Ltmp380:
	.loc	7 87 22 prologue_end    @ /usr/bin/../lib/gcc/arm-linux-gnueabihf/6.3.0/../../../../include/c++/6.3.0/bits/stl_vector.h:87:22
	movw	r7, :lower16:.L_MergedGlobals.1
.Ltmp381:
	.loc	10 20 57 discriminator 1 @ /root/Bela/projects/RNBO-KPStrong/render.cpp:20:57
	movw	r5, :lower16:_ZNSt6vectorIjSaIjEED2Ev
.Ltmp382:
	.loc	7 87 22                 @ /usr/bin/../lib/gcc/arm-linux-gnueabihf/6.3.0/../../../../include/c++/6.3.0/bits/stl_vector.h:87:22
	movt	r7, :upper16:.L_MergedGlobals.1
.Ltmp383:
	.loc	10 20 57 discriminator 1 @ /root/Bela/projects/RNBO-KPStrong/render.cpp:20:57
	movw	r8, :lower16:__dso_handle
	mov	r6, #0
.Ltmp384:
	@DEBUG_VALUE: _Bit_iterator_base:__x <- %R6
	@DEBUG_VALUE: _Bit_iterator_base:__y <- 0
	@DEBUG_VALUE: _Bit_iterator_base:__x <- %R6
	@DEBUG_VALUE: vector:__n <- %R1
	.loc	7 87 22                 @ /usr/bin/../lib/gcc/arm-linux-gnueabihf/6.3.0/../../../../include/c++/6.3.0/bits/stl_vector.h:87:22
	mov	r1, r7
.Ltmp385:
	str	r6, [r1, #8]!
.Ltmp386:
	@DEBUG_VALUE: vector:this <- %R1
	.loc	10 20 57 discriminator 1 @ /root/Bela/projects/RNBO-KPStrong/render.cpp:20:57
	movt	r5, :upper16:_ZNSt6vectorIjSaIjEED2Ev
	movt	r8, :upper16:__dso_handle
	mov	r0, r5
	mov	r2, r8
.Ltmp387:
	.loc	7 87 34                 @ /usr/bin/../lib/gcc/arm-linux-gnueabihf/6.3.0/../../../../include/c++/6.3.0/bits/stl_vector.h:87:34
	str	r6, [r7, #12]
	.loc	7 87 47 is_stmt 0       @ /usr/bin/../lib/gcc/arm-linux-gnueabihf/6.3.0/../../../../include/c++/6.3.0/bits/stl_vector.h:87:47
	str	r6, [r7, #16]
.Ltmp388:
	.loc	10 20 57 is_stmt 1 discriminator 1 @ /root/Bela/projects/RNBO-KPStrong/render.cpp:20:57
	bl	__cxa_atexit
.Ltmp389:
	.loc	7 87 22                 @ /usr/bin/../lib/gcc/arm-linux-gnueabihf/6.3.0/../../../../include/c++/6.3.0/bits/stl_vector.h:87:22
	mov	r4, r7
.Ltmp390:
	.loc	10 23 58 discriminator 1 @ /root/Bela/projects/RNBO-KPStrong/render.cpp:23:58
	mov	r0, r5
.Ltmp391:
	.loc	7 87 22                 @ /usr/bin/../lib/gcc/arm-linux-gnueabihf/6.3.0/../../../../include/c++/6.3.0/bits/stl_vector.h:87:22
	str	r6, [r4, #20]!
.Ltmp392:
	.loc	10 23 58 discriminator 1 @ /root/Bela/projects/RNBO-KPStrong/render.cpp:23:58
	mov	r2, r8
	mov	r1, r4
.Ltmp393:
	.loc	7 87 34                 @ /usr/bin/../lib/gcc/arm-linux-gnueabihf/6.3.0/../../../../include/c++/6.3.0/bits/stl_vector.h:87:34
	str	r6, [r4, #4]
	.loc	7 87 47 is_stmt 0       @ /usr/bin/../lib/gcc/arm-linux-gnueabihf/6.3.0/../../../../include/c++/6.3.0/bits/stl_vector.h:87:47
	str	r6, [r4, #8]
.Ltmp394:
	.loc	10 23 58 is_stmt 1 discriminator 1 @ /root/Bela/projects/RNBO-KPStrong/render.cpp:23:58
	bl	__cxa_atexit
.Ltmp395:
	.loc	10 28 7                 @ /root/Bela/projects/RNBO-KPStrong/render.cpp:28:7
	movw	r9, :lower16:.L_MergedGlobals
	movt	r9, :upper16:.L_MergedGlobals
	add	r5, r9, #40
	mov	r0, r5
	bl	_ZN5TrillC1Ev
	.loc	10 28 7 is_stmt 0 discriminator 1 @ /root/Bela/projects/RNBO-KPStrong/render.cpp:28:7
	movw	r0, :lower16:_ZN5TrillD1Ev
	mov	r1, r5
	movt	r0, :upper16:_ZN5TrillD1Ev
	mov	r2, r8
	bl	__cxa_atexit
.Ltmp396:
	.loc	10 35 9 is_stmt 1       @ /root/Bela/projects/RNBO-KPStrong/render.cpp:35:9
	add	r0, r9, #20
	bl	_ZN7OnePoleC1Ev
.Ltmp397:
	@DEBUG_VALUE: _Bit_iterator_base:__y <- 0
	.loc	12 143 18               @ /usr/bin/../lib/gcc/arm-linux-gnueabihf/6.3.0/../../../../include/c++/6.3.0/bits/stl_bvector.h:143:18
	vmov.i32	q8, #0x0
.Ltmp398:
	.loc	7 656 66                @ /usr/bin/../lib/gcc/arm-linux-gnueabihf/6.3.0/../../../../include/c++/6.3.0/bits/stl_vector.h:656:66
	ldm	r4, {r0, r1}
.Ltmp399:
	.loc	12 143 18               @ /usr/bin/../lib/gcc/arm-linux-gnueabihf/6.3.0/../../../../include/c++/6.3.0/bits/stl_bvector.h:143:18
	add	r2, r4, #12
.Ltmp400:
	@DEBUG_VALUE: _M_initialize:this <- %R2
	@DEBUG_VALUE: vector:this <- %R2
	@DEBUG_VALUE: vector:__n <- %R1
	vst1.64	{d16, d17}, [r2:128]
	str	r6, [r4, #28]
.Ltmp401:
	.loc	7 656 50                @ /usr/bin/../lib/gcc/arm-linux-gnueabihf/6.3.0/../../../../include/c++/6.3.0/bits/stl_vector.h:656:50
	sub	r4, r1, r0
.Ltmp402:
	.loc	12 508 40               @ /usr/bin/../lib/gcc/arm-linux-gnueabihf/6.3.0/../../../../include/c++/6.3.0/bits/stl_bvector.h:508:40
	mov	r0, #31
	add	r0, r0, r4, asr #2
	.loc	12 508 45 is_stmt 0     @ /usr/bin/../lib/gcc/arm-linux-gnueabihf/6.3.0/../../../../include/c++/6.3.0/bits/stl_bvector.h:508:45
	lsr	r5, r0, #5
.Ltmp403:
	@DEBUG_VALUE: allocate:__n <- %R5
	@DEBUG_VALUE: allocate:__n <- %R5
	.loc	3 104 46 is_stmt 1      @ /usr/bin/../lib/gcc/arm-linux-gnueabihf/6.3.0/../../../../include/c++/6.3.0/ext/new_allocator.h:104:46
	lsl	r8, r5, #2
	.loc	3 104 27 is_stmt 0      @ /usr/bin/../lib/gcc/arm-linux-gnueabihf/6.3.0/../../../../include/c++/6.3.0/ext/new_allocator.h:104:27
.Ltmp367:
	mov	r0, r8
	bl	_Znwj
.Ltmp404:
.Ltmp368:
.Ltmp405:
	@DEBUG_VALUE: size:this <- %R4
	@DEBUG_VALUE: vector:this <- %R4
@ BB#1:
	@DEBUG_VALUE: vector:this <- %R4
	@DEBUG_VALUE: size:this <- %R4
	@DEBUG_VALUE: allocate:__n <- %R5
	@DEBUG_VALUE: allocate:__n <- %R5
	@DEBUG_VALUE: _Bit_iterator_base:__x <- %R6
	@DEBUG_VALUE: _Bit_iterator_base:__x <- %R6
	.loc	7 656 50 is_stmt 1      @ /usr/bin/../lib/gcc/arm-linux-gnueabihf/6.3.0/../../../../include/c++/6.3.0/bits/stl_vector.h:656:50
	asr	r1, r4, #2
.Ltmp406:
	@DEBUG_VALUE: _M_initialize:__q <- %R0
	@DEBUG_VALUE: _Bit_iterator:__x <- %R0
	@DEBUG_VALUE: _Bit_iterator_base:__x <- %R0
	@DEBUG_VALUE: fill<unsigned long *, int>:__first <- %R0
	@DEBUG_VALUE: __fill_a<unsigned long *, int>:__first <- %R0
	@DEBUG_VALUE: _M_initialize:__n <- %R1
	@DEBUG_VALUE: _M_allocate:__n <- %R1
	@DEBUG_VALUE: _S_nword:__n <- %R1
	@DEBUG_VALUE: _S_nword:__n <- %R1
	@DEBUG_VALUE: operator+:__i <- %R1
	@DEBUG_VALUE: operator+=:__i <- %R1
	@DEBUG_VALUE: _M_incr:__i <- %R1
	@DEBUG_VALUE: _M_incr:__n <- %R1
	.loc	12 1083 30 discriminator 3 @ /usr/bin/../lib/gcc/arm-linux-gnueabihf/6.3.0/../../../../include/c++/6.3.0/bits/stl_bvector.h:1083:30
	str	r0, [r7, #32]
.Ltmp407:
	.loc	12 169 19               @ /usr/bin/../lib/gcc/arm-linux-gnueabihf/6.3.0/../../../../include/c++/6.3.0/bits/stl_bvector.h:169:19
	asr	r3, r1, #31
.Ltmp408:
	.loc	12 1082 45              @ /usr/bin/../lib/gcc/arm-linux-gnueabihf/6.3.0/../../../../include/c++/6.3.0/bits/stl_bvector.h:1082:45
	add	r2, r0, r5, lsl #2
.Ltmp409:
	@DEBUG_VALUE: _Bit_iterator_base:__y <- 0
	@DEBUG_VALUE: _Bit_iterator:__y <- 0
	@DEBUG_VALUE: fill<unsigned long *, int>:__last <- %R2
	@DEBUG_VALUE: __fill_a<unsigned long *, int>:__last <- %R2
	.loc	12 169 19               @ /usr/bin/../lib/gcc/arm-linux-gnueabihf/6.3.0/../../../../include/c++/6.3.0/bits/stl_bvector.h:169:19
	add	r3, r1, r3, lsr #27
.Ltmp410:
	.loc	12 1083 30 discriminator 3 @ /usr/bin/../lib/gcc/arm-linux-gnueabihf/6.3.0/../../../../include/c++/6.3.0/bits/stl_bvector.h:1083:30
	str	r6, [r7, #36]
.Ltmp411:
	.loc	12 169 19               @ /usr/bin/../lib/gcc/arm-linux-gnueabihf/6.3.0/../../../../include/c++/6.3.0/bits/stl_bvector.h:169:19
	asr	r4, r3, #5
.Ltmp412:
	bfc	r3, #0, #5
	.loc	12 170 17               @ /usr/bin/../lib/gcc/arm-linux-gnueabihf/6.3.0/../../../../include/c++/6.3.0/bits/stl_bvector.h:170:17
	sub	r1, r1, r3
.Ltmp413:
	@DEBUG_VALUE: _M_incr:__n <- undef
	.loc	12 169 12               @ /usr/bin/../lib/gcc/arm-linux-gnueabihf/6.3.0/../../../../include/c++/6.3.0/bits/stl_bvector.h:169:12
	add	r4, r0, r4, lsl #2
	.loc	12 171 11               @ /usr/bin/../lib/gcc/arm-linux-gnueabihf/6.3.0/../../../../include/c++/6.3.0/bits/stl_bvector.h:171:11
	cmp	r1, #0
	mov	r3, r1
	addlt	r3, r3, #32
	cmp	r1, #0
	sublt	r4, r4, #4
.Ltmp414:
	@DEBUG_VALUE: __fill_a<unsigned long *, int>:__tmp <- 0
	.loc	12 1084 31 discriminator 2 @ /usr/bin/../lib/gcc/arm-linux-gnueabihf/6.3.0/../../../../include/c++/6.3.0/bits/stl_bvector.h:1084:31
	str	r4, [r7, #40]
	str	r3, [r7, #44]
.Ltmp415:
	.loc	57 695 7 discriminator 1 @ /usr/bin/../lib/gcc/arm-linux-gnueabihf/6.3.0/../../../../include/c++/6.3.0/bits/stl_algobase.h:695:7
	cmp	r6, r5, lsl #2
.Ltmp416:
	.loc	12 1082 39              @ /usr/bin/../lib/gcc/arm-linux-gnueabihf/6.3.0/../../../../include/c++/6.3.0/bits/stl_bvector.h:1082:39
	str	r2, [r7, #48]
	beq	.LBB7_3
.Ltmp417:
@ BB#2:                                 @ %.lr.ph.i.i.i.preheader.i.i
	@DEBUG_VALUE: __fill_a<unsigned long *, int>:__last <- %R2
	@DEBUG_VALUE: fill<unsigned long *, int>:__last <- %R2
	@DEBUG_VALUE: __fill_a<unsigned long *, int>:__first <- %R0
	@DEBUG_VALUE: fill<unsigned long *, int>:__first <- %R0
	@DEBUG_VALUE: _Bit_iterator_base:__x <- %R0
	@DEBUG_VALUE: _Bit_iterator:__x <- %R0
	@DEBUG_VALUE: _M_initialize:__q <- %R0
	@DEBUG_VALUE: allocate:__n <- %R5
	@DEBUG_VALUE: allocate:__n <- %R5
	@DEBUG_VALUE: _Bit_iterator_base:__x <- %R6
	@DEBUG_VALUE: _Bit_iterator_base:__x <- %R6
	.loc	57 696 11               @ /usr/bin/../lib/gcc/arm-linux-gnueabihf/6.3.0/../../../../include/c++/6.3.0/bits/stl_algobase.h:696:11
	mov	r1, #0
	mov	r2, r8
.Ltmp418:
	bl	memset
.Ltmp419:
.LBB7_3:                                @ %__cxx_global_var_init.4.exit
	@DEBUG_VALUE: allocate:__n <- %R5
	@DEBUG_VALUE: allocate:__n <- %R5
	@DEBUG_VALUE: _Bit_iterator_base:__x <- %R6
	@DEBUG_VALUE: _Bit_iterator_base:__x <- %R6
	.loc	10 42 26 discriminator 7 @ /root/Bela/projects/RNBO-KPStrong/render.cpp:42:26
	movw	r0, :lower16:_ZNSt13_Bvector_baseISaIbEED2Ev
	movw	r2, :lower16:__dso_handle
	add	r1, r7, #32
	movt	r0, :upper16:_ZNSt13_Bvector_baseISaIbEED2Ev
	movt	r2, :upper16:__dso_handle
	pop	{r4, r5, r6, r7, r8, r9, r11, lr}
.Ltmp420:
	b	__cxa_atexit
.LBB7_4:
.Ltmp421:
	@DEBUG_VALUE: vector:this <- %R4
	@DEBUG_VALUE: size:this <- %R4
	@DEBUG_VALUE: allocate:__n <- %R5
	@DEBUG_VALUE: allocate:__n <- %R5
	@DEBUG_VALUE: _Bit_iterator_base:__x <- %R6
	@DEBUG_VALUE: _Bit_iterator_base:__x <- %R6
.Ltmp369:
	mov	r4, r0
.Ltmp422:
	.loc	12 497 23               @ /usr/bin/../lib/gcc/arm-linux-gnueabihf/6.3.0/../../../../include/c++/6.3.0/bits/stl_bvector.h:497:23
	ldr	r0, [r7, #32]
.Ltmp423:
	.loc	12 497 6 is_stmt 0      @ /usr/bin/../lib/gcc/arm-linux-gnueabihf/6.3.0/../../../../include/c++/6.3.0/bits/stl_bvector.h:497:6
	cmp	r0, #0
	beq	.LBB7_6
.Ltmp424:
@ BB#5:
	@DEBUG_VALUE: allocate:__n <- %R5
	@DEBUG_VALUE: allocate:__n <- %R5
	@DEBUG_VALUE: _Bit_iterator_base:__x <- %R6
	@DEBUG_VALUE: _Bit_iterator_base:__x <- %R6
	@DEBUG_VALUE: deallocate:__p <- %R0
	@DEBUG_VALUE: deallocate:__p <- %R0
	.loc	3 110 9 is_stmt 1       @ /usr/bin/../lib/gcc/arm-linux-gnueabihf/6.3.0/../../../../include/c++/6.3.0/ext/new_allocator.h:110:9
	bl	_ZdlPv
.Ltmp425:
.LBB7_6:                                @ %.body.i
	@DEBUG_VALUE: allocate:__n <- %R5
	@DEBUG_VALUE: allocate:__n <- %R5
	@DEBUG_VALUE: _Bit_iterator_base:__x <- %R6
	@DEBUG_VALUE: _Bit_iterator_base:__x <- %R6
	mov	r0, r4
	mov	lr, pc
	b	_Unwind_Resume
.Lfunc_end7:
	.size	_GLOBAL__sub_I_render.ii, .Lfunc_end7-_GLOBAL__sub_I_render.ii
	.cfi_endproc
	.file	62 "/usr/bin/../lib/gcc/arm-linux-gnueabihf/6.3.0/../../../../include/c++/6.3.0/ext" "type_traits.h"
	.globl	__gxx_personality_v0
	.personality __gxx_personality_v0
	.handlerdata
	.p2align	2
GCC_except_table7:
.Lexception1:
	.byte	255                     @ @LPStart Encoding = omit
	.byte	0                       @ @TType Encoding = absptr
	.byte	41                      @ @TType base offset
	.byte	3                       @ Call site Encoding = udata4
	.byte	39                      @ Call site table length
	.long	.Lfunc_begin7-.Lfunc_begin7 @ >> Call Site 1 <<
	.long	.Ltmp367-.Lfunc_begin7  @   Call between .Lfunc_begin7 and .Ltmp367
	.long	0                       @     has no landing pad
	.byte	0                       @   On action: cleanup
	.long	.Ltmp367-.Lfunc_begin7  @ >> Call Site 2 <<
	.long	.Ltmp368-.Ltmp367       @   Call between .Ltmp367 and .Ltmp368
	.long	.Ltmp369-.Lfunc_begin7  @     jumps to .Ltmp369
	.byte	0                       @   On action: cleanup
	.long	.Ltmp368-.Lfunc_begin7  @ >> Call Site 3 <<
	.long	.Lfunc_end7-.Ltmp368    @   Call between .Ltmp368 and .Lfunc_end7
	.long	0                       @     has no landing pad
	.byte	0                       @   On action: cleanup
	.p2align	2
	.fnend

	.type	.L.str,%object          @ @.str
	.section	.rodata.str1.1,"aMS",%progbits,1
.L.str:
	.asciz	"You need a non-interleaved buffer\n"
	.size	.L.str, 35

	.type	.L.str.5,%object        @ @.str.5
.L.str.5:
	.asciz	"You need the analog and audio channels to have the same sampling rate\n"
	.size	.L.str.5, 71

	.type	.L.str.6,%object        @ @.str.6
.L.str.6:
	.asciz	"Unable to initialise touch sensor\n"
	.size	.L.str.6, 35

	.type	.L.str.7,%object        @ @.str.7
.L.str.7:
	.asciz	"Available parameters: %u\n"
	.size	.L.str.7, 26

	.type	.L.str.8,%object        @ @.str.8
.L.str.8:
	.asciz	"[%d] %s"
	.size	.L.str.8, 8

	.type	.L.str.9,%object        @ @.str.9
.L.str.9:
	.asciz	" - controlled by analog in %d"
	.size	.L.str.9, 30

	.type	.L.str.10,%object       @ @.str.10
.L.str.10:
	.asciz	" - controlled by digital in %d"
	.size	.L.str.10, 31

	.type	.L.str.12,%object       @ @.str.12
.L.str.12:
	.asciz	"Parameter %d controlled by both analog and digital in. Digital in ignored\n"
	.size	.L.str.12, 75

	.type	.L.str.13,%object       @ @.str.13
.L.str.13:
	.asciz	"+ %d hidden parameters\n"
	.size	.L.str.13, 24

	.type	.L.str.14,%object       @ @.str.14
	.section	.rodata.str1.8,"aMS",%progbits,1
	.p2align	3
.L.str.14:
	.asciz	"presets.json"
	.size	.L.str.14, 13

	.type	.L.str.15,%object       @ @.str.15
	.section	.rodata.str1.1,"aMS",%progbits,1
.L.str.15:
	.asciz	"Loading presets from %s\n"
	.size	.L.str.15, 25

	.type	.L.str.16,%object       @ @.str.16
.L.str.16:
	.asciz	"Found %d presets\n"
	.size	.L.str.16, 18

	.type	.L.str.17,%object       @ @.str.17
.L.str.17:
	.asciz	"Loading preset %d: %s\n"
	.size	.L.str.17, 23

	.type	.L.str.19,%object       @ @.str.19
.L.str.19:
	.zero	1
	.size	.L.str.19, 1

	.type	.L.str.20,%object       @ @.str.20
.L.str.20:
	.asciz	"basic_string::_M_construct null not valid"
	.size	.L.str.20, 42

	.section	.init_array,"aw",%init_array
	.p2align	2
	.long	_GLOBAL__sub_I_render.ii(target1)
	.type	.Lstr,%object           @ @str
	.section	.rodata.str1.16,"aMS",%progbits,1
	.p2align	4
.Lstr:
	.asciz	"Starting audio thread..."
	.size	.Lstr, 25

	.type	.L_MergedGlobals,%object @ @_MergedGlobals
	.data
	.p2align	4
.L_MergedGlobals:
	.byte	0                       @ 0x0
	.zero	3
	.long	0                       @ float 0
	.long	12000                   @ 0x2ee0
	.zero	8
	.zero	20
	.zero	80
	.size	.L_MergedGlobals, 120

	.type	.L_MergedGlobals.1,%object @ @_MergedGlobals.1
	.local	.L_MergedGlobals.1
	.comm	.L_MergedGlobals.1,52,16