	.text
	.syntax unified
	.eabi_attribute	67, "2.09"	@ Tag_conformance
	.cpu	cortex-a8
	.eabi_attribute	6, 10	@ Tag_CPU_arch
	.eabi_attribute	7, 65	@ Tag_CPU_arch_profile
	.eabi_attribute	8, 1	@ Tag_ARM_ISA_use
	.eabi_attribute	9, 2	@ Tag_THUMB_ISA_use
	.fpu	neon
	.eabi_attribute	17, 1	@ Tag_ABI_PCS_GOT_use
	.eabi_attribute	20, 2	@ Tag_ABI_FP_denormal
	.eabi_attribute	23, 1	@ Tag_ABI_FP_number_model
	.eabi_attribute	34, 1	@ Tag_CPU_unaligned_access
	.eabi_attribute	24, 1	@ Tag_ABI_align_needed
	.eabi_attribute	25, 1	@ Tag_ABI_align_preserved
	.eabi_attribute	28, 1	@ Tag_ABI_VFP_args
	.eabi_attribute	38, 1	@ Tag_ABI_FP_16bit_format
	.eabi_attribute	18, 4	@ Tag_ABI_PCS_wchar_t
	.eabi_attribute	26, 2	@ Tag_ABI_enum_size
	.eabi_attribute	14, 0	@ Tag_ABI_PCS_R9_use
	.eabi_attribute	68, 1	@ Tag_Virtualization_use
	.file	"/root/Bela/projects/RNBO-KPStrong/build/rnbo/src/RNBO_ExternalLoader.bc"
	.file	1 "/root/Bela/projects/RNBO-KPStrong/rnbo/common" "RNBO_Types.h"
	.file	2 "/usr/bin/../lib/gcc/arm-linux-gnueabihf/6.3.0/../../../../include/arm-linux-gnueabihf/c++/6.3.0/bits" "c++config.h"
	.file	3 "/usr/bin/../lib/gcc/arm-linux-gnueabihf/6.3.0/../../../../include/c++/6.3.0/bits" "uniform_int_dist.h"
	.file	4 "/usr/bin/../lib/gcc/arm-linux-gnueabihf/6.3.0/../../../../include/c++/6.3.0/bits" "hashtable_policy.h"
	.file	5 "/root/Bela/projects/RNBO-KPStrong/rnbo/common" "RNBO_String.h"
	.file	6 "/usr/lib/llvm-3.9/bin/../lib/clang/3.9.1/include" "stddef.h"
	.file	7 "/usr/bin/../lib/gcc/arm-linux-gnueabihf/6.3.0/../../../../include/c++/6.3.0" "type_traits"
	.file	8 "/usr/bin/../lib/gcc/arm-linux-gnueabihf/6.3.0/../../../../include/c++/6.3.0/ext" "aligned_buffer.h"
	.file	9 "/usr/bin/../lib/gcc/arm-linux-gnueabihf/6.3.0/../../../../include/c++/6.3.0/bits" "stl_pair.h"
	.file	10 "/root/Bela/projects/RNBO-KPStrong/rnbo/src/../externals" "ext_rnbo.h"
	.file	11 "/root/Bela/projects/RNBO-KPStrong/rnbo/src" "RNBO_ExternalLoader.h"
	.file	12 "/usr/include" "stdint.h"
	.file	13 "/usr/bin/../lib/gcc/arm-linux-gnueabihf/6.3.0/../../../../include/c++/6.3.0/bits" "shared_ptr_base.h"
	.file	14 "/usr/bin/../lib/gcc/arm-linux-gnueabihf/6.3.0/../../../../include/c++/6.3.0/ext" "concurrence.h"
	.file	15 "/usr/bin/../lib/gcc/arm-linux-gnueabihf/6.3.0/../../../../include/arm-linux-gnueabihf/c++/6.3.0/bits" "atomic_word.h"
	.file	16 "/usr/bin/../lib/gcc/arm-linux-gnueabihf/6.3.0/../../../../include/c++/6.3.0" "new"
	.file	17 "/usr/bin/../lib/gcc/arm-linux-gnueabihf/6.3.0/../../../../include/c++/6.3.0/bits" "shared_ptr.h"
	.file	18 "/usr/bin/../lib/gcc/arm-linux-gnueabihf/6.3.0/../../../../include/c++/6.3.0/bits" "stl_function.h"
	.file	19 "/usr/bin/../lib/gcc/arm-linux-gnueabihf/6.3.0/../../../../include/c++/6.3.0" "utility"
	.file	20 "/usr/bin/../lib/gcc/arm-linux-gnueabihf/6.3.0/../../../../include/c++/6.3.0/ext" "new_allocator.h"
	.file	21 "/usr/bin/../lib/gcc/arm-linux-gnueabihf/6.3.0/../../../../include/arm-linux-gnueabihf/c++/6.3.0/bits" "c++allocator.h"
	.file	22 "/usr/bin/../lib/gcc/arm-linux-gnueabihf/6.3.0/../../../../include/c++/6.3.0/bits" "allocator.h"
	.file	23 "/usr/bin/../lib/gcc/arm-linux-gnueabihf/6.3.0/../../../../include/c++/6.3.0/bits" "hashtable.h"
	.file	24 "/usr/bin/../lib/gcc/arm-linux-gnueabihf/6.3.0/../../../../include/c++/6.3.0/bits" "unordered_map.h"
	.file	25 "/root/Bela/projects/RNBO-KPStrong/rnbo/src" "RNBO_DynamicSymbolRegistry.h"
	.file	26 "/usr/bin/../lib/gcc/arm-linux-gnueabihf/6.3.0/../../../../include/c++/6.3.0/bits" "ios_base.h"
	.file	27 "/usr/bin/../lib/gcc/arm-linux-gnueabihf/6.3.0/../../../../include/c++/6.3.0" "iostream"
	.file	28 "/usr/bin/../lib/gcc/arm-linux-gnueabihf/6.3.0/../../../../include/c++/6.3.0/bits" "alloc_traits.h"
	.file	29 "/usr/bin/../lib/gcc/arm-linux-gnueabihf/6.3.0/../../../../include/c++/6.3.0/ext" "alloc_traits.h"
	.file	30 "/usr/bin/../lib/gcc/arm-linux-gnueabihf/6.3.0/../../../../include/c++/6.3.0/bits" "stl_vector.h"
	.file	31 "/root/Bela/projects/RNBO-KPStrong/rnbo/common" "RNBO_PlatformInterface.h"
	.file	32 "/usr/bin/../lib/gcc/arm-linux-gnueabihf/6.3.0/../../../../include/arm-linux-gnueabihf/c++/6.3.0/bits" "gthr-default.h"
	.file	33 "/usr/bin/../lib/gcc/arm-linux-gnueabihf/6.3.0/../../../../include/c++/6.3.0/bits" "cpp_type_traits.h"
	.file	34 "/root/Bela/projects/RNBO-KPStrong/rnbo/common" "RNBO_ParameterInterface.h"
	.file	35 "/root/Bela/projects/RNBO-KPStrong/rnbo/common" "RNBO_BaseInterface.h"
	.file	36 "/root/Bela/projects/RNBO-KPStrong/rnbo/common" "RNBO_ProcessInterface.h"
	.file	37 "/root/Bela/projects/RNBO-KPStrong/rnbo/common" "RNBO_EngineLink.h"
	.file	38 "/root/Bela/projects/RNBO-KPStrong/rnbo/common" "RNBO_EventTarget.h"
	.file	39 "/root/Bela/projects/RNBO-KPStrong/rnbo/common" "RNBO_ExternalBase.h"
	.file	40 "/usr/bin/../lib/gcc/arm-linux-gnueabihf/6.3.0/../../../../include/c++/6.3.0/bits" "stl_iterator.h"
	.file	41 "/usr/bin/../lib/gcc/arm-linux-gnueabihf/6.3.0/../../../../include/c++/6.3.0/bits" "stl_iterator_base_types.h"
	.file	42 "/usr/include" "stdlib.h"
	.file	43 "/usr/include/arm-linux-gnueabihf/bits" "stdlib-float.h"
	.file	44 "/usr/include/arm-linux-gnueabihf/bits" "stdlib-bsearch.h"
	.file	45 "/usr/bin/../lib/gcc/arm-linux-gnueabihf/6.3.0/../../../../include/c++/6.3.0" "cstdlib"
	.file	46 "/root/Bela/projects/RNBO-KPStrong/build/rnbo/src" "RNBO_ExternalLoader.cpp"
	.file	47 "/usr/include/arm-linux-gnueabihf/bits" "math-finite.h"
	.file	48 "/usr/include/arm-linux-gnueabihf/bits" "mathcalls.h"
	.file	49 "/usr/include/arm-linux-gnueabihf/bits" "mathdef.h"
	.file	50 "/root/Bela/projects/RNBO-KPStrong/rnbo/common" "RNBO_Math.h"
	.file	51 "/usr/bin/../lib/gcc/arm-linux-gnueabihf/6.3.0/../../../../include/c++/6.3.0/debug" "debug.h"
	.file	52 "/usr/bin/../lib/gcc/arm-linux-gnueabihf/6.3.0/../../../../include/c++/6.3.0/bits" "exception_ptr.h"
	.file	53 "/usr/include" "wchar.h"
	.file	54 "/usr/include" "libio.h"
	.file	55 "/usr/include/arm-linux-gnueabihf/bits" "types.h"
	.file	56 "/usr/include" "stdio.h"
	.file	57 "/usr/lib/llvm-3.9/bin/../lib/clang/3.9.1/include" "stdarg.h"
	.file	58 "/usr/include" "time.h"
	.file	59 "/usr/include" "locale.h"
	.file	60 "/usr/include" "ctype.h"
	.file	61 "/usr/include" "_G_config.h"
	.file	62 "/usr/include/arm-linux-gnueabihf/bits" "stdio.h"
	.file	63 "/usr/lib/llvm-3.9/bin/../lib/clang/3.9.1/include" "__stddef_max_align_t.h"
	.file	64 "/usr/include" "wctype.h"
	.file	65 "/usr/include" "string.h"
	.section	.text._ZNSt13unordered_mapIN4RNBO6StringESt10shared_ptrINS0_14ExternalModuleEENS0_12StringHasherESt8equal_toIS1_ESaISt4pairIKS1_S4_EEED2Ev,"axG",%progbits,_ZNSt13unordered_mapIN4RNBO6StringESt10shared_ptrINS0_14ExternalModuleEENS0_12StringHasherESt8equal_toIS1_ESaISt4pairIKS1_S4_EEED2Ev,comdat
	.weak	_ZNSt13unordered_mapIN4RNBO6StringESt10shared_ptrINS0_14ExternalModuleEENS0_12StringHasherESt8equal_toIS1_ESaISt4pairIKS1_S4_EEED2Ev
	.p2align	2
	.type	_ZNSt13unordered_mapIN4RNBO6StringESt10shared_ptrINS0_14ExternalModuleEENS0_12StringHasherESt8equal_toIS1_ESaISt4pairIKS1_S4_EEED2Ev,%function
_ZNSt13unordered_mapIN4RNBO6StringESt10shared_ptrINS0_14ExternalModuleEENS0_12StringHasherESt8equal_toIS1_ESaISt4pairIKS1_S4_EEED2Ev: @ @_ZNSt13unordered_mapIN4RNBO6StringESt10shared_ptrINS0_14ExternalModuleEENS0_12StringHasherESt8equal_toIS1_ESaISt4pairIKS1_S4_EEED2Ev
.Lfunc_begin0:
	.loc	24 98 0                 @ /usr/bin/../lib/gcc/arm-linux-gnueabihf/6.3.0/../../../../include/c++/6.3.0/bits/unordered_map.h:98:0
	.fnstart
	.cfi_startproc
@ BB#0:
	@DEBUG_VALUE: ~unordered_map:this <- %R0
	.loc	24 98 11 prologue_end   @ /usr/bin/../lib/gcc/arm-linux-gnueabihf/6.3.0/../../../../include/c++/6.3.0/bits/unordered_map.h:98:11
	b	_ZNSt10_HashtableIN4RNBO6StringESt4pairIKS1_St10shared_ptrINS0_14ExternalModuleEEESaIS7_ENSt8__detail10_Select1stESt8equal_toIS1_ENS0_12StringHasherENS9_18_Mod_range_hashingENS9_20_Default_ranged_hashENS9_20_Prime_rehash_policyENS9_17_Hashtable_traitsILb1ELb0ELb1EEEED2Ev
.Ltmp0:
.Lfunc_end0:
	.size	_ZNSt13unordered_mapIN4RNBO6StringESt10shared_ptrINS0_14ExternalModuleEENS0_12StringHasherESt8equal_toIS1_ESaISt4pairIKS1_S4_EEED2Ev, .Lfunc_end0-_ZNSt13unordered_mapIN4RNBO6StringESt10shared_ptrINS0_14ExternalModuleEENS0_12StringHasherESt8equal_toIS1_ESaISt4pairIKS1_S4_EEED2Ev
	.cfi_endproc
	.fnend

	.text
	.globl	ExternalLoaderFactory
	.p2align	2
	.type	ExternalLoaderFactory,%function
ExternalLoaderFactory:                  @ @ExternalLoaderFactory
.Lfunc_begin1:
	.loc	11 116 0                @ /root/Bela/projects/RNBO-KPStrong/rnbo/src/RNBO_ExternalLoader.h:116:0
	.fnstart
	.cfi_startproc
@ BB#0:
	.save	{r4, r5, r6, r10, r11, lr}
	push	{r4, r5, r6, r10, r11, lr}
.Ltmp4:
	.cfi_def_cfa_offset 24
.Ltmp5:
	.cfi_offset lr, -4
.Ltmp6:
	.cfi_offset r11, -8
.Ltmp7:
	.cfi_offset r10, -12
.Ltmp8:
	.cfi_offset r6, -16
.Ltmp9:
	.cfi_offset r5, -20
.Ltmp10:
	.cfi_offset r4, -24
	.setfp	r11, sp, #16
	add	r11, sp, #16
.Ltmp11:
	.cfi_def_cfa r11, 8
	@DEBUG_VALUE: ExternalLoaderFactory:externalName <- %R0
	@DEBUG_VALUE: ExternalLoaderFactory:dllName <- %R1
	@DEBUG_VALUE: ExternalLoaderFactory:pathToDll <- %R2
.Ltmp12:
	.loc	11 117 10 prologue_end  @ /root/Bela/projects/RNBO-KPStrong/rnbo/src/RNBO_ExternalLoader.h:117:10
	mov	r0, #32
.Ltmp13:
	mov	r5, r2
.Ltmp14:
	@DEBUG_VALUE: ExternalLoaderFactory:pathToDll <- %R5
	mov	r6, r1
.Ltmp15:
	@DEBUG_VALUE: ExternalLoaderFactory:dllName <- %R6
	bl	_Znwj
	mov	r4, r0
	.loc	11 117 14 is_stmt 0     @ /root/Bela/projects/RNBO-KPStrong/rnbo/src/RNBO_ExternalLoader.h:117:14
.Ltmp1:
	mov	r2, r6
.Ltmp16:
	@DEBUG_VALUE: ExternalLoaderFactory:dllName <- %R2
	mov	r3, r5
.Ltmp17:
	@DEBUG_VALUE: ExternalLoaderFactory:pathToDll <- %R3
	bl	_ZN4RNBO14ExternalLoaderC2EPKcS2_S2_
.Ltmp18:
.Ltmp2:
@ BB#1:
	.loc	11 117 3 discriminator 1 @ /root/Bela/projects/RNBO-KPStrong/rnbo/src/RNBO_ExternalLoader.h:117:3
	mov	r0, r4
	pop	{r4, r5, r6, r10, r11, pc}
.LBB1_2:
.Ltmp3:
	mov	r5, r0
	.loc	11 117 10 discriminator 2 @ /root/Bela/projects/RNBO-KPStrong/rnbo/src/RNBO_ExternalLoader.h:117:10
	mov	r0, r4
	bl	_ZdlPv
	mov	r0, r5
	mov	lr, pc
	b	_Unwind_Resume
.Ltmp19:
.Lfunc_end1:
	.size	ExternalLoaderFactory, .Lfunc_end1-ExternalLoaderFactory
	.cfi_endproc
	.globl	__gxx_personality_v0
	.personality __gxx_personality_v0
	.handlerdata
	.p2align	2
GCC_except_table1:
.Lexception0:
	.byte	255                     @ @LPStart Encoding = omit
	.byte	0                       @ @TType Encoding = absptr
	.byte	41                      @ @TType base offset
	.byte	3                       @ Call site Encoding = udata4
	.byte	39                      @ Call site table length
	.long	.Lfunc_begin1-.Lfunc_begin1 @ >> Call Site 1 <<
	.long	.Ltmp1-.Lfunc_begin1    @   Call between .Lfunc_begin1 and .Ltmp1
	.long	0                       @     has no landing pad
	.byte	0                       @   On action: cleanup
	.long	.Ltmp1-.Lfunc_begin1    @ >> Call Site 2 <<
	.long	.Ltmp2-.Ltmp1           @   Call between .Ltmp1 and .Ltmp2
	.long	.Ltmp3-.Lfunc_begin1    @     jumps to .Ltmp3
	.byte	0                       @   On action: cleanup
	.long	.Ltmp2-.Lfunc_begin1    @ >> Call Site 3 <<
	.long	.Lfunc_end1-.Ltmp2      @   Call between .Ltmp2 and .Lfunc_end1
	.long	0                       @     has no landing pad
	.byte	0                       @   On action: cleanup
	.p2align	2
	.fnend

	.globl	_ZN4RNBO19getInterfaceVersionEPiS0_
	.p2align	2
	.type	_ZN4RNBO19getInterfaceVersionEPiS0_,%function
_ZN4RNBO19getInterfaceVersionEPiS0_:    @ @_ZN4RNBO19getInterfaceVersionEPiS0_
.Lfunc_begin2:
	.file	66 "/root/Bela/projects/RNBO-KPStrong/rnbo/src" "RNBO_ExternalLoader.cpp"
	.loc	66 75 0 is_stmt 1       @ /root/Bela/projects/RNBO-KPStrong/rnbo/src/RNBO_ExternalLoader.cpp:75:0
	.fnstart
	.cfi_startproc
@ BB#0:
	@DEBUG_VALUE: getInterfaceVersion:major <- %R0
	@DEBUG_VALUE: getInterfaceVersion:minor <- %R1
	.loc	66 76 10 prologue_end   @ /root/Bela/projects/RNBO-KPStrong/rnbo/src/RNBO_ExternalLoader.cpp:76:10
	mov	r2, #1
	str	r2, [r0]
	mov	r0, #0
.Ltmp20:
	.loc	66 77 10                @ /root/Bela/projects/RNBO-KPStrong/rnbo/src/RNBO_ExternalLoader.cpp:77:10
	str	r0, [r1]
	.loc	66 78 3                 @ /root/Bela/projects/RNBO-KPStrong/rnbo/src/RNBO_ExternalLoader.cpp:78:3
	mov	r0, #0
	bx	lr
.Ltmp21:
.Lfunc_end2:
	.size	_ZN4RNBO19getInterfaceVersionEPiS0_, .Lfunc_end2-_ZN4RNBO19getInterfaceVersionEPiS0_
	.cfi_endproc
	.fnend

	.globl	_ZN4RNBO18scheduleClockEventEPvif
	.p2align	2
	.type	_ZN4RNBO18scheduleClockEventEPvif,%function
_ZN4RNBO18scheduleClockEventEPvif:      @ @_ZN4RNBO18scheduleClockEventEPvif
.Lfunc_begin3:
	.loc	66 82 0                 @ /root/Bela/projects/RNBO-KPStrong/rnbo/src/RNBO_ExternalLoader.cpp:82:0
	.fnstart
	.cfi_startproc
@ BB#0:
	.save	{r4, r5, r11, lr}
	push	{r4, r5, r11, lr}
.Ltmp22:
	.cfi_def_cfa_offset 16
.Ltmp23:
	.cfi_offset lr, -4
.Ltmp24:
	.cfi_offset r11, -8
.Ltmp25:
	.cfi_offset r5, -12
.Ltmp26:
	.cfi_offset r4, -16
	.setfp	r11, sp, #8
	add	r11, sp, #8
.Ltmp27:
	.cfi_def_cfa r11, 8
	.vsave	{d8}
	vpush	{d8}
.Ltmp28:
	.cfi_offset d8, -24
	@DEBUG_VALUE: scheduleClockEvent:hostHandle <- %R0
	@DEBUG_VALUE: scheduleClockEvent:clockIndex <- %R1
	@DEBUG_VALUE: scheduleClockEvent:delay <- %S0
	mov	r5, r0
.Ltmp29:
	@DEBUG_VALUE: scheduleClockEvent:hostHandle <- %R5
	mov	r4, r1
.Ltmp30:
	@DEBUG_VALUE: scheduleClockEvent:clockIndex <- %R4
	.loc	66 84 19 prologue_end   @ /root/Bela/projects/RNBO-KPStrong/rnbo/src/RNBO_ExternalLoader.cpp:84:19
	ldr	r0, [r5, #4]!
.Ltmp31:
	vmov.f32	s16, s0
.Ltmp32:
	@DEBUG_VALUE: scheduleClockEvent:delay <- %S16
	ldr	r1, [r0]
	mov	r0, r5
	blx	r1
	.loc	66 84 32 is_stmt 0      @ /root/Bela/projects/RNBO-KPStrong/rnbo/src/RNBO_ExternalLoader.cpp:84:32
	ldr	r2, [r0]
.Ltmp33:
	.loc	66 394 10 is_stmt 1     @ /root/Bela/projects/RNBO-KPStrong/rnbo/src/RNBO_ExternalLoader.cpp:394:10
	add	r1, r5, #12
.Ltmp34:
	.loc	66 84 32 discriminator 2 @ /root/Bela/projects/RNBO-KPStrong/rnbo/src/RNBO_ExternalLoader.cpp:84:32
	vmov.f32	s0, s16
.Ltmp35:
	@DEBUG_VALUE: scheduleClockEvent:delay <- %S0
	.loc	66 84 32 is_stmt 0      @ /root/Bela/projects/RNBO-KPStrong/rnbo/src/RNBO_ExternalLoader.cpp:84:32
	ldr	r3, [r2]
	.loc	66 84 32 discriminator 2 @ /root/Bela/projects/RNBO-KPStrong/rnbo/src/RNBO_ExternalLoader.cpp:84:32
	mov	r2, r4
.Ltmp36:
	@DEBUG_VALUE: scheduleClockEvent:clockIndex <- %R2
	vpop	{d8}
	pop	{r4, r5, r11, lr}
	bx	r3
.Ltmp37:
.Lfunc_end3:
	.size	_ZN4RNBO18scheduleClockEventEPvif, .Lfunc_end3-_ZN4RNBO18scheduleClockEventEPvif
	.cfi_endproc
	.fnend

	.globl	_ZN4RNBO14ExternalLoader14getEventTargetEv
	.p2align	2
	.type	_ZN4RNBO14ExternalLoader14getEventTargetEv,%function
_ZN4RNBO14ExternalLoader14getEventTargetEv: @ @_ZN4RNBO14ExternalLoader14getEventTargetEv
.Lfunc_begin4:
	.loc	66 393 0 is_stmt 1      @ /root/Bela/projects/RNBO-KPStrong/rnbo/src/RNBO_ExternalLoader.cpp:393:0
	.fnstart
	.cfi_startproc
@ BB#0:
	@DEBUG_VALUE: getEventTarget:this <- %R0
	.loc	66 394 10 prologue_end  @ /root/Bela/projects/RNBO-KPStrong/rnbo/src/RNBO_ExternalLoader.cpp:394:10
	add	r0, r0, #16
.Ltmp38:
	.loc	66 394 3 is_stmt 0      @ /root/Bela/projects/RNBO-KPStrong/rnbo/src/RNBO_ExternalLoader.cpp:394:3
	bx	lr
.Ltmp39:
.Lfunc_end4:
	.size	_ZN4RNBO14ExternalLoader14getEventTargetEv, .Lfunc_end4-_ZN4RNBO14ExternalLoader14getEventTargetEv
	.cfi_endproc
	.fnend

	.globl	_ZN4RNBO27scheduleClockEventWithValueEPviff
	.p2align	2
	.type	_ZN4RNBO27scheduleClockEventWithValueEPviff,%function
_ZN4RNBO27scheduleClockEventWithValueEPviff: @ @_ZN4RNBO27scheduleClockEventWithValueEPviff
.Lfunc_begin5:
	.loc	66 88 0 is_stmt 1       @ /root/Bela/projects/RNBO-KPStrong/rnbo/src/RNBO_ExternalLoader.cpp:88:0
	.fnstart
	.cfi_startproc
@ BB#0:
	.save	{r4, r5, r11, lr}
	push	{r4, r5, r11, lr}
.Ltmp40:
	.cfi_def_cfa_offset 16
.Ltmp41:
	.cfi_offset lr, -4
.Ltmp42:
	.cfi_offset r11, -8
.Ltmp43:
	.cfi_offset r5, -12
.Ltmp44:
	.cfi_offset r4, -16
	.setfp	r11, sp, #8
	add	r11, sp, #8
.Ltmp45:
	.cfi_def_cfa r11, 8
	.vsave	{d8, d9}
	vpush	{d8, d9}
.Ltmp46:
	.cfi_offset d9, -24
.Ltmp47:
	.cfi_offset d8, -32
	@DEBUG_VALUE: scheduleClockEventWithValue:hostHandle <- %R0
	@DEBUG_VALUE: scheduleClockEventWithValue:clockIndex <- %R1
	@DEBUG_VALUE: scheduleClockEventWithValue:delay <- %S0
	@DEBUG_VALUE: scheduleClockEventWithValue:value <- %S1
	mov	r5, r0
.Ltmp48:
	@DEBUG_VALUE: scheduleClockEventWithValue:hostHandle <- %R5
	mov	r4, r1
.Ltmp49:
	@DEBUG_VALUE: scheduleClockEventWithValue:clockIndex <- %R4
	.loc	66 90 19 prologue_end   @ /root/Bela/projects/RNBO-KPStrong/rnbo/src/RNBO_ExternalLoader.cpp:90:19
	ldr	r0, [r5, #4]!
.Ltmp50:
	vmov.f32	s16, s1
.Ltmp51:
	@DEBUG_VALUE: scheduleClockEventWithValue:value <- %S16
	vmov.f32	s18, s0
.Ltmp52:
	@DEBUG_VALUE: scheduleClockEventWithValue:delay <- %S18
	ldr	r1, [r0]
	mov	r0, r5
	blx	r1
	.loc	66 90 32 is_stmt 0      @ /root/Bela/projects/RNBO-KPStrong/rnbo/src/RNBO_ExternalLoader.cpp:90:32
	ldr	r2, [r0]
.Ltmp53:
	.loc	66 394 10 is_stmt 1     @ /root/Bela/projects/RNBO-KPStrong/rnbo/src/RNBO_ExternalLoader.cpp:394:10
	add	r1, r5, #12
.Ltmp54:
	.loc	66 90 32 discriminator 2 @ /root/Bela/projects/RNBO-KPStrong/rnbo/src/RNBO_ExternalLoader.cpp:90:32
	vmov.f32	s0, s18
.Ltmp55:
	@DEBUG_VALUE: scheduleClockEventWithValue:delay <- %S0
	vmov.f32	s1, s16
.Ltmp56:
	@DEBUG_VALUE: scheduleClockEventWithValue:value <- %S1
	.loc	66 90 32 is_stmt 0      @ /root/Bela/projects/RNBO-KPStrong/rnbo/src/RNBO_ExternalLoader.cpp:90:32
	ldr	r3, [r2, #4]
	.loc	66 90 32 discriminator 2 @ /root/Bela/projects/RNBO-KPStrong/rnbo/src/RNBO_ExternalLoader.cpp:90:32
	mov	r2, r4
.Ltmp57:
	@DEBUG_VALUE: scheduleClockEventWithValue:clockIndex <- %R2
	vpop	{d8, d9}
	pop	{r4, r5, r11, lr}
	bx	r3
.Ltmp58:
.Lfunc_end5:
	.size	_ZN4RNBO27scheduleClockEventWithValueEPviff, .Lfunc_end5-_ZN4RNBO27scheduleClockEventWithValueEPviff
	.cfi_endproc
	.fnend

	.globl	_ZN4RNBO16flushClockEventsEPvib
	.p2align	2
	.type	_ZN4RNBO16flushClockEventsEPvib,%function
_ZN4RNBO16flushClockEventsEPvib:        @ @_ZN4RNBO16flushClockEventsEPvib
.Lfunc_begin6:
	.loc	66 94 0 is_stmt 1       @ /root/Bela/projects/RNBO-KPStrong/rnbo/src/RNBO_ExternalLoader.cpp:94:0
	.fnstart
	.cfi_startproc
@ BB#0:
	.save	{r4, r5, r6, r10, r11, lr}
	push	{r4, r5, r6, r10, r11, lr}
.Ltmp59:
	.cfi_def_cfa_offset 24
.Ltmp60:
	.cfi_offset lr, -4
.Ltmp61:
	.cfi_offset r11, -8
.Ltmp62:
	.cfi_offset r10, -12
.Ltmp63:
	.cfi_offset r6, -16
.Ltmp64:
	.cfi_offset r5, -20
.Ltmp65:
	.cfi_offset r4, -24
	.setfp	r11, sp, #16
	add	r11, sp, #16
.Ltmp66:
	.cfi_def_cfa r11, 8
	@DEBUG_VALUE: flushClockEvents:hostHandle <- %R0
	@DEBUG_VALUE: flushClockEvents:clockIndex <- %R1
	@DEBUG_VALUE: flushClockEvents:execute [bit_piece offset=0 size=1] <- %R2
	mov	r6, r0
.Ltmp67:
	@DEBUG_VALUE: flushClockEvents:hostHandle <- %R6
	mov	r5, r1
.Ltmp68:
	@DEBUG_VALUE: flushClockEvents:clockIndex <- %R5
	.loc	66 96 19 prologue_end   @ /root/Bela/projects/RNBO-KPStrong/rnbo/src/RNBO_ExternalLoader.cpp:96:19
	ldr	r0, [r6, #4]!
.Ltmp69:
	mov	r4, r2
.Ltmp70:
	@DEBUG_VALUE: flushClockEvents:execute [bit_piece offset=0 size=1] <- %R4
	ldr	r1, [r0]
	mov	r0, r6
	blx	r1
	.loc	66 96 32 is_stmt 0      @ /root/Bela/projects/RNBO-KPStrong/rnbo/src/RNBO_ExternalLoader.cpp:96:32
	ldr	r2, [r0]
.Ltmp71:
	.loc	66 394 10 is_stmt 1     @ /root/Bela/projects/RNBO-KPStrong/rnbo/src/RNBO_ExternalLoader.cpp:394:10
	add	r1, r6, #12
.Ltmp72:
	.loc	66 96 32 discriminator 2 @ /root/Bela/projects/RNBO-KPStrong/rnbo/src/RNBO_ExternalLoader.cpp:96:32
	mov	r3, r4
.Ltmp73:
	@DEBUG_VALUE: flushClockEvents:execute [bit_piece offset=0 size=1] <- %R3
	.loc	66 96 32 is_stmt 0      @ /root/Bela/projects/RNBO-KPStrong/rnbo/src/RNBO_ExternalLoader.cpp:96:32
	ldr	r12, [r2, #8]
	.loc	66 96 32 discriminator 2 @ /root/Bela/projects/RNBO-KPStrong/rnbo/src/RNBO_ExternalLoader.cpp:96:32
	mov	r2, r5
.Ltmp74:
	@DEBUG_VALUE: flushClockEvents:clockIndex <- %R2
	pop	{r4, r5, r6, r10, r11, lr}
	bx	r12
.Ltmp75:
.Lfunc_end6:
	.size	_ZN4RNBO16flushClockEventsEPvib, .Lfunc_end6-_ZN4RNBO16flushClockEventsEPvib
	.cfi_endproc
	.fnend

	.globl	_ZN4RNBO25flushClockEventsWithValueEPvifb
	.p2align	2
	.type	_ZN4RNBO25flushClockEventsWithValueEPvifb,%function
_ZN4RNBO25flushClockEventsWithValueEPvifb: @ @_ZN4RNBO25flushClockEventsWithValueEPvifb
.Lfunc_begin7:
	.loc	66 100 0 is_stmt 1      @ /root/Bela/projects/RNBO-KPStrong/rnbo/src/RNBO_ExternalLoader.cpp:100:0
	.fnstart
	.cfi_startproc
@ BB#0:
	.save	{r4, r5, r6, r10, r11, lr}
	push	{r4, r5, r6, r10, r11, lr}
.Ltmp76:
	.cfi_def_cfa_offset 24
.Ltmp77:
	.cfi_offset lr, -4
.Ltmp78:
	.cfi_offset r11, -8
.Ltmp79:
	.cfi_offset r10, -12
.Ltmp80:
	.cfi_offset r6, -16
.Ltmp81:
	.cfi_offset r5, -20
.Ltmp82:
	.cfi_offset r4, -24
	.setfp	r11, sp, #16
	add	r11, sp, #16
.Ltmp83:
	.cfi_def_cfa r11, 8
	.vsave	{d8}
	vpush	{d8}
.Ltmp84:
	.cfi_offset d8, -32
	@DEBUG_VALUE: flushClockEventsWithValue:hostHandle <- %R0
	@DEBUG_VALUE: flushClockEventsWithValue:clockIndex <- %R1
	@DEBUG_VALUE: flushClockEventsWithValue:value <- %S0
	@DEBUG_VALUE: flushClockEventsWithValue:execute [bit_piece offset=0 size=1] <- %R2
	mov	r6, r0
.Ltmp85:
	@DEBUG_VALUE: flushClockEventsWithValue:hostHandle <- %R6
	mov	r5, r1
.Ltmp86:
	@DEBUG_VALUE: flushClockEventsWithValue:clockIndex <- %R5
	.loc	66 102 19 prologue_end  @ /root/Bela/projects/RNBO-KPStrong/rnbo/src/RNBO_ExternalLoader.cpp:102:19
	ldr	r0, [r6, #4]!
.Ltmp87:
	mov	r4, r2
.Ltmp88:
	@DEBUG_VALUE: flushClockEventsWithValue:execute [bit_piece offset=0 size=1] <- %R4
	vmov.f32	s16, s0
.Ltmp89:
	@DEBUG_VALUE: flushClockEventsWithValue:value <- %S16
	ldr	r1, [r0]
	mov	r0, r6
	blx	r1
	.loc	66 102 32 is_stmt 0     @ /root/Bela/projects/RNBO-KPStrong/rnbo/src/RNBO_ExternalLoader.cpp:102:32
	ldr	r2, [r0]
.Ltmp90:
	.loc	66 394 10 is_stmt 1     @ /root/Bela/projects/RNBO-KPStrong/rnbo/src/RNBO_ExternalLoader.cpp:394:10
	add	r1, r6, #12
.Ltmp91:
	.loc	66 102 32 discriminator 2 @ /root/Bela/projects/RNBO-KPStrong/rnbo/src/RNBO_ExternalLoader.cpp:102:32
	vmov.f32	s0, s16
.Ltmp92:
	@DEBUG_VALUE: flushClockEventsWithValue:value <- %S0
	mov	r3, r4
.Ltmp93:
	@DEBUG_VALUE: flushClockEventsWithValue:execute [bit_piece offset=0 size=1] <- %R3
	.loc	66 102 32 is_stmt 0     @ /root/Bela/projects/RNBO-KPStrong/rnbo/src/RNBO_ExternalLoader.cpp:102:32
	ldr	r12, [r2, #12]
	.loc	66 102 32 discriminator 2 @ /root/Bela/projects/RNBO-KPStrong/rnbo/src/RNBO_ExternalLoader.cpp:102:32
	mov	r2, r5
.Ltmp94:
	@DEBUG_VALUE: flushClockEventsWithValue:clockIndex <- %R2
	vpop	{d8}
	pop	{r4, r5, r6, r10, r11, lr}
	bx	r12
.Ltmp95:
.Lfunc_end7:
	.size	_ZN4RNBO25flushClockEventsWithValueEPvifb, .Lfunc_end7-_ZN4RNBO25flushClockEventsWithValueEPvifb
	.cfi_endproc
	.fnend

	.globl	_ZN4RNBO13sendMidiEventEPviiii
	.p2align	2
	.type	_ZN4RNBO13sendMidiEventEPviiii,%function
_ZN4RNBO13sendMidiEventEPviiii:         @ @_ZN4RNBO13sendMidiEventEPviiii
.Lfunc_begin8:
	.loc	66 106 0 is_stmt 1      @ /root/Bela/projects/RNBO-KPStrong/rnbo/src/RNBO_ExternalLoader.cpp:106:0
	.fnstart
	.cfi_startproc
@ BB#0:
	.save	{r4, r5, r6, r10, r11, lr}
	push	{r4, r5, r6, r10, r11, lr}
.Ltmp96:
	.cfi_def_cfa_offset 24
.Ltmp97:
	.cfi_offset lr, -4
.Ltmp98:
	.cfi_offset r11, -8
.Ltmp99:
	.cfi_offset r10, -12
.Ltmp100:
	.cfi_offset r6, -16
.Ltmp101:
	.cfi_offset r5, -20
.Ltmp102:
	.cfi_offset r4, -24
	.setfp	r11, sp, #16
	add	r11, sp, #16
.Ltmp103:
	.cfi_def_cfa r11, 8
	@DEBUG_VALUE: sendMidiEvent:hostHandle <- %R0
	@DEBUG_VALUE: sendMidiEvent:port <- %R1
	@DEBUG_VALUE: sendMidiEvent:b1 <- %R2
	@DEBUG_VALUE: sendMidiEvent:b2 <- %R3
	@DEBUG_VALUE: sendMidiEvent:b3 <- [%R11+8]
	mov	r6, r1
.Ltmp104:
	@DEBUG_VALUE: sendMidiEvent:port <- %R6
	.loc	66 108 19 prologue_end  @ /root/Bela/projects/RNBO-KPStrong/rnbo/src/RNBO_ExternalLoader.cpp:108:19
	ldr	r1, [r0, #4]!
.Ltmp105:
	mov	r4, r3
.Ltmp106:
	@DEBUG_VALUE: sendMidiEvent:b2 <- %R4
	mov	r5, r2
.Ltmp107:
	@DEBUG_VALUE: sendMidiEvent:b1 <- %R5
	ldr	r1, [r1]
	blx	r1
	.loc	66 108 32 is_stmt 0     @ /root/Bela/projects/RNBO-KPStrong/rnbo/src/RNBO_ExternalLoader.cpp:108:32
	ldr	r1, [r0]
	.loc	66 108 32 discriminator 1 @ /root/Bela/projects/RNBO-KPStrong/rnbo/src/RNBO_ExternalLoader.cpp:108:32
	mov	r2, r5
.Ltmp108:
	@DEBUG_VALUE: sendMidiEvent:b1 <- %R2
	mov	r3, r4
.Ltmp109:
	@DEBUG_VALUE: sendMidiEvent:b2 <- %R3
	.loc	66 108 32               @ /root/Bela/projects/RNBO-KPStrong/rnbo/src/RNBO_ExternalLoader.cpp:108:32
	ldr	r12, [r1, #16]
	.loc	66 108 32 discriminator 1 @ /root/Bela/projects/RNBO-KPStrong/rnbo/src/RNBO_ExternalLoader.cpp:108:32
	mov	r1, r6
.Ltmp110:
	@DEBUG_VALUE: sendMidiEvent:port <- %R1
	pop	{r4, r5, r6, r10, r11, lr}
	bx	r12
.Ltmp111:
.Lfunc_end8:
	.size	_ZN4RNBO13sendMidiEventEPviiii, .Lfunc_end8-_ZN4RNBO13sendMidiEventEPviiii
	.cfi_endproc
	.fnend

	.globl	_ZN4RNBO17sendMidiEventListEPviRKNS_8listbaseIfEE
	.p2align	2
	.type	_ZN4RNBO17sendMidiEventListEPviRKNS_8listbaseIfEE,%function
_ZN4RNBO17sendMidiEventListEPviRKNS_8listbaseIfEE: @ @_ZN4RNBO17sendMidiEventListEPviRKNS_8listbaseIfEE
.Lfunc_begin9:
	.loc	66 112 0 is_stmt 1      @ /root/Bela/projects/RNBO-KPStrong/rnbo/src/RNBO_ExternalLoader.cpp:112:0
	.fnstart
	.cfi_startproc
@ BB#0:
	.save	{r4, r5, r11, lr}
	push	{r4, r5, r11, lr}
.Ltmp112:
	.cfi_def_cfa_offset 16
.Ltmp113:
	.cfi_offset lr, -4
.Ltmp114:
	.cfi_offset r11, -8
.Ltmp115:
	.cfi_offset r5, -12
.Ltmp116:
	.cfi_offset r4, -16
	.setfp	r11, sp, #8
	add	r11, sp, #8
.Ltmp117:
	.cfi_def_cfa r11, 8
	@DEBUG_VALUE: sendMidiEventList:hostHandle <- %R0
	@DEBUG_VALUE: sendMidiEventList:port <- %R1
	@DEBUG_VALUE: sendMidiEventList:data <- %R2
	mov	r5, r1
.Ltmp118:
	@DEBUG_VALUE: sendMidiEventList:port <- %R5
	.loc	66 114 19 prologue_end  @ /root/Bela/projects/RNBO-KPStrong/rnbo/src/RNBO_ExternalLoader.cpp:114:19
	ldr	r1, [r0, #4]!
.Ltmp119:
	mov	r4, r2
.Ltmp120:
	@DEBUG_VALUE: sendMidiEventList:data <- %R4
	ldr	r1, [r1]
	blx	r1
	.loc	66 114 32 is_stmt 0     @ /root/Bela/projects/RNBO-KPStrong/rnbo/src/RNBO_ExternalLoader.cpp:114:32
	ldr	r1, [r0]
	.loc	66 114 32 discriminator 1 @ /root/Bela/projects/RNBO-KPStrong/rnbo/src/RNBO_ExternalLoader.cpp:114:32
	mov	r2, r4
.Ltmp121:
	@DEBUG_VALUE: sendMidiEventList:data <- %R2
	.loc	66 114 32               @ /root/Bela/projects/RNBO-KPStrong/rnbo/src/RNBO_ExternalLoader.cpp:114:32
	ldr	r3, [r1, #20]
	.loc	66 114 32 discriminator 1 @ /root/Bela/projects/RNBO-KPStrong/rnbo/src/RNBO_ExternalLoader.cpp:114:32
	mov	r1, r5
.Ltmp122:
	@DEBUG_VALUE: sendMidiEventList:port <- %R1
	pop	{r4, r5, r11, lr}
	bx	r3
.Ltmp123:
.Lfunc_end9:
	.size	_ZN4RNBO17sendMidiEventListEPviRKNS_8listbaseIfEE, .Lfunc_end9-_ZN4RNBO17sendMidiEventListEPviRKNS_8listbaseIfEE
	.cfi_endproc
	.fnend

	.globl	_ZN4RNBO14getCurrentTimeEPv
	.p2align	2
	.type	_ZN4RNBO14getCurrentTimeEPv,%function
_ZN4RNBO14getCurrentTimeEPv:            @ @_ZN4RNBO14getCurrentTimeEPv
.Lfunc_begin10:
	.loc	66 118 0 is_stmt 1      @ /root/Bela/projects/RNBO-KPStrong/rnbo/src/RNBO_ExternalLoader.cpp:118:0
	.fnstart
	.cfi_startproc
@ BB#0:
	.save	{r11, lr}
	push	{r11, lr}
.Ltmp124:
	.cfi_def_cfa_offset 8
.Ltmp125:
	.cfi_offset lr, -4
.Ltmp126:
	.cfi_offset r11, -8
	.setfp	r11, sp
	mov	r11, sp
.Ltmp127:
	.cfi_def_cfa_register r11
	@DEBUG_VALUE: getCurrentTime:hostHandle <- %R0
.Ltmp128:
	.loc	66 120 26 prologue_end  @ /root/Bela/projects/RNBO-KPStrong/rnbo/src/RNBO_ExternalLoader.cpp:120:26
	ldr	r1, [r0, #4]!
.Ltmp129:
	ldr	r1, [r1]
	blx	r1
	.loc	66 120 39 is_stmt 0     @ /root/Bela/projects/RNBO-KPStrong/rnbo/src/RNBO_ExternalLoader.cpp:120:39
	ldr	r1, [r0]
	ldr	r1, [r1, #76]
	.loc	66 120 39 discriminator 1 @ /root/Bela/projects/RNBO-KPStrong/rnbo/src/RNBO_ExternalLoader.cpp:120:39
	pop	{r11, lr}
	bx	r1
.Ltmp130:
.Lfunc_end10:
	.size	_ZN4RNBO14getCurrentTimeEPv, .Lfunc_end10-_ZN4RNBO14getCurrentTimeEPv
	.cfi_endproc
	.fnend

	.globl	_ZN4RNBO10sendOutletEPvS0_jfi
	.p2align	2
	.type	_ZN4RNBO10sendOutletEPvS0_jfi,%function
_ZN4RNBO10sendOutletEPvS0_jfi:          @ @_ZN4RNBO10sendOutletEPvS0_jfi
.Lfunc_begin11:
	.loc	66 124 0 is_stmt 1      @ /root/Bela/projects/RNBO-KPStrong/rnbo/src/RNBO_ExternalLoader.cpp:124:0
	.fnstart
	.cfi_startproc
@ BB#0:
	.save	{r4, r5, r6, r7, r11, lr}
	push	{r4, r5, r6, r7, r11, lr}
.Ltmp131:
	.cfi_def_cfa_offset 24
.Ltmp132:
	.cfi_offset lr, -4
.Ltmp133:
	.cfi_offset r11, -8
.Ltmp134:
	.cfi_offset r7, -12
.Ltmp135:
	.cfi_offset r6, -16
.Ltmp136:
	.cfi_offset r5, -20
.Ltmp137:
	.cfi_offset r4, -24
	.setfp	r11, sp, #16
	add	r11, sp, #16
.Ltmp138:
	.cfi_def_cfa r11, 8
	.vsave	{d8}
	vpush	{d8}
.Ltmp139:
	.cfi_offset d8, -32
	@DEBUG_VALUE: sendOutlet:hostHandle <- %R0
	@DEBUG_VALUE: sendOutlet:sender <- %R1
	@DEBUG_VALUE: sendOutlet:index <- %R2
	@DEBUG_VALUE: sendOutlet:value <- %S0
	@DEBUG_VALUE: sendOutlet:sampleOffset <- %R3
	mov	r6, r0
.Ltmp140:
	@DEBUG_VALUE: sendOutlet:hostHandle <- %R6
	mov	r4, r3
.Ltmp141:
	@DEBUG_VALUE: sendOutlet:sampleOffset <- %R4
	.loc	66 127 19 prologue_end  @ /root/Bela/projects/RNBO-KPStrong/rnbo/src/RNBO_ExternalLoader.cpp:127:19
	mov	r7, r6
	vmov.f32	s16, s0
.Ltmp142:
	@DEBUG_VALUE: sendOutlet:value <- %S16
	ldr	r0, [r7, #4]!
	mov	r5, r2
.Ltmp143:
	@DEBUG_VALUE: sendOutlet:index <- %R5
	ldr	r1, [r0]
.Ltmp144:
	mov	r0, r7
	blx	r1
	.loc	66 127 32 is_stmt 0     @ /root/Bela/projects/RNBO-KPStrong/rnbo/src/RNBO_ExternalLoader.cpp:127:32
	ldr	r1, [r0]
	.loc	66 127 43               @ /root/Bela/projects/RNBO-KPStrong/rnbo/src/RNBO_ExternalLoader.cpp:127:43
	cmp	r6, #0
	moveq	r7, r6
	.loc	66 127 32 discriminator 2 @ /root/Bela/projects/RNBO-KPStrong/rnbo/src/RNBO_ExternalLoader.cpp:127:32
	mov	r2, r5
.Ltmp145:
	@DEBUG_VALUE: sendOutlet:index <- %R2
	vmov.f32	s0, s16
.Ltmp146:
	@DEBUG_VALUE: sendOutlet:value <- %S0
	mov	r3, r4
.Ltmp147:
	@DEBUG_VALUE: sendOutlet:sampleOffset <- %R3
	.loc	66 127 32               @ /root/Bela/projects/RNBO-KPStrong/rnbo/src/RNBO_ExternalLoader.cpp:127:32
	ldr	r12, [r1, #24]
	.loc	66 127 32 discriminator 2 @ /root/Bela/projects/RNBO-KPStrong/rnbo/src/RNBO_ExternalLoader.cpp:127:32
	mov	r1, r7
	vpop	{d8}
	pop	{r4, r5, r6, r7, r11, lr}
.Ltmp148:
	bx	r12
.Ltmp149:
.Lfunc_end11:
	.size	_ZN4RNBO10sendOutletEPvS0_jfi, .Lfunc_end11-_ZN4RNBO10sendOutletEPvS0_jfi
	.cfi_endproc
	.fnend

	.globl	_ZN4RNBO10consolelogENS_8LogLevelEPKc
	.p2align	2
	.type	_ZN4RNBO10consolelogENS_8LogLevelEPKc,%function
_ZN4RNBO10consolelogENS_8LogLevelEPKc:  @ @_ZN4RNBO10consolelogENS_8LogLevelEPKc
.Lfunc_begin12:
	.loc	66 131 0 is_stmt 1      @ /root/Bela/projects/RNBO-KPStrong/rnbo/src/RNBO_ExternalLoader.cpp:131:0
	.fnstart
	.cfi_startproc
@ BB#0:
	@DEBUG_VALUE: consolelog:level <- %R0
	@DEBUG_VALUE: consolelog:message <- %R1
	mov	r2, r1
.Ltmp150:
	@DEBUG_VALUE: consolelog:message <- %R2
	mov	r1, r0
.Ltmp151:
	@DEBUG_VALUE: consolelog:level <- %R1
	.loc	66 132 3 prologue_end   @ /root/Bela/projects/RNBO-KPStrong/rnbo/src/RNBO_ExternalLoader.cpp:132:3
	movw	r0, :lower16:console
	movt	r0, :upper16:console
	ldr	r0, [r0]
	.loc	66 132 12 is_stmt 0     @ /root/Bela/projects/RNBO-KPStrong/rnbo/src/RNBO_ExternalLoader.cpp:132:12
	ldr	r3, [r0]
	ldr	r3, [r3, #8]
	bx	r3
.Ltmp152:
.Lfunc_end12:
	.size	_ZN4RNBO10consolelogENS_8LogLevelEPKc, .Lfunc_end12-_ZN4RNBO10consolelogENS_8LogLevelEPKc
	.cfi_endproc
	.fnend

	.globl	_ZN4RNBO20getPlatformInterfaceEPPv
	.p2align	2
	.type	_ZN4RNBO20getPlatformInterfaceEPPv,%function
_ZN4RNBO20getPlatformInterfaceEPPv:     @ @_ZN4RNBO20getPlatformInterfaceEPPv
.Lfunc_begin13:
	.loc	66 136 0 is_stmt 1      @ /root/Bela/projects/RNBO-KPStrong/rnbo/src/RNBO_ExternalLoader.cpp:136:0
	.fnstart
	.cfi_startproc
@ BB#0:
	@DEBUG_VALUE: getPlatformInterface:platformInterface <- %R0
	.loc	31 63 11 prologue_end   @ /root/Bela/projects/RNBO-KPStrong/rnbo/common/RNBO_PlatformInterface.h:63:11
	movw	r1, :lower16:_ZZN4RNBO8Platform8instanceEvE9pInstance
	movt	r1, :upper16:_ZZN4RNBO8Platform8instanceEvE9pInstance
	ldr	r1, [r1]
.Ltmp153:
	.loc	66 137 22               @ /root/Bela/projects/RNBO-KPStrong/rnbo/src/RNBO_ExternalLoader.cpp:137:22
	str	r1, [r0]
	.loc	66 138 2                @ /root/Bela/projects/RNBO-KPStrong/rnbo/src/RNBO_ExternalLoader.cpp:138:2
	bx	lr
.Ltmp154:
.Lfunc_end13:
	.size	_ZN4RNBO20getPlatformInterfaceEPPv, .Lfunc_end13-_ZN4RNBO20getPlatformInterfaceEPPv
	.cfi_endproc
	.fnend

	.globl	_ZN4RNBO18hostFunctionGetterEPKc
	.p2align	2
	.type	_ZN4RNBO18hostFunctionGetterEPKc,%function
_ZN4RNBO18hostFunctionGetterEPKc:       @ @_ZN4RNBO18hostFunctionGetterEPKc
.Lfunc_begin14:
	.loc	66 141 0                @ /root/Bela/projects/RNBO-KPStrong/rnbo/src/RNBO_ExternalLoader.cpp:141:0
	.fnstart
	.cfi_startproc
@ BB#0:
	.save	{r4, r10, r11, lr}
	push	{r4, r10, r11, lr}
.Ltmp155:
	.cfi_def_cfa_offset 16
.Ltmp156:
	.cfi_offset lr, -4
.Ltmp157:
	.cfi_offset r11, -8
.Ltmp158:
	.cfi_offset r10, -12
.Ltmp159:
	.cfi_offset r4, -16
	.setfp	r11, sp, #8
	add	r11, sp, #8
.Ltmp160:
	.cfi_def_cfa r11, 8
	@DEBUG_VALUE: hostFunctionGetter:funcName <- %R0
.Ltmp161:
	.loc	66 144 7 prologue_end   @ /root/Bela/projects/RNBO-KPStrong/rnbo/src/RNBO_ExternalLoader.cpp:144:7
	movw	r1, :lower16:.L.str.3
	mov	r4, r0
.Ltmp162:
	@DEBUG_VALUE: hostFunctionGetter:funcName <- %R4
	movt	r1, :upper16:.L.str.3
	bl	strcmp
.Ltmp163:
	.loc	66 144 7 is_stmt 0      @ /root/Bela/projects/RNBO-KPStrong/rnbo/src/RNBO_ExternalLoader.cpp:144:7
	cmp	r0, #0
	beq	.LBB14_11
.Ltmp164:
@ BB#1:
	@DEBUG_VALUE: hostFunctionGetter:funcName <- %R4
	.loc	66 146 14 is_stmt 1 discriminator 1 @ /root/Bela/projects/RNBO-KPStrong/rnbo/src/RNBO_ExternalLoader.cpp:146:14
	movw	r1, :lower16:.L.str.4
	mov	r0, r4
	movt	r1, :upper16:.L.str.4
	bl	strcmp
	cmp	r0, #0
	beq	.LBB14_12
.Ltmp165:
@ BB#2:
	@DEBUG_VALUE: hostFunctionGetter:funcName <- %R4
	.loc	66 148 14 discriminator 1 @ /root/Bela/projects/RNBO-KPStrong/rnbo/src/RNBO_ExternalLoader.cpp:148:14
	movw	r1, :lower16:.L.str.5
	mov	r0, r4
	movt	r1, :upper16:.L.str.5
	bl	strcmp
	cmp	r0, #0
	beq	.LBB14_13
.Ltmp166:
@ BB#3:
	@DEBUG_VALUE: hostFunctionGetter:funcName <- %R4
	.loc	66 150 14 discriminator 1 @ /root/Bela/projects/RNBO-KPStrong/rnbo/src/RNBO_ExternalLoader.cpp:150:14
	movw	r1, :lower16:.L.str.6
	mov	r0, r4
	movt	r1, :upper16:.L.str.6
	bl	strcmp
	cmp	r0, #0
	beq	.LBB14_14
.Ltmp167:
@ BB#4:
	@DEBUG_VALUE: hostFunctionGetter:funcName <- %R4
	.loc	66 152 14 discriminator 1 @ /root/Bela/projects/RNBO-KPStrong/rnbo/src/RNBO_ExternalLoader.cpp:152:14
	movw	r1, :lower16:.L.str.7
	mov	r0, r4
	movt	r1, :upper16:.L.str.7
	bl	strcmp
	cmp	r0, #0
	beq	.LBB14_15
.Ltmp168:
@ BB#5:
	@DEBUG_VALUE: hostFunctionGetter:funcName <- %R4
	.loc	66 154 14 discriminator 1 @ /root/Bela/projects/RNBO-KPStrong/rnbo/src/RNBO_ExternalLoader.cpp:154:14
	movw	r1, :lower16:.L.str.8
	mov	r0, r4
	movt	r1, :upper16:.L.str.8
	bl	strcmp
	cmp	r0, #0
	beq	.LBB14_16
.Ltmp169:
@ BB#6:
	@DEBUG_VALUE: hostFunctionGetter:funcName <- %R4
	.loc	66 156 14 discriminator 1 @ /root/Bela/projects/RNBO-KPStrong/rnbo/src/RNBO_ExternalLoader.cpp:156:14
	movw	r1, :lower16:.L.str.9
	mov	r0, r4
	movt	r1, :upper16:.L.str.9
	bl	strcmp
	cmp	r0, #0
	beq	.LBB14_17
.Ltmp170:
@ BB#7:
	@DEBUG_VALUE: hostFunctionGetter:funcName <- %R4
	.loc	66 158 14 discriminator 1 @ /root/Bela/projects/RNBO-KPStrong/rnbo/src/RNBO_ExternalLoader.cpp:158:14
	movw	r1, :lower16:.L.str.10
	mov	r0, r4
	movt	r1, :upper16:.L.str.10
	bl	strcmp
	cmp	r0, #0
	beq	.LBB14_18
.Ltmp171:
@ BB#8:
	@DEBUG_VALUE: hostFunctionGetter:funcName <- %R4
	.loc	66 160 14 discriminator 1 @ /root/Bela/projects/RNBO-KPStrong/rnbo/src/RNBO_ExternalLoader.cpp:160:14
	movw	r1, :lower16:.L.str.11
	mov	r0, r4
	movt	r1, :upper16:.L.str.11
	bl	strcmp
	cmp	r0, #0
	beq	.LBB14_19
.Ltmp172:
@ BB#9:
	@DEBUG_VALUE: hostFunctionGetter:funcName <- %R4
	.loc	66 162 14 discriminator 1 @ /root/Bela/projects/RNBO-KPStrong/rnbo/src/RNBO_ExternalLoader.cpp:162:14
	movw	r1, :lower16:.L.str.12
	mov	r0, r4
	movt	r1, :upper16:.L.str.12
	bl	strcmp
	cmp	r0, #0
	beq	.LBB14_20
.Ltmp173:
@ BB#10:
	@DEBUG_VALUE: hostFunctionGetter:funcName <- %R4
	.loc	66 164 14 discriminator 1 @ /root/Bela/projects/RNBO-KPStrong/rnbo/src/RNBO_ExternalLoader.cpp:164:14
	movw	r1, :lower16:.L.str.13
	mov	r0, r4
	movt	r1, :upper16:.L.str.13
	bl	strcmp
.Ltmp174:
	@DEBUG_VALUE: hostFunctionGetter:rv <- %R1
	movw	r1, :lower16:_ZN4RNBO20getPlatformInterfaceEPPv
.Ltmp175:
	cmp	r0, #0
	movt	r1, :upper16:_ZN4RNBO20getPlatformInterfaceEPPv
.Ltmp176:
	@DEBUG_VALUE: hostFunctionGetter:rv <- undef
	movne	r1, #0
	mov	r0, r1
.Ltmp177:
	.loc	66 168 3                @ /root/Bela/projects/RNBO-KPStrong/rnbo/src/RNBO_ExternalLoader.cpp:168:3
	pop	{r4, r10, r11, pc}
.Ltmp178:
.LBB14_11:
	@DEBUG_VALUE: hostFunctionGetter:funcName <- %R4
	movw	r0, :lower16:_ZN4RNBO19getInterfaceVersionEPiS0_
	movt	r0, :upper16:_ZN4RNBO19getInterfaceVersionEPiS0_
	pop	{r4, r10, r11, pc}
.Ltmp179:
.LBB14_12:
	@DEBUG_VALUE: hostFunctionGetter:funcName <- %R4
	movw	r0, :lower16:_ZN4RNBO18scheduleClockEventEPvif
	movt	r0, :upper16:_ZN4RNBO18scheduleClockEventEPvif
	pop	{r4, r10, r11, pc}
.Ltmp180:
.LBB14_13:
	@DEBUG_VALUE: hostFunctionGetter:funcName <- %R4
	movw	r0, :lower16:_ZN4RNBO27scheduleClockEventWithValueEPviff
	movt	r0, :upper16:_ZN4RNBO27scheduleClockEventWithValueEPviff
	pop	{r4, r10, r11, pc}
.Ltmp181:
.LBB14_14:
	@DEBUG_VALUE: hostFunctionGetter:funcName <- %R4
	movw	r0, :lower16:_ZN4RNBO16flushClockEventsEPvib
	movt	r0, :upper16:_ZN4RNBO16flushClockEventsEPvib
	pop	{r4, r10, r11, pc}
.Ltmp182:
.LBB14_15:
	@DEBUG_VALUE: hostFunctionGetter:funcName <- %R4
	movw	r0, :lower16:_ZN4RNBO25flushClockEventsWithValueEPvifb
	movt	r0, :upper16:_ZN4RNBO25flushClockEventsWithValueEPvifb
	pop	{r4, r10, r11, pc}
.Ltmp183:
.LBB14_16:
	@DEBUG_VALUE: hostFunctionGetter:funcName <- %R4
	movw	r0, :lower16:_ZN4RNBO13sendMidiEventEPviiii
	movt	r0, :upper16:_ZN4RNBO13sendMidiEventEPviiii
	pop	{r4, r10, r11, pc}
.Ltmp184:
.LBB14_17:
	@DEBUG_VALUE: hostFunctionGetter:funcName <- %R4
	movw	r0, :lower16:_ZN4RNBO17sendMidiEventListEPviRKNS_8listbaseIfEE
	movt	r0, :upper16:_ZN4RNBO17sendMidiEventListEPviRKNS_8listbaseIfEE
	pop	{r4, r10, r11, pc}
.Ltmp185:
.LBB14_18:
	@DEBUG_VALUE: hostFunctionGetter:funcName <- %R4
	movw	r0, :lower16:_ZN4RNBO14getCurrentTimeEPv
	movt	r0, :upper16:_ZN4RNBO14getCurrentTimeEPv
	pop	{r4, r10, r11, pc}
.Ltmp186:
.LBB14_19:
	@DEBUG_VALUE: hostFunctionGetter:funcName <- %R4
	movw	r0, :lower16:_ZN4RNBO10sendOutletEPvS0_jfi
	movt	r0, :upper16:_ZN4RNBO10sendOutletEPvS0_jfi
	pop	{r4, r10, r11, pc}
.Ltmp187:
.LBB14_20:
	@DEBUG_VALUE: hostFunctionGetter:funcName <- %R4
	movw	r0, :lower16:_ZN4RNBO10consolelogENS_8LogLevelEPKc
	movt	r0, :upper16:_ZN4RNBO10consolelogENS_8LogLevelEPKc
	pop	{r4, r10, r11, pc}
.Ltmp188:
.Lfunc_end14:
	.size	_ZN4RNBO18hostFunctionGetterEPKc, .Lfunc_end14-_ZN4RNBO18hostFunctionGetterEPKc
	.cfi_endproc
	.fnend

	.globl	_ZN4RNBO16dummyExtFunctionEv
	.p2align	2
	.type	_ZN4RNBO16dummyExtFunctionEv,%function
_ZN4RNBO16dummyExtFunctionEv:           @ @_ZN4RNBO16dummyExtFunctionEv
.Lfunc_begin15:
	.loc	66 172 0                @ /root/Bela/projects/RNBO-KPStrong/rnbo/src/RNBO_ExternalLoader.cpp:172:0
	.fnstart
	.cfi_startproc
@ BB#0:
	.loc	66 175 2 prologue_end   @ /root/Bela/projects/RNBO-KPStrong/rnbo/src/RNBO_ExternalLoader.cpp:175:2
	bx	lr
.Ltmp189:
.Lfunc_end15:
	.size	_ZN4RNBO16dummyExtFunctionEv, .Lfunc_end15-_ZN4RNBO16dummyExtFunctionEv
	.cfi_endproc
	.fnend

	.globl	_ZN4RNBO14ExternalModuleC2EPKcS2_
	.p2align	2
	.type	_ZN4RNBO14ExternalModuleC2EPKcS2_,%function
_ZN4RNBO14ExternalModuleC2EPKcS2_:      @ @_ZN4RNBO14ExternalModuleC2EPKcS2_
.Lfunc_begin16:
	.loc	66 180 0                @ /root/Bela/projects/RNBO-KPStrong/rnbo/src/RNBO_ExternalLoader.cpp:180:0
	.fnstart
	.cfi_startproc
@ BB#0:
	.save	{r4, r5, r6, r7, r8, r10, r11, lr}
	push	{r4, r5, r6, r7, r8, r10, r11, lr}
.Ltmp198:
	.cfi_def_cfa_offset 32
.Ltmp199:
	.cfi_offset lr, -4
.Ltmp200:
	.cfi_offset r11, -8
.Ltmp201:
	.cfi_offset r10, -12
.Ltmp202:
	.cfi_offset r8, -16
.Ltmp203:
	.cfi_offset r7, -20
.Ltmp204:
	.cfi_offset r6, -24
.Ltmp205:
	.cfi_offset r5, -28
.Ltmp206:
	.cfi_offset r4, -32
	.setfp	r11, sp, #24
	add	r11, sp, #24
.Ltmp207:
	.cfi_def_cfa r11, 8
	@DEBUG_VALUE: ExternalModule:this <- %R0
	@DEBUG_VALUE: ExternalModule:dllName <- %R1
	@DEBUG_VALUE: ExternalModule:pathToDll <- %R2
	mov	r5, r0
.Ltmp208:
	@DEBUG_VALUE: ExternalModule:this <- %R5
	mov	r7, #0
.Ltmp209:
	.loc	5 32 44 prologue_end    @ /root/Bela/projects/RNBO-KPStrong/rnbo/common/RNBO_String.h:32:44
	mov	r4, r5
	str	r7, [r5, #88]
	str	r7, [r5, #92]
	mov	r8, r2
.Ltmp210:
	@DEBUG_VALUE: ExternalModule:pathToDll <- %R8
	str	r7, [r4, #84]!
.Ltmp211:
	@DEBUG_VALUE: copy:this <- %R4
	@DEBUG_VALUE: String:this <- %R4
	@DEBUG_VALUE: ~String:this <- %R4
	@DEBUG_VALUE: copy:origin <- %R1
	@DEBUG_VALUE: String:str <- %R1
	.loc	5 191 4                 @ /root/Bela/projects/RNBO-KPStrong/rnbo/common/RNBO_String.h:191:4
	mov	r0, r4
	bl	_ZN4RNBO6String6appendEPKc
.Ltmp212:
	.loc	5 32 44                 @ /root/Bela/projects/RNBO-KPStrong/rnbo/common/RNBO_String.h:32:44
	mov	r6, r5
	str	r7, [r6, #96]!
	str	r7, [r6, #4]
	str	r7, [r6, #8]
.Ltmp213:
	.loc	5 191 4                 @ /root/Bela/projects/RNBO-KPStrong/rnbo/common/RNBO_String.h:191:4
.Ltmp190:
.Ltmp214:
	@DEBUG_VALUE: copy:origin <- %R8
	@DEBUG_VALUE: String:str <- %R8
	mov	r0, r6
	mov	r1, r8
.Ltmp215:
	@DEBUG_VALUE: ExternalModule:pathToDll <- %R1
	bl	_ZN4RNBO6String6appendEPKc
.Ltmp216:
.Ltmp191:
.Ltmp217:
	@DEBUG_VALUE: copy:this <- %R6
	@DEBUG_VALUE: String:this <- %R6
	@DEBUG_VALUE: ~String:this <- %R6
@ BB#1:                                 @ %_ZN4RNBO6StringC2EPKc.exit
	@DEBUG_VALUE: ~String:this <- %R6
	@DEBUG_VALUE: String:this <- %R6
	@DEBUG_VALUE: copy:this <- %R6
	@DEBUG_VALUE: String:str <- %R8
	@DEBUG_VALUE: copy:origin <- %R8
	@DEBUG_VALUE: ~String:this <- %R4
	@DEBUG_VALUE: String:this <- %R4
	@DEBUG_VALUE: copy:this <- %R4
	@DEBUG_VALUE: ExternalModule:this <- %R5
	.loc	11 69 17                @ /root/Bela/projects/RNBO-KPStrong/rnbo/src/RNBO_ExternalLoader.h:69:17
	str	r7, [r5, #108]
.Ltmp218:
	.loc	66 181 14               @ /root/Bela/projects/RNBO-KPStrong/rnbo/src/RNBO_ExternalLoader.cpp:181:14
.Ltmp193:
	mov	r0, r5
	bl	_ZN4RNBO14ExternalModule4openEv
.Ltmp194:
.Ltmp219:
@ BB#2:
	@DEBUG_VALUE: ~String:this <- %R6
	@DEBUG_VALUE: String:this <- %R6
	@DEBUG_VALUE: copy:this <- %R6
	@DEBUG_VALUE: String:str <- %R8
	@DEBUG_VALUE: copy:origin <- %R8
	@DEBUG_VALUE: ~String:this <- %R4
	@DEBUG_VALUE: String:this <- %R4
	@DEBUG_VALUE: copy:this <- %R4
	@DEBUG_VALUE: ExternalModule:this <- %R5
	.loc	66 181 12 is_stmt 0 discriminator 1 @ /root/Bela/projects/RNBO-KPStrong/rnbo/src/RNBO_ExternalLoader.cpp:181:12
	mov	r0, #0
	strb	r0, [r5, #112]
	.loc	66 182 3 is_stmt 1      @ /root/Bela/projects/RNBO-KPStrong/rnbo/src/RNBO_ExternalLoader.cpp:182:3
.Ltmp195:
	mov	r0, r5
	bl	_ZN4RNBO14ExternalModule15getExtFunctionsEv
.Ltmp196:
.Ltmp220:
@ BB#3:
	@DEBUG_VALUE: ~String:this <- %R6
	@DEBUG_VALUE: String:this <- %R6
	@DEBUG_VALUE: copy:this <- %R6
	@DEBUG_VALUE: String:str <- %R8
	@DEBUG_VALUE: copy:origin <- %R8
	@DEBUG_VALUE: ~String:this <- %R4
	@DEBUG_VALUE: String:this <- %R4
	@DEBUG_VALUE: copy:this <- %R4
	@DEBUG_VALUE: ExternalModule:this <- %R5
	.loc	66 183 2                @ /root/Bela/projects/RNBO-KPStrong/rnbo/src/RNBO_ExternalLoader.cpp:183:2
	mov	r0, r5
	pop	{r4, r5, r6, r7, r8, r10, r11, pc}
.Ltmp221:
.LBB16_4:
	@DEBUG_VALUE: ~String:this <- %R6
	@DEBUG_VALUE: String:this <- %R6
	@DEBUG_VALUE: copy:this <- %R6
	@DEBUG_VALUE: String:str <- %R8
	@DEBUG_VALUE: copy:origin <- %R8
	@DEBUG_VALUE: ~String:this <- %R4
	@DEBUG_VALUE: String:this <- %R4
	@DEBUG_VALUE: copy:this <- %R4
	@DEBUG_VALUE: ExternalModule:this <- %R5
.Ltmp192:
	mov	r5, r0
.Ltmp222:
	b	.LBB16_7
.Ltmp223:
.LBB16_5:
	@DEBUG_VALUE: ~String:this <- %R6
	@DEBUG_VALUE: String:this <- %R6
	@DEBUG_VALUE: copy:this <- %R6
	@DEBUG_VALUE: String:str <- %R8
	@DEBUG_VALUE: copy:origin <- %R8
	@DEBUG_VALUE: ~String:this <- %R4
	@DEBUG_VALUE: String:this <- %R4
	@DEBUG_VALUE: copy:this <- %R4
	@DEBUG_VALUE: ExternalModule:this <- %R5
.Ltmp197:
	mov	r5, r0
.Ltmp224:
	.loc	5 44 24                 @ /root/Bela/projects/RNBO-KPStrong/rnbo/common/RNBO_String.h:44:24
	ldr	r0, [r6]
	.loc	5 44 15 is_stmt 0       @ /root/Bela/projects/RNBO-KPStrong/rnbo/common/RNBO_String.h:44:15
	cmp	r0, #0
	beq	.LBB16_7
.Ltmp225:
@ BB#6:
	@DEBUG_VALUE: ~String:this <- %R6
	@DEBUG_VALUE: String:this <- %R6
	@DEBUG_VALUE: copy:this <- %R6
	@DEBUG_VALUE: String:str <- %R8
	@DEBUG_VALUE: copy:origin <- %R8
	@DEBUG_VALUE: ~String:this <- %R4
	@DEBUG_VALUE: String:this <- %R4
	@DEBUG_VALUE: copy:this <- %R4
	.loc	5 44 15 discriminator 1 @ /root/Bela/projects/RNBO-KPStrong/rnbo/common/RNBO_String.h:44:15
	bl	_ZdaPv
.Ltmp226:
.LBB16_7:                               @ %_ZN4RNBO6StringD2Ev.exit
	@DEBUG_VALUE: ~String:this <- %R6
	@DEBUG_VALUE: String:this <- %R6
	@DEBUG_VALUE: copy:this <- %R6
	@DEBUG_VALUE: String:str <- %R8
	@DEBUG_VALUE: copy:origin <- %R8
	@DEBUG_VALUE: ~String:this <- %R4
	@DEBUG_VALUE: String:this <- %R4
	@DEBUG_VALUE: copy:this <- %R4
	.loc	5 44 24                 @ /root/Bela/projects/RNBO-KPStrong/rnbo/common/RNBO_String.h:44:24
	ldr	r0, [r4]
	.loc	5 44 15                 @ /root/Bela/projects/RNBO-KPStrong/rnbo/common/RNBO_String.h:44:15
	cmp	r0, #0
	beq	.LBB16_9
.Ltmp227:
@ BB#8:
	@DEBUG_VALUE: ~String:this <- %R6
	@DEBUG_VALUE: String:this <- %R6
	@DEBUG_VALUE: copy:this <- %R6
	@DEBUG_VALUE: String:str <- %R8
	@DEBUG_VALUE: copy:origin <- %R8
	@DEBUG_VALUE: ~String:this <- %R4
	@DEBUG_VALUE: String:this <- %R4
	@DEBUG_VALUE: copy:this <- %R4
	.loc	5 44 15 discriminator 1 @ /root/Bela/projects/RNBO-KPStrong/rnbo/common/RNBO_String.h:44:15
	bl	_ZdaPv
.Ltmp228:
.LBB16_9:                               @ %_ZN4RNBO6StringD2Ev.exit5
	@DEBUG_VALUE: ~String:this <- %R6
	@DEBUG_VALUE: String:this <- %R6
	@DEBUG_VALUE: copy:this <- %R6
	@DEBUG_VALUE: String:str <- %R8
	@DEBUG_VALUE: copy:origin <- %R8
	@DEBUG_VALUE: ~String:this <- %R4
	@DEBUG_VALUE: String:this <- %R4
	@DEBUG_VALUE: copy:this <- %R4
	mov	r0, r5
	mov	lr, pc
	b	_Unwind_Resume
.Lfunc_end16:
	.size	_ZN4RNBO14ExternalModuleC2EPKcS2_, .Lfunc_end16-_ZN4RNBO14ExternalModuleC2EPKcS2_
	.cfi_endproc
	.globl	__gxx_personality_v0
	.personality __gxx_personality_v0
	.handlerdata
	.p2align	2
GCC_except_table16:
.Lexception1:
	.byte	255                     @ @LPStart Encoding = omit
	.byte	0                       @ @TType Encoding = absptr
	.asciz	"\266\200\200"          @ @TType base offset
	.byte	3                       @ Call site Encoding = udata4
	.byte	52                      @ Call site table length
	.long	.Lfunc_begin16-.Lfunc_begin16 @ >> Call Site 1 <<
	.long	.Ltmp190-.Lfunc_begin16 @   Call between .Lfunc_begin16 and .Ltmp190
	.long	0                       @     has no landing pad
	.byte	0                       @   On action: cleanup
	.long	.Ltmp190-.Lfunc_begin16 @ >> Call Site 2 <<
	.long	.Ltmp191-.Ltmp190       @   Call between .Ltmp190 and .Ltmp191
	.long	.Ltmp192-.Lfunc_begin16 @     jumps to .Ltmp192
	.byte	0                       @   On action: cleanup
	.long	.Ltmp193-.Lfunc_begin16 @ >> Call Site 3 <<
	.long	.Ltmp196-.Ltmp193       @   Call between .Ltmp193 and .Ltmp196
	.long	.Ltmp197-.Lfunc_begin16 @     jumps to .Ltmp197
	.byte	0                       @   On action: cleanup
	.long	.Ltmp196-.Lfunc_begin16 @ >> Call Site 4 <<
	.long	.Lfunc_end16-.Ltmp196   @   Call between .Ltmp196 and .Lfunc_end16
	.long	0                       @     has no landing pad
	.byte	0                       @   On action: cleanup
	.p2align	2
	.fnend

	.globl	_ZN4RNBO14ExternalModule4openEv
	.p2align	2
	.type	_ZN4RNBO14ExternalModule4openEv,%function
_ZN4RNBO14ExternalModule4openEv:        @ @_ZN4RNBO14ExternalModule4openEv
.Lfunc_begin17:
	.loc	66 186 0 is_stmt 1      @ /root/Bela/projects/RNBO-KPStrong/rnbo/src/RNBO_ExternalLoader.cpp:186:0
	.fnstart
	.cfi_startproc
@ BB#0:
	.save	{r4, r5, r6, r7, r8, r9, r10, r11, lr}
	push	{r4, r5, r6, r7, r8, r9, r10, r11, lr}
.Ltmp254:
	.cfi_def_cfa_offset 36
.Ltmp255:
	.cfi_offset lr, -4
.Ltmp256:
	.cfi_offset r11, -8
.Ltmp257:
	.cfi_offset r10, -12
.Ltmp258:
	.cfi_offset r9, -16
.Ltmp259:
	.cfi_offset r8, -20
.Ltmp260:
	.cfi_offset r7, -24
.Ltmp261:
	.cfi_offset r6, -28
.Ltmp262:
	.cfi_offset r5, -32
.Ltmp263:
	.cfi_offset r4, -36
	.setfp	r11, sp, #28
	add	r11, sp, #28
.Ltmp264:
	.cfi_def_cfa r11, 8
	.pad	#12
	sub	sp, sp, #12
	@DEBUG_VALUE: open:this <- %R0
	mov	r4, r0
.Ltmp265:
	@DEBUG_VALUE: open:ok <- 0
	@DEBUG_VALUE: open:this <- %R4
	.loc	5 25 19 prologue_end    @ /root/Bela/projects/RNBO-KPStrong/rnbo/common/RNBO_String.h:25:19
	mov	r0, #1
	mov	r7, #1
	bl	_Znaj
	mov	r6, r0
.Ltmp266:
	@DEBUG_VALUE: oldptr <- %R6
	.loc	5 25 64 is_stmt 0       @ /root/Bela/projects/RNBO-KPStrong/rnbo/common/RNBO_String.h:25:64
	mov	r0, #0
	strb	r0, [r6]
.Ltmp267:
	@DEBUG_VALUE: append:astr <- %R8
	.loc	31 63 11 is_stmt 1      @ /root/Bela/projects/RNBO-KPStrong/rnbo/common/RNBO_PlatformInterface.h:63:11
	movw	r0, :lower16:_ZZN4RNBO8Platform8instanceEvE9pInstance
	movt	r0, :upper16:_ZZN4RNBO8Platform8instanceEvE9pInstance
	mov	r10, r6
	ldr	r0, [r0]
.Ltmp268:
	.loc	5 72 35                 @ /root/Bela/projects/RNBO-KPStrong/rnbo/common/RNBO_String.h:72:35
	ldr	r1, [r0]
	str	r4, [sp, #4]            @ 4-byte Spill
.Ltmp269:
	@DEBUG_VALUE: open:this <- [%SP+4]
	.loc	5 97 16                 @ /root/Bela/projects/RNBO-KPStrong/rnbo/common/RNBO_String.h:97:16
	ldr	r8, [r4, #96]
.Ltmp270:
	.loc	5 72 35                 @ /root/Bela/projects/RNBO-KPStrong/rnbo/common/RNBO_String.h:72:35
	ldr	r2, [r1, #44]
	.loc	5 72 35 is_stmt 0 discriminator 2 @ /root/Bela/projects/RNBO-KPStrong/rnbo/common/RNBO_String.h:72:35
.Ltmp229:
	mov	r1, r8
	blx	r2
.Ltmp271:
	mov	r5, r0
.Ltmp230:
.Ltmp272:
@ BB#1:                                 @ %.noexc
	@DEBUG_VALUE: oldptr <- %R6
	.loc	5 75 8 is_stmt 1        @ /root/Bela/projects/RNBO-KPStrong/rnbo/common/RNBO_String.h:75:8
	cmp	r5, #0
	beq	.LBB17_8
.Ltmp273:
@ BB#2:                                 @ %.preheader.i
	@DEBUG_VALUE: oldptr <- %R6
	mov	r7, #16
.Ltmp274:
	.loc	5 79 5 discriminator 1  @ /root/Bela/projects/RNBO-KPStrong/rnbo/common/RNBO_String.h:79:5
	cmp	r5, #16
	blo	.LBB17_5
.Ltmp275:
@ BB#3:                                 @ %.lr.ph.i.preheader
	@DEBUG_VALUE: oldptr <- %R6
	mov	r0, #16
.Ltmp276:
.LBB17_4:                               @ %.lr.ph.i
                                        @ =>This Inner Loop Header: Depth=1
	.loc	5 80 15                 @ /root/Bela/projects/RNBO-KPStrong/rnbo/common/RNBO_String.h:80:15
	lsl	r7, r0, #1
	.loc	5 79 5 discriminator 1  @ /root/Bela/projects/RNBO-KPStrong/rnbo/common/RNBO_String.h:79:5
	cmp	r5, r0, lsl #1
.Ltmp277:
	.loc	5 97 4                  @ /root/Bela/projects/RNBO-KPStrong/rnbo/common/RNBO_String.h:97:4
	mov	r0, r7
	bhs	.LBB17_4
.LBB17_5:                               @ %._crit_edge.i
.Ltmp278:
	.loc	5 81 12                 @ /root/Bela/projects/RNBO-KPStrong/rnbo/common/RNBO_String.h:81:12
.Ltmp231:
	mov	r0, r7
	mov	r10, r6
	bl	_Znaj
	mov	r9, r0
.Ltmp232:
.Ltmp279:
@ BB#6:                                 @ %.noexc3
	.loc	31 63 11                @ /root/Bela/projects/RNBO-KPStrong/rnbo/common/RNBO_PlatformInterface.h:63:11
	movw	r0, :lower16:_ZZN4RNBO8Platform8instanceEvE9pInstance
	movt	r0, :upper16:_ZZN4RNBO8Platform8instanceEvE9pInstance
.Ltmp280:
	.loc	31 63 11 is_stmt 0      @ /root/Bela/projects/RNBO-KPStrong/rnbo/common/RNBO_PlatformInterface.h:63:11
	ldr	r0, [r0]
.Ltmp281:
	.loc	5 82 22 is_stmt 1       @ /root/Bela/projects/RNBO-KPStrong/rnbo/common/RNBO_String.h:82:22
	ldr	r1, [r0]
	ldr	r4, [r1, #32]
	.loc	5 82 22 is_stmt 0 discriminator 1 @ /root/Bela/projects/RNBO-KPStrong/rnbo/common/RNBO_String.h:82:22
.Ltmp233:
	mov	r1, r9
	mov	r2, r6
	mov	r3, #0
	mov	r10, r9
	blx	r4
.Ltmp234:
@ BB#7:                                 @ %.noexc4
.Ltmp282:
	.loc	5 84 6 is_stmt 1 discriminator 1 @ /root/Bela/projects/RNBO-KPStrong/rnbo/common/RNBO_String.h:84:6
	mov	r0, r6
	bl	_ZdaPv
	b	.LBB17_9
.Ltmp283:
.LBB17_8:
	@DEBUG_VALUE: oldptr <- %R6
	mov	r9, r6
.Ltmp284:
.LBB17_9:                               @ %._crit_edge18.i
	@DEBUG_VALUE: append:newlen <- %R5
	.loc	31 63 11                @ /root/Bela/projects/RNBO-KPStrong/rnbo/common/RNBO_PlatformInterface.h:63:11
	movw	r0, :lower16:_ZZN4RNBO8Platform8instanceEvE9pInstance
	movt	r0, :upper16:_ZZN4RNBO8Platform8instanceEvE9pInstance
.Ltmp285:
	.loc	31 63 11 is_stmt 0      @ /root/Bela/projects/RNBO-KPStrong/rnbo/common/RNBO_PlatformInterface.h:63:11
	ldr	r0, [r0]
.Ltmp286:
	.loc	5 86 21 is_stmt 1       @ /root/Bela/projects/RNBO-KPStrong/rnbo/common/RNBO_String.h:86:21
	ldr	r1, [r0]
	ldr	r6, [r1, #32]
	.loc	5 86 21 is_stmt 0 discriminator 1 @ /root/Bela/projects/RNBO-KPStrong/rnbo/common/RNBO_String.h:86:21
.Ltmp235:
.Ltmp287:
	@DEBUG_VALUE: oldptr <- %R9
	mov	r1, r9
	mov	r2, r8
	mov	r3, r5
	mov	r10, r9
	blx	r6
.Ltmp236:
.Ltmp288:
@ BB#10:
	@DEBUG_VALUE: oldptr <- %R9
	@DEBUG_VALUE: append:newlen <- %R5
	.loc	5 87 17 is_stmt 1       @ /root/Bela/projects/RNBO-KPStrong/rnbo/common/RNBO_String.h:87:17
	mov	r0, #0
	mov	r10, r9
	strb	r0, [r9, r5]
.Ltmp289:
	.loc	31 63 11                @ /root/Bela/projects/RNBO-KPStrong/rnbo/common/RNBO_PlatformInterface.h:63:11
	movw	r0, :lower16:_ZZN4RNBO8Platform8instanceEvE9pInstance
	movt	r0, :upper16:_ZZN4RNBO8Platform8instanceEvE9pInstance
.Ltmp290:
	.loc	31 63 11 is_stmt 0      @ /root/Bela/projects/RNBO-KPStrong/rnbo/common/RNBO_PlatformInterface.h:63:11
	ldr	r0, [r0]
.Ltmp291:
	.loc	5 72 35 is_stmt 1       @ /root/Bela/projects/RNBO-KPStrong/rnbo/common/RNBO_String.h:72:35
	ldr	r1, [r0]
	ldr	r2, [r1, #44]
	.loc	5 72 35 is_stmt 0 discriminator 2 @ /root/Bela/projects/RNBO-KPStrong/rnbo/common/RNBO_String.h:72:35
.Ltmp237:
	movw	r1, :lower16:.L.str.14
	movt	r1, :upper16:.L.str.14
.Ltmp292:
	@DEBUG_VALUE: append:astr <- %R1
	blx	r2
.Ltmp293:
	str	r0, [sp, #8]            @ 4-byte Spill
.Ltmp238:
.Ltmp294:
@ BB#11:                                @ %.noexc12
	@DEBUG_VALUE: oldptr <- %R9
	@DEBUG_VALUE: append:newlen <- %R5
	.loc	5 73 25 is_stmt 1       @ /root/Bela/projects/RNBO-KPStrong/rnbo/common/RNBO_String.h:73:25
	ldr	r0, [sp, #8]            @ 4-byte Reload
	add	r6, r0, r5
.Ltmp295:
	@DEBUG_VALUE: append:newlen <- %R6
	.loc	5 75 8                  @ /root/Bela/projects/RNBO-KPStrong/rnbo/common/RNBO_String.h:75:8
	cmp	r6, r7
	bhs	.LBB17_13
.Ltmp296:
@ BB#12:
	@DEBUG_VALUE: append:newlen <- %R6
	@DEBUG_VALUE: oldptr <- %R9
	@DEBUG_VALUE: append:newlen <- %R5
	mov	r4, r7
	mov	r8, r9
	b	.LBB17_19
.Ltmp297:
.LBB17_13:                              @ %.preheader.i7
	@DEBUG_VALUE: append:newlen <- %R6
	@DEBUG_VALUE: oldptr <- %R9
	@DEBUG_VALUE: append:newlen <- %R5
	.loc	5 78 9                  @ /root/Bela/projects/RNBO-KPStrong/rnbo/common/RNBO_String.h:78:9
	cmp	r7, #16
	movwlo	r7, #16
	.loc	5 79 5 discriminator 1  @ /root/Bela/projects/RNBO-KPStrong/rnbo/common/RNBO_String.h:79:5
	cmp	r6, r7
	bhs	.LBB17_15
.Ltmp298:
@ BB#14:
	@DEBUG_VALUE: append:newlen <- %R6
	@DEBUG_VALUE: oldptr <- %R9
	@DEBUG_VALUE: append:newlen <- %R5
	mov	r4, r7
	b	.LBB17_16
.Ltmp299:
.LBB17_15:                              @ %.lr.ph.i8
                                        @ =>This Inner Loop Header: Depth=1
	.loc	5 80 15                 @ /root/Bela/projects/RNBO-KPStrong/rnbo/common/RNBO_String.h:80:15
	lsl	r4, r7, #1
	.loc	5 79 5 discriminator 1  @ /root/Bela/projects/RNBO-KPStrong/rnbo/common/RNBO_String.h:79:5
	cmp	r6, r7, lsl #1
.Ltmp300:
	.loc	66 191 15               @ /root/Bela/projects/RNBO-KPStrong/rnbo/src/RNBO_ExternalLoader.cpp:191:15
	mov	r7, r4
	bhs	.LBB17_15
.LBB17_16:                              @ %._crit_edge.i9
.Ltmp301:
	.loc	5 81 12                 @ /root/Bela/projects/RNBO-KPStrong/rnbo/common/RNBO_String.h:81:12
.Ltmp239:
	mov	r0, r4
	mov	r10, r9
	bl	_Znaj
	mov	r8, r0
.Ltmp240:
.Ltmp302:
@ BB#17:                                @ %.noexc13
	.loc	31 63 11                @ /root/Bela/projects/RNBO-KPStrong/rnbo/common/RNBO_PlatformInterface.h:63:11
	movw	r0, :lower16:_ZZN4RNBO8Platform8instanceEvE9pInstance
	movt	r0, :upper16:_ZZN4RNBO8Platform8instanceEvE9pInstance
.Ltmp303:
	.loc	31 63 11 is_stmt 0      @ /root/Bela/projects/RNBO-KPStrong/rnbo/common/RNBO_PlatformInterface.h:63:11
	ldr	r0, [r0]
.Ltmp304:
	.loc	5 82 22 is_stmt 1       @ /root/Bela/projects/RNBO-KPStrong/rnbo/common/RNBO_String.h:82:22
	ldr	r1, [r0]
	ldr	r12, [r1, #32]
	.loc	5 82 22 is_stmt 0 discriminator 1 @ /root/Bela/projects/RNBO-KPStrong/rnbo/common/RNBO_String.h:82:22
.Ltmp241:
	mov	r1, r8
	mov	r2, r9
	mov	r3, r5
	mov	r10, r8
	blx	r12
.Ltmp242:
@ BB#18:                                @ %.noexc14
.Ltmp305:
	.loc	5 84 6 is_stmt 1 discriminator 1 @ /root/Bela/projects/RNBO-KPStrong/rnbo/common/RNBO_String.h:84:6
	mov	r0, r9
	bl	_ZdaPv
.Ltmp306:
.LBB17_19:                              @ %._crit_edge18.i11
	@DEBUG_VALUE: append:alen <- [%SP+8]
	.loc	31 63 11                @ /root/Bela/projects/RNBO-KPStrong/rnbo/common/RNBO_PlatformInterface.h:63:11
	movw	r0, :lower16:_ZZN4RNBO8Platform8instanceEvE9pInstance
	movt	r0, :upper16:_ZZN4RNBO8Platform8instanceEvE9pInstance
.Ltmp307:
	.loc	31 63 11 is_stmt 0      @ /root/Bela/projects/RNBO-KPStrong/rnbo/common/RNBO_PlatformInterface.h:63:11
	ldr	r0, [r0]
.Ltmp308:
	.loc	5 86 21 is_stmt 1       @ /root/Bela/projects/RNBO-KPStrong/rnbo/common/RNBO_String.h:86:21
	ldr	r1, [r0]
	ldr	r7, [r1, #32]
.Ltmp309:
	@DEBUG_VALUE: oldptr <- %R8
	.loc	5 86 33 is_stmt 0       @ /root/Bela/projects/RNBO-KPStrong/rnbo/common/RNBO_String.h:86:33
	add	r1, r8, r5
	.loc	5 86 21 discriminator 1 @ /root/Bela/projects/RNBO-KPStrong/rnbo/common/RNBO_String.h:86:21
.Ltmp243:
	ldr	r3, [sp, #8]            @ 4-byte Reload
	movw	r2, :lower16:.L.str.14
	movt	r2, :upper16:.L.str.14
	mov	r10, r8
	blx	r7
.Ltmp310:
.Ltmp244:
.Ltmp311:
@ BB#20:
	@DEBUG_VALUE: oldptr <- %R8
	.loc	5 87 17 is_stmt 1       @ /root/Bela/projects/RNBO-KPStrong/rnbo/common/RNBO_String.h:87:17
	mov	r0, #0
.Ltmp312:
	.loc	5 97 16                 @ /root/Bela/projects/RNBO-KPStrong/rnbo/common/RNBO_String.h:97:16
	ldr	r2, [sp, #4]            @ 4-byte Reload
.Ltmp313:
	.loc	5 87 17                 @ /root/Bela/projects/RNBO-KPStrong/rnbo/common/RNBO_String.h:87:17
	strb	r0, [r8, r6]
.Ltmp314:
	@DEBUG_VALUE: append:astr <- %R9
	.loc	31 63 11                @ /root/Bela/projects/RNBO-KPStrong/rnbo/common/RNBO_PlatformInterface.h:63:11
	movw	r0, :lower16:_ZZN4RNBO8Platform8instanceEvE9pInstance
	movt	r0, :upper16:_ZZN4RNBO8Platform8instanceEvE9pInstance
.Ltmp315:
	.loc	31 63 11 is_stmt 0      @ /root/Bela/projects/RNBO-KPStrong/rnbo/common/RNBO_PlatformInterface.h:63:11
	ldr	r0, [r0]
	mov	r10, r8
.Ltmp316:
	.loc	5 97 16 is_stmt 1       @ /root/Bela/projects/RNBO-KPStrong/rnbo/common/RNBO_String.h:97:16
	ldr	r9, [r2, #84]
.Ltmp317:
	.loc	5 72 35                 @ /root/Bela/projects/RNBO-KPStrong/rnbo/common/RNBO_String.h:72:35
	ldr	r1, [r0]
	ldr	r2, [r1, #44]
	.loc	5 72 35 is_stmt 0 discriminator 2 @ /root/Bela/projects/RNBO-KPStrong/rnbo/common/RNBO_String.h:72:35
.Ltmp245:
	mov	r1, r9
	blx	r2
	mov	r5, r0
.Ltmp246:
.Ltmp318:
@ BB#21:                                @ %.noexc25
	@DEBUG_VALUE: oldptr <- %R8
	.loc	5 73 25 is_stmt 1       @ /root/Bela/projects/RNBO-KPStrong/rnbo/common/RNBO_String.h:73:25
	add	r1, r5, r6
.Ltmp319:
	@DEBUG_VALUE: append:newlen <- %R1
	.loc	5 75 8                  @ /root/Bela/projects/RNBO-KPStrong/rnbo/common/RNBO_String.h:75:8
	cmp	r1, r4
	bhs	.LBB17_23
.Ltmp320:
@ BB#22:
	@DEBUG_VALUE: append:newlen <- %R1
	@DEBUG_VALUE: oldptr <- %R8
	mov	r10, r8
	b	.LBB17_29
.Ltmp321:
.LBB17_23:                              @ %.preheader.i20
	@DEBUG_VALUE: append:newlen <- %R1
	@DEBUG_VALUE: oldptr <- %R8
	.loc	5 78 9                  @ /root/Bela/projects/RNBO-KPStrong/rnbo/common/RNBO_String.h:78:9
	cmp	r4, #16
	movwlo	r4, #16
	.loc	5 79 5 discriminator 1  @ /root/Bela/projects/RNBO-KPStrong/rnbo/common/RNBO_String.h:79:5
	cmp	r1, r4
	bhs	.LBB17_25
.Ltmp322:
@ BB#24:
	@DEBUG_VALUE: append:newlen <- %R1
	@DEBUG_VALUE: oldptr <- %R8
	.loc	5 97 4                  @ /root/Bela/projects/RNBO-KPStrong/rnbo/common/RNBO_String.h:97:4
	mov	r0, r4
	b	.LBB17_26
.Ltmp323:
.LBB17_25:                              @ %.lr.ph.i21
                                        @ =>This Inner Loop Header: Depth=1
	.loc	5 80 15                 @ /root/Bela/projects/RNBO-KPStrong/rnbo/common/RNBO_String.h:80:15
	lsl	r0, r4, #1
	.loc	5 79 5 discriminator 1  @ /root/Bela/projects/RNBO-KPStrong/rnbo/common/RNBO_String.h:79:5
	cmp	r1, r4, lsl #1
.Ltmp324:
	.loc	5 97 4                  @ /root/Bela/projects/RNBO-KPStrong/rnbo/common/RNBO_String.h:97:4
	mov	r4, r0
	bhs	.LBB17_25
.LBB17_26:                              @ %._crit_edge.i22
.Ltmp325:
	.loc	5 81 12                 @ /root/Bela/projects/RNBO-KPStrong/rnbo/common/RNBO_String.h:81:12
.Ltmp247:
	mov	r10, r8
	bl	_Znaj
	mov	r4, r0
.Ltmp248:
.Ltmp326:
@ BB#27:                                @ %.noexc26
	.loc	31 63 11                @ /root/Bela/projects/RNBO-KPStrong/rnbo/common/RNBO_PlatformInterface.h:63:11
	movw	r0, :lower16:_ZZN4RNBO8Platform8instanceEvE9pInstance
	movt	r0, :upper16:_ZZN4RNBO8Platform8instanceEvE9pInstance
.Ltmp327:
	.loc	31 63 11 is_stmt 0      @ /root/Bela/projects/RNBO-KPStrong/rnbo/common/RNBO_PlatformInterface.h:63:11
	ldr	r0, [r0]
.Ltmp328:
	.loc	5 82 22 is_stmt 1       @ /root/Bela/projects/RNBO-KPStrong/rnbo/common/RNBO_String.h:82:22
	ldr	r1, [r0]
	ldr	r7, [r1, #32]
	.loc	5 82 22 is_stmt 0 discriminator 1 @ /root/Bela/projects/RNBO-KPStrong/rnbo/common/RNBO_String.h:82:22
.Ltmp249:
	mov	r1, r4
	mov	r2, r8
	mov	r3, r6
	mov	r10, r4
	blx	r7
.Ltmp250:
@ BB#28:                                @ %.noexc27
.Ltmp329:
	.loc	5 84 6 is_stmt 1 discriminator 1 @ /root/Bela/projects/RNBO-KPStrong/rnbo/common/RNBO_String.h:84:6
	mov	r0, r8
	bl	_ZdaPv
	mov	r10, r4
.Ltmp330:
.LBB17_29:                              @ %._crit_edge18.i24
	@DEBUG_VALUE: append:alen <- %R5
	.loc	31 63 11                @ /root/Bela/projects/RNBO-KPStrong/rnbo/common/RNBO_PlatformInterface.h:63:11
	movw	r0, :lower16:_ZZN4RNBO8Platform8instanceEvE9pInstance
	movt	r0, :upper16:_ZZN4RNBO8Platform8instanceEvE9pInstance
.Ltmp331:
	.loc	31 63 11 is_stmt 0      @ /root/Bela/projects/RNBO-KPStrong/rnbo/common/RNBO_PlatformInterface.h:63:11
	ldr	r0, [r0]
.Ltmp332:
	.loc	5 86 21 is_stmt 1       @ /root/Bela/projects/RNBO-KPStrong/rnbo/common/RNBO_String.h:86:21
	ldr	r1, [r0]
	ldr	r7, [r1, #32]
	.loc	5 86 33 is_stmt 0       @ /root/Bela/projects/RNBO-KPStrong/rnbo/common/RNBO_String.h:86:33
	add	r1, r10, r6
	.loc	5 86 21 discriminator 1 @ /root/Bela/projects/RNBO-KPStrong/rnbo/common/RNBO_String.h:86:21
.Ltmp251:
	mov	r2, r9
	mov	r3, r5
	blx	r7
.Ltmp252:
.Ltmp333:
@ BB#30:                                @ %_ZN4RNBO6StringD2Ev.exit
	@DEBUG_VALUE: append:alen <- %R5
	.loc	5 44 15 is_stmt 1 discriminator 1 @ /root/Bela/projects/RNBO-KPStrong/rnbo/common/RNBO_String.h:44:15
	mov	r0, r10
	bl	_ZdaPv
.Ltmp334:
	.loc	66 225 2                @ /root/Bela/projects/RNBO-KPStrong/rnbo/src/RNBO_ExternalLoader.cpp:225:2
	mov	r0, #0
	sub	sp, r11, #28
	pop	{r4, r5, r6, r7, r8, r9, r10, r11, pc}
.Ltmp335:
.LBB17_31:                              @ %_ZN4RNBO6StringD2Ev.exit30
.Ltmp253:
	mov	r4, r0
.Ltmp336:
	.loc	5 44 15 discriminator 1 @ /root/Bela/projects/RNBO-KPStrong/rnbo/common/RNBO_String.h:44:15
	mov	r0, r10
	bl	_ZdaPv
	mov	r0, r4
	mov	lr, pc
	b	_Unwind_Resume
.Ltmp337:
.Lfunc_end17:
	.size	_ZN4RNBO14ExternalModule4openEv, .Lfunc_end17-_ZN4RNBO14ExternalModule4openEv
	.cfi_endproc
	.globl	__gxx_personality_v0
	.personality __gxx_personality_v0
	.handlerdata
	.p2align	2
GCC_except_table17:
.Lexception2:
	.byte	255                     @ @LPStart Encoding = omit
	.byte	0                       @ @TType Encoding = absptr
	.byte	41                      @ @TType base offset
	.byte	3                       @ Call site Encoding = udata4
	.byte	39                      @ Call site table length
	.long	.Lfunc_begin17-.Lfunc_begin17 @ >> Call Site 1 <<
	.long	.Ltmp229-.Lfunc_begin17 @   Call between .Lfunc_begin17 and .Ltmp229
	.long	0                       @     has no landing pad
	.byte	0                       @   On action: cleanup
	.long	.Ltmp229-.Lfunc_begin17 @ >> Call Site 2 <<
	.long	.Ltmp252-.Ltmp229       @   Call between .Ltmp229 and .Ltmp252
	.long	.Ltmp253-.Lfunc_begin17 @     jumps to .Ltmp253
	.byte	0                       @   On action: cleanup
	.long	.Ltmp252-.Lfunc_begin17 @ >> Call Site 3 <<
	.long	.Lfunc_end17-.Ltmp252   @   Call between .Ltmp252 and .Lfunc_end17
	.long	0                       @     has no landing pad
	.byte	0                       @   On action: cleanup
	.p2align	2
	.fnend

	.globl	_ZN4RNBO14ExternalModule15getExtFunctionsEv
	.p2align	2
	.type	_ZN4RNBO14ExternalModule15getExtFunctionsEv,%function
_ZN4RNBO14ExternalModule15getExtFunctionsEv: @ @_ZN4RNBO14ExternalModule15getExtFunctionsEv
.Lfunc_begin18:
	.loc	66 255 0                @ /root/Bela/projects/RNBO-KPStrong/rnbo/src/RNBO_ExternalLoader.cpp:255:0
	.fnstart
	.cfi_startproc
@ BB#0:
	.save	{r4, r5, r11, lr}
	push	{r4, r5, r11, lr}
.Ltmp338:
	.cfi_def_cfa_offset 16
.Ltmp339:
	.cfi_offset lr, -4
.Ltmp340:
	.cfi_offset r11, -8
.Ltmp341:
	.cfi_offset r5, -12
.Ltmp342:
	.cfi_offset r4, -16
	.setfp	r11, sp, #8
	add	r11, sp, #8
.Ltmp343:
	.cfi_def_cfa r11, 8
	@DEBUG_VALUE: getExtFunctions:this <- %R0
	mov	r4, r0
.Ltmp344:
	@DEBUG_VALUE: getExtFunction:this <- %R4
	@DEBUG_VALUE: getExtFunctions:this <- %R4
	.loc	66 243 7 prologue_end   @ /root/Bela/projects/RNBO-KPStrong/rnbo/src/RNBO_ExternalLoader.cpp:243:7
	ldr	r1, [r4, #108]
.Ltmp345:
	.loc	66 243 7 is_stmt 0      @ /root/Bela/projects/RNBO-KPStrong/rnbo/src/RNBO_ExternalLoader.cpp:243:7
	cmp	r1, #0
	beq	.LBB18_21
.Ltmp346:
@ BB#1:                                 @ %_ZN4RNBO14ExternalModule14getExtFunctionEPKc.exit
	@DEBUG_VALUE: getExtFunctions:this <- %R4
	@DEBUG_VALUE: getExtFunction:this <- %R4
	.loc	66 244 11 is_stmt 1     @ /root/Bela/projects/RNBO-KPStrong/rnbo/src/RNBO_ExternalLoader.cpp:244:11
	movw	r0, :lower16:.L.str.15
	movt	r0, :upper16:.L.str.15
.Ltmp347:
	@DEBUG_VALUE: getExtFunction:name <- %R0
	blx	r1
.Ltmp348:
	@DEBUG_VALUE: getExtFunction:func <- %R0
	.loc	66 247 7                @ /root/Bela/projects/RNBO-KPStrong/rnbo/src/RNBO_ExternalLoader.cpp:247:7
	movw	r5, :lower16:_ZN4RNBO16dummyExtFunctionEv
.Ltmp349:
	.loc	66 243 7                @ /root/Bela/projects/RNBO-KPStrong/rnbo/src/RNBO_ExternalLoader.cpp:243:7
	ldr	r1, [r4, #108]
.Ltmp350:
	.loc	66 247 7                @ /root/Bela/projects/RNBO-KPStrong/rnbo/src/RNBO_ExternalLoader.cpp:247:7
	movt	r5, :upper16:_ZN4RNBO16dummyExtFunctionEv
	cmp	r0, #0
	moveq	r0, r5
.Ltmp351:
	.loc	66 243 7                @ /root/Bela/projects/RNBO-KPStrong/rnbo/src/RNBO_ExternalLoader.cpp:243:7
	cmp	r1, #0
.Ltmp352:
	@DEBUG_VALUE: getExtFunction:func <- %R5
	.loc	66 256 23               @ /root/Bela/projects/RNBO-KPStrong/rnbo/src/RNBO_ExternalLoader.cpp:256:23
	str	r0, [r4, #4]
	beq	.LBB18_22
.Ltmp353:
@ BB#2:                                 @ %_ZN4RNBO14ExternalModule14getExtFunctionEPKc.exit3
	@DEBUG_VALUE: getExtFunction:func <- %R5
	@DEBUG_VALUE: getExtFunctions:this <- %R4
	@DEBUG_VALUE: getExtFunction:this <- %R4
	.loc	66 244 11               @ /root/Bela/projects/RNBO-KPStrong/rnbo/src/RNBO_ExternalLoader.cpp:244:11
	movw	r0, :lower16:.L.str.16
	movt	r0, :upper16:.L.str.16
.Ltmp354:
	@DEBUG_VALUE: getExtFunction:name <- %R0
	blx	r1
.Ltmp355:
	@DEBUG_VALUE: getExtFunction:func <- %R0
	.loc	66 243 7                @ /root/Bela/projects/RNBO-KPStrong/rnbo/src/RNBO_ExternalLoader.cpp:243:7
	ldr	r1, [r4, #108]
.Ltmp356:
	.loc	66 247 7                @ /root/Bela/projects/RNBO-KPStrong/rnbo/src/RNBO_ExternalLoader.cpp:247:7
	cmp	r0, #0
	moveq	r0, r5
.Ltmp357:
	.loc	66 257 23               @ /root/Bela/projects/RNBO-KPStrong/rnbo/src/RNBO_ExternalLoader.cpp:257:23
	str	r0, [r4, #8]
.Ltmp358:
	.loc	66 243 7                @ /root/Bela/projects/RNBO-KPStrong/rnbo/src/RNBO_ExternalLoader.cpp:243:7
	cmp	r1, #0
.Ltmp359:
	@DEBUG_VALUE: getExtFunction:func <- %R5
	@DEBUG_VALUE: getExtFunction:this <- %R4
	beq	.LBB18_23
.Ltmp360:
@ BB#3:                                 @ %_ZN4RNBO14ExternalModule14getExtFunctionEPKc.exit6
	@DEBUG_VALUE: getExtFunction:this <- %R4
	@DEBUG_VALUE: getExtFunction:func <- %R5
	@DEBUG_VALUE: getExtFunction:func <- %R5
	@DEBUG_VALUE: getExtFunctions:this <- %R4
	@DEBUG_VALUE: getExtFunction:this <- %R4
	.loc	66 244 11               @ /root/Bela/projects/RNBO-KPStrong/rnbo/src/RNBO_ExternalLoader.cpp:244:11
	movw	r0, :lower16:.L.str.17
	movt	r0, :upper16:.L.str.17
.Ltmp361:
	@DEBUG_VALUE: getExtFunction:name <- %R0
	blx	r1
.Ltmp362:
	@DEBUG_VALUE: getExtFunction:func <- %R0
	.loc	66 243 7                @ /root/Bela/projects/RNBO-KPStrong/rnbo/src/RNBO_ExternalLoader.cpp:243:7
	ldr	r1, [r4, #108]
.Ltmp363:
	.loc	66 247 7                @ /root/Bela/projects/RNBO-KPStrong/rnbo/src/RNBO_ExternalLoader.cpp:247:7
	cmp	r0, #0
	moveq	r0, r5
.Ltmp364:
	.loc	66 259 19               @ /root/Bela/projects/RNBO-KPStrong/rnbo/src/RNBO_ExternalLoader.cpp:259:19
	str	r0, [r4, #12]
.Ltmp365:
	.loc	66 243 7                @ /root/Bela/projects/RNBO-KPStrong/rnbo/src/RNBO_ExternalLoader.cpp:243:7
	cmp	r1, #0
.Ltmp366:
	@DEBUG_VALUE: getExtFunction:func <- %R5
	@DEBUG_VALUE: getExtFunction:this <- %R4
	beq	.LBB18_24
.Ltmp367:
@ BB#4:                                 @ %_ZN4RNBO14ExternalModule14getExtFunctionEPKc.exit9
	@DEBUG_VALUE: getExtFunction:this <- %R4
	@DEBUG_VALUE: getExtFunction:func <- %R5
	@DEBUG_VALUE: getExtFunction:this <- %R4
	@DEBUG_VALUE: getExtFunction:func <- %R5
	@DEBUG_VALUE: getExtFunction:func <- %R5
	@DEBUG_VALUE: getExtFunctions:this <- %R4
	@DEBUG_VALUE: getExtFunction:this <- %R4
	.loc	66 244 11               @ /root/Bela/projects/RNBO-KPStrong/rnbo/src/RNBO_ExternalLoader.cpp:244:11
	movw	r0, :lower16:.L.str.18
	movt	r0, :upper16:.L.str.18
.Ltmp368:
	@DEBUG_VALUE: getExtFunction:name <- %R0
	blx	r1
.Ltmp369:
	@DEBUG_VALUE: getExtFunction:func <- %R0
	.loc	66 243 7                @ /root/Bela/projects/RNBO-KPStrong/rnbo/src/RNBO_ExternalLoader.cpp:243:7
	ldr	r1, [r4, #108]
.Ltmp370:
	.loc	66 247 7                @ /root/Bela/projects/RNBO-KPStrong/rnbo/src/RNBO_ExternalLoader.cpp:247:7
	cmp	r0, #0
	moveq	r0, r5
.Ltmp371:
	.loc	66 261 29               @ /root/Bela/projects/RNBO-KPStrong/rnbo/src/RNBO_ExternalLoader.cpp:261:29
	str	r0, [r4, #16]
.Ltmp372:
	.loc	66 243 7                @ /root/Bela/projects/RNBO-KPStrong/rnbo/src/RNBO_ExternalLoader.cpp:243:7
	cmp	r1, #0
.Ltmp373:
	@DEBUG_VALUE: getExtFunction:func <- %R5
	@DEBUG_VALUE: getExtFunction:this <- %R4
	beq	.LBB18_25
.Ltmp374:
@ BB#5:                                 @ %_ZN4RNBO14ExternalModule14getExtFunctionEPKc.exit12
	@DEBUG_VALUE: getExtFunction:this <- %R4
	@DEBUG_VALUE: getExtFunction:func <- %R5
	@DEBUG_VALUE: getExtFunction:this <- %R4
	@DEBUG_VALUE: getExtFunction:func <- %R5
	@DEBUG_VALUE: getExtFunction:this <- %R4
	@DEBUG_VALUE: getExtFunction:func <- %R5
	@DEBUG_VALUE: getExtFunction:func <- %R5
	@DEBUG_VALUE: getExtFunctions:this <- %R4
	@DEBUG_VALUE: getExtFunction:this <- %R4
	.loc	66 244 11               @ /root/Bela/projects/RNBO-KPStrong/rnbo/src/RNBO_ExternalLoader.cpp:244:11
	movw	r0, :lower16:.L.str.19
	movt	r0, :upper16:.L.str.19
.Ltmp375:
	@DEBUG_VALUE: getExtFunction:name <- %R0
	blx	r1
.Ltmp376:
	@DEBUG_VALUE: getExtFunction:func <- %R0
	.loc	66 243 7                @ /root/Bela/projects/RNBO-KPStrong/rnbo/src/RNBO_ExternalLoader.cpp:243:7
	ldr	r1, [r4, #108]
.Ltmp377:
	.loc	66 247 7                @ /root/Bela/projects/RNBO-KPStrong/rnbo/src/RNBO_ExternalLoader.cpp:247:7
	cmp	r0, #0
	moveq	r0, r5
.Ltmp378:
	.loc	66 262 30               @ /root/Bela/projects/RNBO-KPStrong/rnbo/src/RNBO_ExternalLoader.cpp:262:30
	str	r0, [r4, #20]
.Ltmp379:
	.loc	66 243 7                @ /root/Bela/projects/RNBO-KPStrong/rnbo/src/RNBO_ExternalLoader.cpp:243:7
	cmp	r1, #0
.Ltmp380:
	@DEBUG_VALUE: getExtFunction:func <- %R5
	@DEBUG_VALUE: getExtFunction:this <- %R4
	beq	.LBB18_26
.Ltmp381:
@ BB#6:                                 @ %_ZN4RNBO14ExternalModule14getExtFunctionEPKc.exit15
	@DEBUG_VALUE: getExtFunction:this <- %R4
	@DEBUG_VALUE: getExtFunction:func <- %R5
	@DEBUG_VALUE: getExtFunction:this <- %R4
	@DEBUG_VALUE: getExtFunction:func <- %R5
	@DEBUG_VALUE: getExtFunction:this <- %R4
	@DEBUG_VALUE: getExtFunction:func <- %R5
	@DEBUG_VALUE: getExtFunction:this <- %R4
	@DEBUG_VALUE: getExtFunction:func <- %R5
	@DEBUG_VALUE: getExtFunction:func <- %R5
	@DEBUG_VALUE: getExtFunctions:this <- %R4
	@DEBUG_VALUE: getExtFunction:this <- %R4
	.loc	66 244 11               @ /root/Bela/projects/RNBO-KPStrong/rnbo/src/RNBO_ExternalLoader.cpp:244:11
	movw	r0, :lower16:.L.str.20
	movt	r0, :upper16:.L.str.20
.Ltmp382:
	@DEBUG_VALUE: getExtFunction:name <- %R0
	blx	r1
.Ltmp383:
	@DEBUG_VALUE: getExtFunction:func <- %R0
	.loc	66 243 7                @ /root/Bela/projects/RNBO-KPStrong/rnbo/src/RNBO_ExternalLoader.cpp:243:7
	ldr	r1, [r4, #108]
.Ltmp384:
	.loc	66 247 7                @ /root/Bela/projects/RNBO-KPStrong/rnbo/src/RNBO_ExternalLoader.cpp:247:7
	cmp	r0, #0
	moveq	r0, r5
.Ltmp385:
	.loc	66 263 25               @ /root/Bela/projects/RNBO-KPStrong/rnbo/src/RNBO_ExternalLoader.cpp:263:25
	str	r0, [r4, #24]
.Ltmp386:
	.loc	66 243 7                @ /root/Bela/projects/RNBO-KPStrong/rnbo/src/RNBO_ExternalLoader.cpp:243:7
	cmp	r1, #0
.Ltmp387:
	@DEBUG_VALUE: getExtFunction:func <- %R5
	@DEBUG_VALUE: getExtFunction:this <- %R4
	beq	.LBB18_27
.Ltmp388:
@ BB#7:                                 @ %_ZN4RNBO14ExternalModule14getExtFunctionEPKc.exit18
	@DEBUG_VALUE: getExtFunction:this <- %R4
	@DEBUG_VALUE: getExtFunction:func <- %R5
	@DEBUG_VALUE: getExtFunction:this <- %R4
	@DEBUG_VALUE: getExtFunction:func <- %R5
	@DEBUG_VALUE: getExtFunction:this <- %R4
	@DEBUG_VALUE: getExtFunction:func <- %R5
	@DEBUG_VALUE: getExtFunction:this <- %R4
	@DEBUG_VALUE: getExtFunction:func <- %R5
	@DEBUG_VALUE: getExtFunction:this <- %R4
	@DEBUG_VALUE: getExtFunction:func <- %R5
	@DEBUG_VALUE: getExtFunction:func <- %R5
	@DEBUG_VALUE: getExtFunctions:this <- %R4
	@DEBUG_VALUE: getExtFunction:this <- %R4
	.loc	66 244 11               @ /root/Bela/projects/RNBO-KPStrong/rnbo/src/RNBO_ExternalLoader.cpp:244:11
	movw	r0, :lower16:.L.str.21
	movt	r0, :upper16:.L.str.21
.Ltmp389:
	@DEBUG_VALUE: getExtFunction:name <- %R0
	blx	r1
.Ltmp390:
	@DEBUG_VALUE: getExtFunction:func <- %R0
	.loc	66 243 7                @ /root/Bela/projects/RNBO-KPStrong/rnbo/src/RNBO_ExternalLoader.cpp:243:7
	ldr	r1, [r4, #108]
.Ltmp391:
	.loc	66 247 7                @ /root/Bela/projects/RNBO-KPStrong/rnbo/src/RNBO_ExternalLoader.cpp:247:7
	cmp	r0, #0
	moveq	r0, r5
.Ltmp392:
	.loc	66 264 25               @ /root/Bela/projects/RNBO-KPStrong/rnbo/src/RNBO_ExternalLoader.cpp:264:25
	str	r0, [r4, #28]
.Ltmp393:
	.loc	66 243 7                @ /root/Bela/projects/RNBO-KPStrong/rnbo/src/RNBO_ExternalLoader.cpp:243:7
	cmp	r1, #0
.Ltmp394:
	@DEBUG_VALUE: getExtFunction:func <- %R5
	@DEBUG_VALUE: getExtFunction:this <- %R4
	beq	.LBB18_28
.Ltmp395:
@ BB#8:                                 @ %_ZN4RNBO14ExternalModule14getExtFunctionEPKc.exit21
	@DEBUG_VALUE: getExtFunction:this <- %R4
	@DEBUG_VALUE: getExtFunction:func <- %R5
	@DEBUG_VALUE: getExtFunction:this <- %R4
	@DEBUG_VALUE: getExtFunction:func <- %R5
	@DEBUG_VALUE: getExtFunction:this <- %R4
	@DEBUG_VALUE: getExtFunction:func <- %R5
	@DEBUG_VALUE: getExtFunction:this <- %R4
	@DEBUG_VALUE: getExtFunction:func <- %R5
	@DEBUG_VALUE: getExtFunction:this <- %R4
	@DEBUG_VALUE: getExtFunction:func <- %R5
	@DEBUG_VALUE: getExtFunction:this <- %R4
	@DEBUG_VALUE: getExtFunction:func <- %R5
	@DEBUG_VALUE: getExtFunction:func <- %R5
	@DEBUG_VALUE: getExtFunctions:this <- %R4
	@DEBUG_VALUE: getExtFunction:this <- %R4
	.loc	66 244 11               @ /root/Bela/projects/RNBO-KPStrong/rnbo/src/RNBO_ExternalLoader.cpp:244:11
	movw	r0, :lower16:.L.str.22
	movt	r0, :upper16:.L.str.22
.Ltmp396:
	@DEBUG_VALUE: getExtFunction:name <- %R0
	blx	r1
.Ltmp397:
	@DEBUG_VALUE: getExtFunction:func <- %R0
	.loc	66 243 7                @ /root/Bela/projects/RNBO-KPStrong/rnbo/src/RNBO_ExternalLoader.cpp:243:7
	ldr	r1, [r4, #108]
.Ltmp398:
	.loc	66 247 7                @ /root/Bela/projects/RNBO-KPStrong/rnbo/src/RNBO_ExternalLoader.cpp:247:7
	cmp	r0, #0
	moveq	r0, r5
.Ltmp399:
	.loc	66 265 23               @ /root/Bela/projects/RNBO-KPStrong/rnbo/src/RNBO_ExternalLoader.cpp:265:23
	str	r0, [r4, #32]
.Ltmp400:
	.loc	66 243 7                @ /root/Bela/projects/RNBO-KPStrong/rnbo/src/RNBO_ExternalLoader.cpp:243:7
	cmp	r1, #0
.Ltmp401:
	@DEBUG_VALUE: getExtFunction:func <- %R5
	@DEBUG_VALUE: getExtFunction:this <- %R4
	beq	.LBB18_29
.Ltmp402:
@ BB#9:                                 @ %_ZN4RNBO14ExternalModule14getExtFunctionEPKc.exit24
	@DEBUG_VALUE: getExtFunction:this <- %R4
	@DEBUG_VALUE: getExtFunction:func <- %R5
	@DEBUG_VALUE: getExtFunction:this <- %R4
	@DEBUG_VALUE: getExtFunction:func <- %R5
	@DEBUG_VALUE: getExtFunction:this <- %R4
	@DEBUG_VALUE: getExtFunction:func <- %R5
	@DEBUG_VALUE: getExtFunction:this <- %R4
	@DEBUG_VALUE: getExtFunction:func <- %R5
	@DEBUG_VALUE: getExtFunction:this <- %R4
	@DEBUG_VALUE: getExtFunction:func <- %R5
	@DEBUG_VALUE: getExtFunction:this <- %R4
	@DEBUG_VALUE: getExtFunction:func <- %R5
	@DEBUG_VALUE: getExtFunction:this <- %R4
	@DEBUG_VALUE: getExtFunction:func <- %R5
	@DEBUG_VALUE: getExtFunction:func <- %R5
	@DEBUG_VALUE: getExtFunctions:this <- %R4
	@DEBUG_VALUE: getExtFunction:this <- %R4
	.loc	66 244 11               @ /root/Bela/projects/RNBO-KPStrong/rnbo/src/RNBO_ExternalLoader.cpp:244:11
	movw	r0, :lower16:.L.str.23
	movt	r0, :upper16:.L.str.23
.Ltmp403:
	@DEBUG_VALUE: getExtFunction:name <- %R0
	blx	r1
.Ltmp404:
	@DEBUG_VALUE: getExtFunction:func <- %R0
	.loc	66 243 7                @ /root/Bela/projects/RNBO-KPStrong/rnbo/src/RNBO_ExternalLoader.cpp:243:7
	ldr	r1, [r4, #108]
.Ltmp405:
	.loc	66 247 7                @ /root/Bela/projects/RNBO-KPStrong/rnbo/src/RNBO_ExternalLoader.cpp:247:7
	cmp	r0, #0
	moveq	r0, r5
.Ltmp406:
	.loc	66 266 25               @ /root/Bela/projects/RNBO-KPStrong/rnbo/src/RNBO_ExternalLoader.cpp:266:25
	str	r0, [r4, #36]
.Ltmp407:
	.loc	66 243 7                @ /root/Bela/projects/RNBO-KPStrong/rnbo/src/RNBO_ExternalLoader.cpp:243:7
	cmp	r1, #0
.Ltmp408:
	@DEBUG_VALUE: getExtFunction:func <- %R5
	@DEBUG_VALUE: getExtFunction:this <- %R4
	beq	.LBB18_30
.Ltmp409:
@ BB#10:                                @ %_ZN4RNBO14ExternalModule14getExtFunctionEPKc.exit27
	@DEBUG_VALUE: getExtFunction:this <- %R4
	@DEBUG_VALUE: getExtFunction:func <- %R5
	@DEBUG_VALUE: getExtFunction:this <- %R4
	@DEBUG_VALUE: getExtFunction:func <- %R5
	@DEBUG_VALUE: getExtFunction:this <- %R4
	@DEBUG_VALUE: getExtFunction:func <- %R5
	@DEBUG_VALUE: getExtFunction:this <- %R4
	@DEBUG_VALUE: getExtFunction:func <- %R5
	@DEBUG_VALUE: getExtFunction:this <- %R4
	@DEBUG_VALUE: getExtFunction:func <- %R5
	@DEBUG_VALUE: getExtFunction:this <- %R4
	@DEBUG_VALUE: getExtFunction:func <- %R5
	@DEBUG_VALUE: getExtFunction:this <- %R4
	@DEBUG_VALUE: getExtFunction:func <- %R5
	@DEBUG_VALUE: getExtFunction:this <- %R4
	@DEBUG_VALUE: getExtFunction:func <- %R5
	@DEBUG_VALUE: getExtFunction:func <- %R5
	@DEBUG_VALUE: getExtFunctions:this <- %R4
	@DEBUG_VALUE: getExtFunction:this <- %R4
	.loc	66 244 11               @ /root/Bela/projects/RNBO-KPStrong/rnbo/src/RNBO_ExternalLoader.cpp:244:11
	movw	r0, :lower16:.L.str.24
	movt	r0, :upper16:.L.str.24
.Ltmp410:
	@DEBUG_VALUE: getExtFunction:name <- %R0
	blx	r1
.Ltmp411:
	@DEBUG_VALUE: getExtFunction:func <- %R0
	.loc	66 243 7                @ /root/Bela/projects/RNBO-KPStrong/rnbo/src/RNBO_ExternalLoader.cpp:243:7
	ldr	r1, [r4, #108]
.Ltmp412:
	.loc	66 247 7                @ /root/Bela/projects/RNBO-KPStrong/rnbo/src/RNBO_ExternalLoader.cpp:247:7
	cmp	r0, #0
	moveq	r0, r5
.Ltmp413:
	.loc	66 268 26               @ /root/Bela/projects/RNBO-KPStrong/rnbo/src/RNBO_ExternalLoader.cpp:268:26
	str	r0, [r4, #40]
.Ltmp414:
	.loc	66 243 7                @ /root/Bela/projects/RNBO-KPStrong/rnbo/src/RNBO_ExternalLoader.cpp:243:7
	cmp	r1, #0
.Ltmp415:
	@DEBUG_VALUE: getExtFunction:func <- %R5
	@DEBUG_VALUE: getExtFunction:this <- %R4
	beq	.LBB18_31
.Ltmp416:
@ BB#11:                                @ %_ZN4RNBO14ExternalModule14getExtFunctionEPKc.exit30
	@DEBUG_VALUE: getExtFunction:this <- %R4
	@DEBUG_VALUE: getExtFunction:func <- %R5
	@DEBUG_VALUE: getExtFunction:this <- %R4
	@DEBUG_VALUE: getExtFunction:func <- %R5
	@DEBUG_VALUE: getExtFunction:this <- %R4
	@DEBUG_VALUE: getExtFunction:func <- %R5
	@DEBUG_VALUE: getExtFunction:this <- %R4
	@DEBUG_VALUE: getExtFunction:func <- %R5
	@DEBUG_VALUE: getExtFunction:this <- %R4
	@DEBUG_VALUE: getExtFunction:func <- %R5
	@DEBUG_VALUE: getExtFunction:this <- %R4
	@DEBUG_VALUE: getExtFunction:func <- %R5
	@DEBUG_VALUE: getExtFunction:this <- %R4
	@DEBUG_VALUE: getExtFunction:func <- %R5
	@DEBUG_VALUE: getExtFunction:this <- %R4
	@DEBUG_VALUE: getExtFunction:func <- %R5
	@DEBUG_VALUE: getExtFunction:this <- %R4
	@DEBUG_VALUE: getExtFunction:func <- %R5
	@DEBUG_VALUE: getExtFunction:func <- %R5
	@DEBUG_VALUE: getExtFunctions:this <- %R4
	@DEBUG_VALUE: getExtFunction:this <- %R4
	.loc	66 244 11               @ /root/Bela/projects/RNBO-KPStrong/rnbo/src/RNBO_ExternalLoader.cpp:244:11
	movw	r0, :lower16:.L.str.25
	movt	r0, :upper16:.L.str.25
.Ltmp417:
	@DEBUG_VALUE: getExtFunction:name <- %R0
	blx	r1
.Ltmp418:
	@DEBUG_VALUE: getExtFunction:func <- %R0
	.loc	66 243 7                @ /root/Bela/projects/RNBO-KPStrong/rnbo/src/RNBO_ExternalLoader.cpp:243:7
	ldr	r1, [r4, #108]
.Ltmp419:
	.loc	66 247 7                @ /root/Bela/projects/RNBO-KPStrong/rnbo/src/RNBO_ExternalLoader.cpp:247:7
	cmp	r0, #0
	moveq	r0, r5
.Ltmp420:
	.loc	66 269 26               @ /root/Bela/projects/RNBO-KPStrong/rnbo/src/RNBO_ExternalLoader.cpp:269:26
	str	r0, [r4, #44]
.Ltmp421:
	.loc	66 243 7                @ /root/Bela/projects/RNBO-KPStrong/rnbo/src/RNBO_ExternalLoader.cpp:243:7
	cmp	r1, #0
.Ltmp422:
	@DEBUG_VALUE: getExtFunction:func <- %R5
	@DEBUG_VALUE: getExtFunction:this <- %R4
	beq	.LBB18_32
.Ltmp423:
@ BB#12:                                @ %_ZN4RNBO14ExternalModule14getExtFunctionEPKc.exit33
	@DEBUG_VALUE: getExtFunction:this <- %R4
	@DEBUG_VALUE: getExtFunction:func <- %R5
	@DEBUG_VALUE: getExtFunction:this <- %R4
	@DEBUG_VALUE: getExtFunction:func <- %R5
	@DEBUG_VALUE: getExtFunction:this <- %R4
	@DEBUG_VALUE: getExtFunction:func <- %R5
	@DEBUG_VALUE: getExtFunction:this <- %R4
	@DEBUG_VALUE: getExtFunction:func <- %R5
	@DEBUG_VALUE: getExtFunction:this <- %R4
	@DEBUG_VALUE: getExtFunction:func <- %R5
	@DEBUG_VALUE: getExtFunction:this <- %R4
	@DEBUG_VALUE: getExtFunction:func <- %R5
	@DEBUG_VALUE: getExtFunction:this <- %R4
	@DEBUG_VALUE: getExtFunction:func <- %R5
	@DEBUG_VALUE: getExtFunction:this <- %R4
	@DEBUG_VALUE: getExtFunction:func <- %R5
	@DEBUG_VALUE: getExtFunction:this <- %R4
	@DEBUG_VALUE: getExtFunction:func <- %R5
	@DEBUG_VALUE: getExtFunction:this <- %R4
	@DEBUG_VALUE: getExtFunction:func <- %R5
	@DEBUG_VALUE: getExtFunction:func <- %R5
	@DEBUG_VALUE: getExtFunctions:this <- %R4
	@DEBUG_VALUE: getExtFunction:this <- %R4
	.loc	66 244 11               @ /root/Bela/projects/RNBO-KPStrong/rnbo/src/RNBO_ExternalLoader.cpp:244:11
	movw	r0, :lower16:.L.str.26
	movt	r0, :upper16:.L.str.26
.Ltmp424:
	@DEBUG_VALUE: getExtFunction:name <- %R0
	blx	r1
.Ltmp425:
	@DEBUG_VALUE: getExtFunction:func <- %R0
	.loc	66 243 7                @ /root/Bela/projects/RNBO-KPStrong/rnbo/src/RNBO_ExternalLoader.cpp:243:7
	ldr	r1, [r4, #108]
.Ltmp426:
	.loc	66 247 7                @ /root/Bela/projects/RNBO-KPStrong/rnbo/src/RNBO_ExternalLoader.cpp:247:7
	cmp	r0, #0
	moveq	r0, r5
.Ltmp427:
	.loc	66 270 42               @ /root/Bela/projects/RNBO-KPStrong/rnbo/src/RNBO_ExternalLoader.cpp:270:42
	str	r0, [r4, #48]
.Ltmp428:
	.loc	66 243 7                @ /root/Bela/projects/RNBO-KPStrong/rnbo/src/RNBO_ExternalLoader.cpp:243:7
	cmp	r1, #0
.Ltmp429:
	@DEBUG_VALUE: getExtFunction:func <- %R5
	@DEBUG_VALUE: getExtFunction:this <- %R4
	beq	.LBB18_33
.Ltmp430:
@ BB#13:                                @ %_ZN4RNBO14ExternalModule14getExtFunctionEPKc.exit36
	@DEBUG_VALUE: getExtFunction:this <- %R4
	@DEBUG_VALUE: getExtFunction:func <- %R5
	@DEBUG_VALUE: getExtFunction:this <- %R4
	@DEBUG_VALUE: getExtFunction:func <- %R5
	@DEBUG_VALUE: getExtFunction:this <- %R4
	@DEBUG_VALUE: getExtFunction:func <- %R5
	@DEBUG_VALUE: getExtFunction:this <- %R4
	@DEBUG_VALUE: getExtFunction:func <- %R5
	@DEBUG_VALUE: getExtFunction:this <- %R4
	@DEBUG_VALUE: getExtFunction:func <- %R5
	@DEBUG_VALUE: getExtFunction:this <- %R4
	@DEBUG_VALUE: getExtFunction:func <- %R5
	@DEBUG_VALUE: getExtFunction:this <- %R4
	@DEBUG_VALUE: getExtFunction:func <- %R5
	@DEBUG_VALUE: getExtFunction:this <- %R4
	@DEBUG_VALUE: getExtFunction:func <- %R5
	@DEBUG_VALUE: getExtFunction:this <- %R4
	@DEBUG_VALUE: getExtFunction:func <- %R5
	@DEBUG_VALUE: getExtFunction:this <- %R4
	@DEBUG_VALUE: getExtFunction:func <- %R5
	@DEBUG_VALUE: getExtFunction:this <- %R4
	@DEBUG_VALUE: getExtFunction:func <- %R5
	@DEBUG_VALUE: getExtFunction:func <- %R5
	@DEBUG_VALUE: getExtFunctions:this <- %R4
	@DEBUG_VALUE: getExtFunction:this <- %R4
	.loc	66 244 11               @ /root/Bela/projects/RNBO-KPStrong/rnbo/src/RNBO_ExternalLoader.cpp:244:11
	movw	r0, :lower16:.L.str.27
	movt	r0, :upper16:.L.str.27
.Ltmp431:
	@DEBUG_VALUE: getExtFunction:name <- %R0
	blx	r1
.Ltmp432:
	@DEBUG_VALUE: getExtFunction:func <- %R0
	.loc	66 243 7                @ /root/Bela/projects/RNBO-KPStrong/rnbo/src/RNBO_ExternalLoader.cpp:243:7
	ldr	r1, [r4, #108]
.Ltmp433:
	.loc	66 247 7                @ /root/Bela/projects/RNBO-KPStrong/rnbo/src/RNBO_ExternalLoader.cpp:247:7
	cmp	r0, #0
	moveq	r0, r5
.Ltmp434:
	.loc	66 271 44               @ /root/Bela/projects/RNBO-KPStrong/rnbo/src/RNBO_ExternalLoader.cpp:271:44
	str	r0, [r4, #52]
.Ltmp435:
	.loc	66 243 7                @ /root/Bela/projects/RNBO-KPStrong/rnbo/src/RNBO_ExternalLoader.cpp:243:7
	cmp	r1, #0
.Ltmp436:
	@DEBUG_VALUE: getExtFunction:func <- %R5
	@DEBUG_VALUE: getExtFunction:this <- %R4
	beq	.LBB18_34
.Ltmp437:
@ BB#14:                                @ %_ZN4RNBO14ExternalModule14getExtFunctionEPKc.exit39
	@DEBUG_VALUE: getExtFunction:this <- %R4
	@DEBUG_VALUE: getExtFunction:func <- %R5
	@DEBUG_VALUE: getExtFunction:this <- %R4
	@DEBUG_VALUE: getExtFunction:func <- %R5
	@DEBUG_VALUE: getExtFunction:this <- %R4
	@DEBUG_VALUE: getExtFunction:func <- %R5
	@DEBUG_VALUE: getExtFunction:this <- %R4
	@DEBUG_VALUE: getExtFunction:func <- %R5
	@DEBUG_VALUE: getExtFunction:this <- %R4
	@DEBUG_VALUE: getExtFunction:func <- %R5
	@DEBUG_VALUE: getExtFunction:this <- %R4
	@DEBUG_VALUE: getExtFunction:func <- %R5
	@DEBUG_VALUE: getExtFunction:this <- %R4
	@DEBUG_VALUE: getExtFunction:func <- %R5
	@DEBUG_VALUE: getExtFunction:this <- %R4
	@DEBUG_VALUE: getExtFunction:func <- %R5
	@DEBUG_VALUE: getExtFunction:this <- %R4
	@DEBUG_VALUE: getExtFunction:func <- %R5
	@DEBUG_VALUE: getExtFunction:this <- %R4
	@DEBUG_VALUE: getExtFunction:func <- %R5
	@DEBUG_VALUE: getExtFunction:this <- %R4
	@DEBUG_VALUE: getExtFunction:func <- %R5
	@DEBUG_VALUE: getExtFunction:this <- %R4
	@DEBUG_VALUE: getExtFunction:func <- %R5
	@DEBUG_VALUE: getExtFunction:func <- %R5
	@DEBUG_VALUE: getExtFunctions:this <- %R4
	@DEBUG_VALUE: getExtFunction:this <- %R4
	.loc	66 244 11               @ /root/Bela/projects/RNBO-KPStrong/rnbo/src/RNBO_ExternalLoader.cpp:244:11
	movw	r0, :lower16:.L.str.28
	movt	r0, :upper16:.L.str.28
.Ltmp438:
	@DEBUG_VALUE: getExtFunction:name <- %R0
	blx	r1
.Ltmp439:
	@DEBUG_VALUE: getExtFunction:func <- %R0
	.loc	66 243 7                @ /root/Bela/projects/RNBO-KPStrong/rnbo/src/RNBO_ExternalLoader.cpp:243:7
	ldr	r1, [r4, #108]
.Ltmp440:
	.loc	66 247 7                @ /root/Bela/projects/RNBO-KPStrong/rnbo/src/RNBO_ExternalLoader.cpp:247:7
	cmp	r0, #0
	moveq	r0, r5
.Ltmp441:
	.loc	66 272 32               @ /root/Bela/projects/RNBO-KPStrong/rnbo/src/RNBO_ExternalLoader.cpp:272:32
	str	r0, [r4, #56]
.Ltmp442:
	.loc	66 243 7                @ /root/Bela/projects/RNBO-KPStrong/rnbo/src/RNBO_ExternalLoader.cpp:243:7
	cmp	r1, #0
.Ltmp443:
	@DEBUG_VALUE: getExtFunction:func <- %R5
	@DEBUG_VALUE: getExtFunction:this <- %R4
	beq	.LBB18_35
.Ltmp444:
@ BB#15:                                @ %_ZN4RNBO14ExternalModule14getExtFunctionEPKc.exit42
	@DEBUG_VALUE: getExtFunction:this <- %R4
	@DEBUG_VALUE: getExtFunction:func <- %R5
	@DEBUG_VALUE: getExtFunction:this <- %R4
	@DEBUG_VALUE: getExtFunction:func <- %R5
	@DEBUG_VALUE: getExtFunction:this <- %R4
	@DEBUG_VALUE: getExtFunction:func <- %R5
	@DEBUG_VALUE: getExtFunction:this <- %R4
	@DEBUG_VALUE: getExtFunction:func <- %R5
	@DEBUG_VALUE: getExtFunction:this <- %R4
	@DEBUG_VALUE: getExtFunction:func <- %R5
	@DEBUG_VALUE: getExtFunction:this <- %R4
	@DEBUG_VALUE: getExtFunction:func <- %R5
	@DEBUG_VALUE: getExtFunction:this <- %R4
	@DEBUG_VALUE: getExtFunction:func <- %R5
	@DEBUG_VALUE: getExtFunction:this <- %R4
	@DEBUG_VALUE: getExtFunction:func <- %R5
	@DEBUG_VALUE: getExtFunction:this <- %R4
	@DEBUG_VALUE: getExtFunction:func <- %R5
	@DEBUG_VALUE: getExtFunction:this <- %R4
	@DEBUG_VALUE: getExtFunction:func <- %R5
	@DEBUG_VALUE: getExtFunction:this <- %R4
	@DEBUG_VALUE: getExtFunction:func <- %R5
	@DEBUG_VALUE: getExtFunction:this <- %R4
	@DEBUG_VALUE: getExtFunction:func <- %R5
	@DEBUG_VALUE: getExtFunction:this <- %R4
	@DEBUG_VALUE: getExtFunction:func <- %R5
	@DEBUG_VALUE: getExtFunction:func <- %R5
	@DEBUG_VALUE: getExtFunctions:this <- %R4
	@DEBUG_VALUE: getExtFunction:this <- %R4
	.loc	66 244 11               @ /root/Bela/projects/RNBO-KPStrong/rnbo/src/RNBO_ExternalLoader.cpp:244:11
	movw	r0, :lower16:.L.str.29
	movt	r0, :upper16:.L.str.29
.Ltmp445:
	@DEBUG_VALUE: getExtFunction:name <- %R0
	blx	r1
.Ltmp446:
	@DEBUG_VALUE: getExtFunction:func <- %R0
	.loc	66 243 7                @ /root/Bela/projects/RNBO-KPStrong/rnbo/src/RNBO_ExternalLoader.cpp:243:7
	ldr	r1, [r4, #108]
.Ltmp447:
	.loc	66 247 7                @ /root/Bela/projects/RNBO-KPStrong/rnbo/src/RNBO_ExternalLoader.cpp:247:7
	cmp	r0, #0
	moveq	r0, r5
.Ltmp448:
	.loc	66 274 25               @ /root/Bela/projects/RNBO-KPStrong/rnbo/src/RNBO_ExternalLoader.cpp:274:25
	str	r0, [r4, #60]
.Ltmp449:
	.loc	66 243 7                @ /root/Bela/projects/RNBO-KPStrong/rnbo/src/RNBO_ExternalLoader.cpp:243:7
	cmp	r1, #0
.Ltmp450:
	@DEBUG_VALUE: getExtFunction:func <- %R5
	@DEBUG_VALUE: getExtFunction:this <- %R4
	beq	.LBB18_36
.Ltmp451:
@ BB#16:                                @ %_ZN4RNBO14ExternalModule14getExtFunctionEPKc.exit45
	@DEBUG_VALUE: getExtFunction:this <- %R4
	@DEBUG_VALUE: getExtFunction:func <- %R5
	@DEBUG_VALUE: getExtFunction:this <- %R4
	@DEBUG_VALUE: getExtFunction:func <- %R5
	@DEBUG_VALUE: getExtFunction:this <- %R4
	@DEBUG_VALUE: getExtFunction:func <- %R5
	@DEBUG_VALUE: getExtFunction:this <- %R4
	@DEBUG_VALUE: getExtFunction:func <- %R5
	@DEBUG_VALUE: getExtFunction:this <- %R4
	@DEBUG_VALUE: getExtFunction:func <- %R5
	@DEBUG_VALUE: getExtFunction:this <- %R4
	@DEBUG_VALUE: getExtFunction:func <- %R5
	@DEBUG_VALUE: getExtFunction:this <- %R4
	@DEBUG_VALUE: getExtFunction:func <- %R5
	@DEBUG_VALUE: getExtFunction:this <- %R4
	@DEBUG_VALUE: getExtFunction:func <- %R5
	@DEBUG_VALUE: getExtFunction:this <- %R4
	@DEBUG_VALUE: getExtFunction:func <- %R5
	@DEBUG_VALUE: getExtFunction:this <- %R4
	@DEBUG_VALUE: getExtFunction:func <- %R5
	@DEBUG_VALUE: getExtFunction:this <- %R4
	@DEBUG_VALUE: getExtFunction:func <- %R5
	@DEBUG_VALUE: getExtFunction:this <- %R4
	@DEBUG_VALUE: getExtFunction:func <- %R5
	@DEBUG_VALUE: getExtFunction:this <- %R4
	@DEBUG_VALUE: getExtFunction:func <- %R5
	@DEBUG_VALUE: getExtFunction:this <- %R4
	@DEBUG_VALUE: getExtFunction:func <- %R5
	@DEBUG_VALUE: getExtFunction:func <- %R5
	@DEBUG_VALUE: getExtFunctions:this <- %R4
	@DEBUG_VALUE: getExtFunction:this <- %R4
	.loc	66 244 11               @ /root/Bela/projects/RNBO-KPStrong/rnbo/src/RNBO_ExternalLoader.cpp:244:11
	movw	r0, :lower16:.L.str.30
	movt	r0, :upper16:.L.str.30
.Ltmp452:
	@DEBUG_VALUE: getExtFunction:name <- %R0
	blx	r1
.Ltmp453:
	@DEBUG_VALUE: getExtFunction:func <- %R0
	.loc	66 243 7                @ /root/Bela/projects/RNBO-KPStrong/rnbo/src/RNBO_ExternalLoader.cpp:243:7
	ldr	r1, [r4, #108]
.Ltmp454:
	.loc	66 247 7                @ /root/Bela/projects/RNBO-KPStrong/rnbo/src/RNBO_ExternalLoader.cpp:247:7
	cmp	r0, #0
	moveq	r0, r5
.Ltmp455:
	.loc	66 275 16               @ /root/Bela/projects/RNBO-KPStrong/rnbo/src/RNBO_ExternalLoader.cpp:275:16
	str	r0, [r4, #64]
.Ltmp456:
	.loc	66 243 7                @ /root/Bela/projects/RNBO-KPStrong/rnbo/src/RNBO_ExternalLoader.cpp:243:7
	cmp	r1, #0
.Ltmp457:
	@DEBUG_VALUE: getExtFunction:func <- %R5
	@DEBUG_VALUE: getExtFunction:this <- %R4
	beq	.LBB18_37
.Ltmp458:
@ BB#17:                                @ %_ZN4RNBO14ExternalModule14getExtFunctionEPKc.exit48
	@DEBUG_VALUE: getExtFunction:this <- %R4
	@DEBUG_VALUE: getExtFunction:func <- %R5
	@DEBUG_VALUE: getExtFunction:this <- %R4
	@DEBUG_VALUE: getExtFunction:func <- %R5
	@DEBUG_VALUE: getExtFunction:this <- %R4
	@DEBUG_VALUE: getExtFunction:func <- %R5
	@DEBUG_VALUE: getExtFunction:this <- %R4
	@DEBUG_VALUE: getExtFunction:func <- %R5
	@DEBUG_VALUE: getExtFunction:this <- %R4
	@DEBUG_VALUE: getExtFunction:func <- %R5
	@DEBUG_VALUE: getExtFunction:this <- %R4
	@DEBUG_VALUE: getExtFunction:func <- %R5
	@DEBUG_VALUE: getExtFunction:this <- %R4
	@DEBUG_VALUE: getExtFunction:func <- %R5
	@DEBUG_VALUE: getExtFunction:this <- %R4
	@DEBUG_VALUE: getExtFunction:func <- %R5
	@DEBUG_VALUE: getExtFunction:this <- %R4
	@DEBUG_VALUE: getExtFunction:func <- %R5
	@DEBUG_VALUE: getExtFunction:this <- %R4
	@DEBUG_VALUE: getExtFunction:func <- %R5
	@DEBUG_VALUE: getExtFunction:this <- %R4
	@DEBUG_VALUE: getExtFunction:func <- %R5
	@DEBUG_VALUE: getExtFunction:this <- %R4
	@DEBUG_VALUE: getExtFunction:func <- %R5
	@DEBUG_VALUE: getExtFunction:this <- %R4
	@DEBUG_VALUE: getExtFunction:func <- %R5
	@DEBUG_VALUE: getExtFunction:this <- %R4
	@DEBUG_VALUE: getExtFunction:func <- %R5
	@DEBUG_VALUE: getExtFunction:this <- %R4
	@DEBUG_VALUE: getExtFunction:func <- %R5
	@DEBUG_VALUE: getExtFunction:func <- %R5
	@DEBUG_VALUE: getExtFunctions:this <- %R4
	@DEBUG_VALUE: getExtFunction:this <- %R4
	.loc	66 244 11               @ /root/Bela/projects/RNBO-KPStrong/rnbo/src/RNBO_ExternalLoader.cpp:244:11
	movw	r0, :lower16:.L.str.31
	movt	r0, :upper16:.L.str.31
.Ltmp459:
	@DEBUG_VALUE: getExtFunction:name <- %R0
	blx	r1
.Ltmp460:
	@DEBUG_VALUE: getExtFunction:func <- %R0
	.loc	66 243 7                @ /root/Bela/projects/RNBO-KPStrong/rnbo/src/RNBO_ExternalLoader.cpp:243:7
	ldr	r1, [r4, #108]
.Ltmp461:
	.loc	66 247 7                @ /root/Bela/projects/RNBO-KPStrong/rnbo/src/RNBO_ExternalLoader.cpp:247:7
	cmp	r0, #0
	moveq	r0, r5
.Ltmp462:
	.loc	66 277 28               @ /root/Bela/projects/RNBO-KPStrong/rnbo/src/RNBO_ExternalLoader.cpp:277:28
	str	r0, [r4, #68]
.Ltmp463:
	.loc	66 243 7                @ /root/Bela/projects/RNBO-KPStrong/rnbo/src/RNBO_ExternalLoader.cpp:243:7
	cmp	r1, #0
.Ltmp464:
	@DEBUG_VALUE: getExtFunction:func <- %R5
	@DEBUG_VALUE: getExtFunction:this <- %R4
	beq	.LBB18_38
.Ltmp465:
@ BB#18:                                @ %_ZN4RNBO14ExternalModule14getExtFunctionEPKc.exit51
	@DEBUG_VALUE: getExtFunction:this <- %R4
	@DEBUG_VALUE: getExtFunction:func <- %R5
	@DEBUG_VALUE: getExtFunction:this <- %R4
	@DEBUG_VALUE: getExtFunction:func <- %R5
	@DEBUG_VALUE: getExtFunction:this <- %R4
	@DEBUG_VALUE: getExtFunction:func <- %R5
	@DEBUG_VALUE: getExtFunction:this <- %R4
	@DEBUG_VALUE: getExtFunction:func <- %R5
	@DEBUG_VALUE: getExtFunction:this <- %R4
	@DEBUG_VALUE: getExtFunction:func <- %R5
	@DEBUG_VALUE: getExtFunction:this <- %R4
	@DEBUG_VALUE: getExtFunction:func <- %R5
	@DEBUG_VALUE: getExtFunction:this <- %R4
	@DEBUG_VALUE: getExtFunction:func <- %R5
	@DEBUG_VALUE: getExtFunction:this <- %R4
	@DEBUG_VALUE: getExtFunction:func <- %R5
	@DEBUG_VALUE: getExtFunction:this <- %R4
	@DEBUG_VALUE: getExtFunction:func <- %R5
	@DEBUG_VALUE: getExtFunction:this <- %R4
	@DEBUG_VALUE: getExtFunction:func <- %R5
	@DEBUG_VALUE: getExtFunction:this <- %R4
	@DEBUG_VALUE: getExtFunction:func <- %R5
	@DEBUG_VALUE: getExtFunction:this <- %R4
	@DEBUG_VALUE: getExtFunction:func <- %R5
	@DEBUG_VALUE: getExtFunction:this <- %R4
	@DEBUG_VALUE: getExtFunction:func <- %R5
	@DEBUG_VALUE: getExtFunction:this <- %R4
	@DEBUG_VALUE: getExtFunction:func <- %R5
	@DEBUG_VALUE: getExtFunction:this <- %R4
	@DEBUG_VALUE: getExtFunction:func <- %R5
	@DEBUG_VALUE: getExtFunction:this <- %R4
	@DEBUG_VALUE: getExtFunction:func <- %R5
	@DEBUG_VALUE: getExtFunction:func <- %R5
	@DEBUG_VALUE: getExtFunctions:this <- %R4
	@DEBUG_VALUE: getExtFunction:this <- %R4
	.loc	66 244 11               @ /root/Bela/projects/RNBO-KPStrong/rnbo/src/RNBO_ExternalLoader.cpp:244:11
	movw	r0, :lower16:.L.str.32
	movt	r0, :upper16:.L.str.32
.Ltmp466:
	@DEBUG_VALUE: getExtFunction:name <- %R0
	blx	r1
.Ltmp467:
	@DEBUG_VALUE: getExtFunction:func <- %R0
	.loc	66 243 7                @ /root/Bela/projects/RNBO-KPStrong/rnbo/src/RNBO_ExternalLoader.cpp:243:7
	ldr	r1, [r4, #108]
.Ltmp468:
	.loc	66 247 7                @ /root/Bela/projects/RNBO-KPStrong/rnbo/src/RNBO_ExternalLoader.cpp:247:7
	cmp	r0, #0
	moveq	r0, r5
.Ltmp469:
	.loc	66 278 29               @ /root/Bela/projects/RNBO-KPStrong/rnbo/src/RNBO_ExternalLoader.cpp:278:29
	str	r0, [r4, #72]
.Ltmp470:
	.loc	66 243 7                @ /root/Bela/projects/RNBO-KPStrong/rnbo/src/RNBO_ExternalLoader.cpp:243:7
	cmp	r1, #0
.Ltmp471:
	@DEBUG_VALUE: getExtFunction:func <- %R5
	@DEBUG_VALUE: getExtFunction:this <- %R4
	beq	.LBB18_39
.Ltmp472:
@ BB#19:                                @ %_ZN4RNBO14ExternalModule14getExtFunctionEPKc.exit54
	@DEBUG_VALUE: getExtFunction:this <- %R4
	@DEBUG_VALUE: getExtFunction:func <- %R5
	@DEBUG_VALUE: getExtFunction:this <- %R4
	@DEBUG_VALUE: getExtFunction:func <- %R5
	@DEBUG_VALUE: getExtFunction:this <- %R4
	@DEBUG_VALUE: getExtFunction:func <- %R5
	@DEBUG_VALUE: getExtFunction:this <- %R4
	@DEBUG_VALUE: getExtFunction:func <- %R5
	@DEBUG_VALUE: getExtFunction:this <- %R4
	@DEBUG_VALUE: getExtFunction:func <- %R5
	@DEBUG_VALUE: getExtFunction:this <- %R4
	@DEBUG_VALUE: getExtFunction:func <- %R5
	@DEBUG_VALUE: getExtFunction:this <- %R4
	@DEBUG_VALUE: getExtFunction:func <- %R5
	@DEBUG_VALUE: getExtFunction:this <- %R4
	@DEBUG_VALUE: getExtFunction:func <- %R5
	@DEBUG_VALUE: getExtFunction:this <- %R4
	@DEBUG_VALUE: getExtFunction:func <- %R5
	@DEBUG_VALUE: getExtFunction:this <- %R4
	@DEBUG_VALUE: getExtFunction:func <- %R5
	@DEBUG_VALUE: getExtFunction:this <- %R4
	@DEBUG_VALUE: getExtFunction:func <- %R5
	@DEBUG_VALUE: getExtFunction:this <- %R4
	@DEBUG_VALUE: getExtFunction:func <- %R5
	@DEBUG_VALUE: getExtFunction:this <- %R4
	@DEBUG_VALUE: getExtFunction:func <- %R5
	@DEBUG_VALUE: getExtFunction:this <- %R4
	@DEBUG_VALUE: getExtFunction:func <- %R5
	@DEBUG_VALUE: getExtFunction:this <- %R4
	@DEBUG_VALUE: getExtFunction:func <- %R5
	@DEBUG_VALUE: getExtFunction:this <- %R4
	@DEBUG_VALUE: getExtFunction:func <- %R5
	@DEBUG_VALUE: getExtFunction:this <- %R4
	@DEBUG_VALUE: getExtFunction:func <- %R5
	@DEBUG_VALUE: getExtFunction:func <- %R5
	@DEBUG_VALUE: getExtFunctions:this <- %R4
	@DEBUG_VALUE: getExtFunction:this <- %R4
	.loc	66 244 11               @ /root/Bela/projects/RNBO-KPStrong/rnbo/src/RNBO_ExternalLoader.cpp:244:11
	movw	r0, :lower16:.L.str.33
	movt	r0, :upper16:.L.str.33
.Ltmp473:
	@DEBUG_VALUE: getExtFunction:name <- %R0
	blx	r1
.Ltmp474:
	@DEBUG_VALUE: getExtFunction:func <- %R0
	.loc	66 243 7                @ /root/Bela/projects/RNBO-KPStrong/rnbo/src/RNBO_ExternalLoader.cpp:243:7
	ldr	r1, [r4, #108]
.Ltmp475:
	.loc	66 247 7                @ /root/Bela/projects/RNBO-KPStrong/rnbo/src/RNBO_ExternalLoader.cpp:247:7
	cmp	r0, #0
	movne	r5, r0
.Ltmp476:
	mov	r0, #0
.Ltmp477:
	@DEBUG_VALUE: getExtFunction:func <- %R0
	.loc	66 280 25               @ /root/Bela/projects/RNBO-KPStrong/rnbo/src/RNBO_ExternalLoader.cpp:280:25
	str	r5, [r4, #76]
.Ltmp478:
	.loc	66 243 7                @ /root/Bela/projects/RNBO-KPStrong/rnbo/src/RNBO_ExternalLoader.cpp:243:7
	cmp	r1, #0
.Ltmp479:
	@DEBUG_VALUE: getExtFunction:func <- %R5
	@DEBUG_VALUE: getExtFunction:this <- %R4
	beq	.LBB18_40
.Ltmp480:
@ BB#20:
	@DEBUG_VALUE: getExtFunction:this <- %R4
	@DEBUG_VALUE: getExtFunction:func <- %R5
	@DEBUG_VALUE: getExtFunction:func <- %R0
	@DEBUG_VALUE: getExtFunction:this <- %R4
	@DEBUG_VALUE: getExtFunction:this <- %R4
	@DEBUG_VALUE: getExtFunction:this <- %R4
	@DEBUG_VALUE: getExtFunction:this <- %R4
	@DEBUG_VALUE: getExtFunction:this <- %R4
	@DEBUG_VALUE: getExtFunction:this <- %R4
	@DEBUG_VALUE: getExtFunction:this <- %R4
	@DEBUG_VALUE: getExtFunction:this <- %R4
	@DEBUG_VALUE: getExtFunction:this <- %R4
	@DEBUG_VALUE: getExtFunction:this <- %R4
	@DEBUG_VALUE: getExtFunction:this <- %R4
	@DEBUG_VALUE: getExtFunction:this <- %R4
	@DEBUG_VALUE: getExtFunction:this <- %R4
	@DEBUG_VALUE: getExtFunction:this <- %R4
	@DEBUG_VALUE: getExtFunction:this <- %R4
	@DEBUG_VALUE: getExtFunction:this <- %R4
	@DEBUG_VALUE: getExtFunction:this <- %R4
	@DEBUG_VALUE: getExtFunctions:this <- %R4
	@DEBUG_VALUE: getExtFunction:this <- %R4
	.loc	66 244 11               @ /root/Bela/projects/RNBO-KPStrong/rnbo/src/RNBO_ExternalLoader.cpp:244:11
	movw	r0, :lower16:.L.str.34
.Ltmp481:
	movt	r0, :upper16:.L.str.34
.Ltmp482:
	@DEBUG_VALUE: getExtFunction:name <- %R0
	blx	r1
.Ltmp483:
	@DEBUG_VALUE: getExtFunction:func <- %R0
	b	.LBB18_40
.Ltmp484:
.LBB18_21:                              @ %_ZN4RNBO14ExternalModule14getExtFunctionEPKc.exit.thread
	@DEBUG_VALUE: getExtFunctions:this <- %R4
	@DEBUG_VALUE: getExtFunction:this <- %R4
	.loc	66 256 23               @ /root/Bela/projects/RNBO-KPStrong/rnbo/src/RNBO_ExternalLoader.cpp:256:23
	movw	r0, :lower16:_ZN4RNBO16dummyExtFunctionEv
	movt	r0, :upper16:_ZN4RNBO16dummyExtFunctionEv
	str	r0, [r4, #4]
.Ltmp485:
	@DEBUG_VALUE: getExtFunction:func <- %R0
	@DEBUG_VALUE: getExtFunction:this <- %R4
.LBB18_22:                              @ %_ZN4RNBO14ExternalModule14getExtFunctionEPKc.exit3.thread
	@DEBUG_VALUE: getExtFunctions:this <- %R4
	@DEBUG_VALUE: getExtFunction:this <- %R4
	.loc	66 257 23               @ /root/Bela/projects/RNBO-KPStrong/rnbo/src/RNBO_ExternalLoader.cpp:257:23
	movw	r0, :lower16:_ZN4RNBO16dummyExtFunctionEv
	movt	r0, :upper16:_ZN4RNBO16dummyExtFunctionEv
	str	r0, [r4, #8]
.Ltmp486:
	@DEBUG_VALUE: getExtFunction:func <- %R0
	@DEBUG_VALUE: getExtFunction:this <- %R4
.LBB18_23:                              @ %_ZN4RNBO14ExternalModule14getExtFunctionEPKc.exit6.thread
	@DEBUG_VALUE: getExtFunction:this <- %R4
	@DEBUG_VALUE: getExtFunctions:this <- %R4
	@DEBUG_VALUE: getExtFunction:this <- %R4
	.loc	66 259 19               @ /root/Bela/projects/RNBO-KPStrong/rnbo/src/RNBO_ExternalLoader.cpp:259:19
	movw	r0, :lower16:_ZN4RNBO16dummyExtFunctionEv
	movt	r0, :upper16:_ZN4RNBO16dummyExtFunctionEv
	str	r0, [r4, #12]
.Ltmp487:
	@DEBUG_VALUE: getExtFunction:func <- %R0
	@DEBUG_VALUE: getExtFunction:this <- %R4
.LBB18_24:                              @ %_ZN4RNBO14ExternalModule14getExtFunctionEPKc.exit9.thread
	@DEBUG_VALUE: getExtFunction:this <- %R4
	@DEBUG_VALUE: getExtFunction:this <- %R4
	@DEBUG_VALUE: getExtFunctions:this <- %R4
	@DEBUG_VALUE: getExtFunction:this <- %R4
	.loc	66 261 29               @ /root/Bela/projects/RNBO-KPStrong/rnbo/src/RNBO_ExternalLoader.cpp:261:29
	movw	r0, :lower16:_ZN4RNBO16dummyExtFunctionEv
	movt	r0, :upper16:_ZN4RNBO16dummyExtFunctionEv
	str	r0, [r4, #16]
.Ltmp488:
	@DEBUG_VALUE: getExtFunction:func <- %R0
	@DEBUG_VALUE: getExtFunction:this <- %R4
.LBB18_25:                              @ %_ZN4RNBO14ExternalModule14getExtFunctionEPKc.exit12.thread
	@DEBUG_VALUE: getExtFunction:this <- %R4
	@DEBUG_VALUE: getExtFunction:this <- %R4
	@DEBUG_VALUE: getExtFunction:this <- %R4
	@DEBUG_VALUE: getExtFunctions:this <- %R4
	@DEBUG_VALUE: getExtFunction:this <- %R4
	.loc	66 262 30               @ /root/Bela/projects/RNBO-KPStrong/rnbo/src/RNBO_ExternalLoader.cpp:262:30
	movw	r0, :lower16:_ZN4RNBO16dummyExtFunctionEv
	movt	r0, :upper16:_ZN4RNBO16dummyExtFunctionEv
	str	r0, [r4, #20]
.Ltmp489:
	@DEBUG_VALUE: getExtFunction:func <- %R0
	@DEBUG_VALUE: getExtFunction:this <- %R4
.LBB18_26:                              @ %_ZN4RNBO14ExternalModule14getExtFunctionEPKc.exit15.thread
	@DEBUG_VALUE: getExtFunction:this <- %R4
	@DEBUG_VALUE: getExtFunction:this <- %R4
	@DEBUG_VALUE: getExtFunction:this <- %R4
	@DEBUG_VALUE: getExtFunction:this <- %R4
	@DEBUG_VALUE: getExtFunctions:this <- %R4
	@DEBUG_VALUE: getExtFunction:this <- %R4
	.loc	66 263 25               @ /root/Bela/projects/RNBO-KPStrong/rnbo/src/RNBO_ExternalLoader.cpp:263:25
	movw	r0, :lower16:_ZN4RNBO16dummyExtFunctionEv
	movt	r0, :upper16:_ZN4RNBO16dummyExtFunctionEv
	str	r0, [r4, #24]
.Ltmp490:
	@DEBUG_VALUE: getExtFunction:func <- %R0
	@DEBUG_VALUE: getExtFunction:this <- %R4
.LBB18_27:                              @ %_ZN4RNBO14ExternalModule14getExtFunctionEPKc.exit18.thread
	@DEBUG_VALUE: getExtFunction:this <- %R4
	@DEBUG_VALUE: getExtFunction:this <- %R4
	@DEBUG_VALUE: getExtFunction:this <- %R4
	@DEBUG_VALUE: getExtFunction:this <- %R4
	@DEBUG_VALUE: getExtFunction:this <- %R4
	@DEBUG_VALUE: getExtFunctions:this <- %R4
	@DEBUG_VALUE: getExtFunction:this <- %R4
	.loc	66 264 25               @ /root/Bela/projects/RNBO-KPStrong/rnbo/src/RNBO_ExternalLoader.cpp:264:25
	movw	r0, :lower16:_ZN4RNBO16dummyExtFunctionEv
	movt	r0, :upper16:_ZN4RNBO16dummyExtFunctionEv
	str	r0, [r4, #28]
.Ltmp491:
	@DEBUG_VALUE: getExtFunction:func <- %R0
	@DEBUG_VALUE: getExtFunction:this <- %R4
.LBB18_28:                              @ %_ZN4RNBO14ExternalModule14getExtFunctionEPKc.exit21.thread
	@DEBUG_VALUE: getExtFunction:this <- %R4
	@DEBUG_VALUE: getExtFunction:this <- %R4
	@DEBUG_VALUE: getExtFunction:this <- %R4
	@DEBUG_VALUE: getExtFunction:this <- %R4
	@DEBUG_VALUE: getExtFunction:this <- %R4
	@DEBUG_VALUE: getExtFunction:this <- %R4
	@DEBUG_VALUE: getExtFunctions:this <- %R4
	@DEBUG_VALUE: getExtFunction:this <- %R4
	.loc	66 265 23               @ /root/Bela/projects/RNBO-KPStrong/rnbo/src/RNBO_ExternalLoader.cpp:265:23
	movw	r0, :lower16:_ZN4RNBO16dummyExtFunctionEv
	movt	r0, :upper16:_ZN4RNBO16dummyExtFunctionEv
	str	r0, [r4, #32]
.Ltmp492:
	@DEBUG_VALUE: getExtFunction:func <- %R0
	@DEBUG_VALUE: getExtFunction:this <- %R4
.LBB18_29:                              @ %_ZN4RNBO14ExternalModule14getExtFunctionEPKc.exit24.thread
	@DEBUG_VALUE: getExtFunction:this <- %R4
	@DEBUG_VALUE: getExtFunction:this <- %R4
	@DEBUG_VALUE: getExtFunction:this <- %R4
	@DEBUG_VALUE: getExtFunction:this <- %R4
	@DEBUG_VALUE: getExtFunction:this <- %R4
	@DEBUG_VALUE: getExtFunction:this <- %R4
	@DEBUG_VALUE: getExtFunction:this <- %R4
	@DEBUG_VALUE: getExtFunctions:this <- %R4
	@DEBUG_VALUE: getExtFunction:this <- %R4
	.loc	66 266 25               @ /root/Bela/projects/RNBO-KPStrong/rnbo/src/RNBO_ExternalLoader.cpp:266:25
	movw	r0, :lower16:_ZN4RNBO16dummyExtFunctionEv
	movt	r0, :upper16:_ZN4RNBO16dummyExtFunctionEv
	str	r0, [r4, #36]
.Ltmp493:
	@DEBUG_VALUE: getExtFunction:func <- %R0
	@DEBUG_VALUE: getExtFunction:this <- %R4
.LBB18_30:                              @ %_ZN4RNBO14ExternalModule14getExtFunctionEPKc.exit27.thread
	@DEBUG_VALUE: getExtFunction:this <- %R4
	@DEBUG_VALUE: getExtFunction:this <- %R4
	@DEBUG_VALUE: getExtFunction:this <- %R4
	@DEBUG_VALUE: getExtFunction:this <- %R4
	@DEBUG_VALUE: getExtFunction:this <- %R4
	@DEBUG_VALUE: getExtFunction:this <- %R4
	@DEBUG_VALUE: getExtFunction:this <- %R4
	@DEBUG_VALUE: getExtFunction:this <- %R4
	@DEBUG_VALUE: getExtFunctions:this <- %R4
	@DEBUG_VALUE: getExtFunction:this <- %R4
	.loc	66 268 26               @ /root/Bela/projects/RNBO-KPStrong/rnbo/src/RNBO_ExternalLoader.cpp:268:26
	movw	r0, :lower16:_ZN4RNBO16dummyExtFunctionEv
	movt	r0, :upper16:_ZN4RNBO16dummyExtFunctionEv
	str	r0, [r4, #40]
.Ltmp494:
	@DEBUG_VALUE: getExtFunction:func <- %R0
	@DEBUG_VALUE: getExtFunction:this <- %R4
.LBB18_31:                              @ %_ZN4RNBO14ExternalModule14getExtFunctionEPKc.exit30.thread
	@DEBUG_VALUE: getExtFunction:this <- %R4
	@DEBUG_VALUE: getExtFunction:this <- %R4
	@DEBUG_VALUE: getExtFunction:this <- %R4
	@DEBUG_VALUE: getExtFunction:this <- %R4
	@DEBUG_VALUE: getExtFunction:this <- %R4
	@DEBUG_VALUE: getExtFunction:this <- %R4
	@DEBUG_VALUE: getExtFunction:this <- %R4
	@DEBUG_VALUE: getExtFunction:this <- %R4
	@DEBUG_VALUE: getExtFunction:this <- %R4
	@DEBUG_VALUE: getExtFunctions:this <- %R4
	@DEBUG_VALUE: getExtFunction:this <- %R4
	.loc	66 269 26               @ /root/Bela/projects/RNBO-KPStrong/rnbo/src/RNBO_ExternalLoader.cpp:269:26
	movw	r0, :lower16:_ZN4RNBO16dummyExtFunctionEv
	movt	r0, :upper16:_ZN4RNBO16dummyExtFunctionEv
	str	r0, [r4, #44]
.Ltmp495:
	@DEBUG_VALUE: getExtFunction:func <- %R0
	@DEBUG_VALUE: getExtFunction:this <- %R4
.LBB18_32:                              @ %_ZN4RNBO14ExternalModule14getExtFunctionEPKc.exit33.thread
	@DEBUG_VALUE: getExtFunction:this <- %R4
	@DEBUG_VALUE: getExtFunction:this <- %R4
	@DEBUG_VALUE: getExtFunction:this <- %R4
	@DEBUG_VALUE: getExtFunction:this <- %R4
	@DEBUG_VALUE: getExtFunction:this <- %R4
	@DEBUG_VALUE: getExtFunction:this <- %R4
	@DEBUG_VALUE: getExtFunction:this <- %R4
	@DEBUG_VALUE: getExtFunction:this <- %R4
	@DEBUG_VALUE: getExtFunction:this <- %R4
	@DEBUG_VALUE: getExtFunction:this <- %R4
	@DEBUG_VALUE: getExtFunctions:this <- %R4
	@DEBUG_VALUE: getExtFunction:this <- %R4
	.loc	66 270 42               @ /root/Bela/projects/RNBO-KPStrong/rnbo/src/RNBO_ExternalLoader.cpp:270:42
	movw	r0, :lower16:_ZN4RNBO16dummyExtFunctionEv
	movt	r0, :upper16:_ZN4RNBO16dummyExtFunctionEv
	str	r0, [r4, #48]
.Ltmp496:
	@DEBUG_VALUE: getExtFunction:func <- %R0
	@DEBUG_VALUE: getExtFunction:this <- %R4
.LBB18_33:                              @ %_ZN4RNBO14ExternalModule14getExtFunctionEPKc.exit36.thread
	@DEBUG_VALUE: getExtFunction:this <- %R4
	@DEBUG_VALUE: getExtFunction:this <- %R4
	@DEBUG_VALUE: getExtFunction:this <- %R4
	@DEBUG_VALUE: getExtFunction:this <- %R4
	@DEBUG_VALUE: getExtFunction:this <- %R4
	@DEBUG_VALUE: getExtFunction:this <- %R4
	@DEBUG_VALUE: getExtFunction:this <- %R4
	@DEBUG_VALUE: getExtFunction:this <- %R4
	@DEBUG_VALUE: getExtFunction:this <- %R4
	@DEBUG_VALUE: getExtFunction:this <- %R4
	@DEBUG_VALUE: getExtFunction:this <- %R4
	@DEBUG_VALUE: getExtFunctions:this <- %R4
	@DEBUG_VALUE: getExtFunction:this <- %R4
	.loc	66 271 44               @ /root/Bela/projects/RNBO-KPStrong/rnbo/src/RNBO_ExternalLoader.cpp:271:44
	movw	r0, :lower16:_ZN4RNBO16dummyExtFunctionEv
	movt	r0, :upper16:_ZN4RNBO16dummyExtFunctionEv
	str	r0, [r4, #52]
.Ltmp497:
	@DEBUG_VALUE: getExtFunction:func <- %R0
	@DEBUG_VALUE: getExtFunction:this <- %R4
.LBB18_34:                              @ %_ZN4RNBO14ExternalModule14getExtFunctionEPKc.exit39.thread
	@DEBUG_VALUE: getExtFunction:this <- %R4
	@DEBUG_VALUE: getExtFunction:this <- %R4
	@DEBUG_VALUE: getExtFunction:this <- %R4
	@DEBUG_VALUE: getExtFunction:this <- %R4
	@DEBUG_VALUE: getExtFunction:this <- %R4
	@DEBUG_VALUE: getExtFunction:this <- %R4
	@DEBUG_VALUE: getExtFunction:this <- %R4
	@DEBUG_VALUE: getExtFunction:this <- %R4
	@DEBUG_VALUE: getExtFunction:this <- %R4
	@DEBUG_VALUE: getExtFunction:this <- %R4
	@DEBUG_VALUE: getExtFunction:this <- %R4
	@DEBUG_VALUE: getExtFunction:this <- %R4
	@DEBUG_VALUE: getExtFunctions:this <- %R4
	@DEBUG_VALUE: getExtFunction:this <- %R4
	.loc	66 272 32               @ /root/Bela/projects/RNBO-KPStrong/rnbo/src/RNBO_ExternalLoader.cpp:272:32
	movw	r0, :lower16:_ZN4RNBO16dummyExtFunctionEv
	movt	r0, :upper16:_ZN4RNBO16dummyExtFunctionEv
	str	r0, [r4, #56]
.Ltmp498:
	@DEBUG_VALUE: getExtFunction:func <- %R0
	@DEBUG_VALUE: getExtFunction:this <- %R4
.LBB18_35:                              @ %_ZN4RNBO14ExternalModule14getExtFunctionEPKc.exit42.thread
	@DEBUG_VALUE: getExtFunction:this <- %R4
	@DEBUG_VALUE: getExtFunction:this <- %R4
	@DEBUG_VALUE: getExtFunction:this <- %R4
	@DEBUG_VALUE: getExtFunction:this <- %R4
	@DEBUG_VALUE: getExtFunction:this <- %R4
	@DEBUG_VALUE: getExtFunction:this <- %R4
	@DEBUG_VALUE: getExtFunction:this <- %R4
	@DEBUG_VALUE: getExtFunction:this <- %R4
	@DEBUG_VALUE: getExtFunction:this <- %R4
	@DEBUG_VALUE: getExtFunction:this <- %R4
	@DEBUG_VALUE: getExtFunction:this <- %R4
	@DEBUG_VALUE: getExtFunction:this <- %R4
	@DEBUG_VALUE: getExtFunction:this <- %R4
	@DEBUG_VALUE: getExtFunctions:this <- %R4
	@DEBUG_VALUE: getExtFunction:this <- %R4
	.loc	66 274 25               @ /root/Bela/projects/RNBO-KPStrong/rnbo/src/RNBO_ExternalLoader.cpp:274:25
	movw	r0, :lower16:_ZN4RNBO16dummyExtFunctionEv
	movt	r0, :upper16:_ZN4RNBO16dummyExtFunctionEv
	str	r0, [r4, #60]
.Ltmp499:
	@DEBUG_VALUE: getExtFunction:func <- %R0
	@DEBUG_VALUE: getExtFunction:this <- %R4
.LBB18_36:                              @ %_ZN4RNBO14ExternalModule14getExtFunctionEPKc.exit45.thread
	@DEBUG_VALUE: getExtFunction:this <- %R4
	@DEBUG_VALUE: getExtFunction:this <- %R4
	@DEBUG_VALUE: getExtFunction:this <- %R4
	@DEBUG_VALUE: getExtFunction:this <- %R4
	@DEBUG_VALUE: getExtFunction:this <- %R4
	@DEBUG_VALUE: getExtFunction:this <- %R4
	@DEBUG_VALUE: getExtFunction:this <- %R4
	@DEBUG_VALUE: getExtFunction:this <- %R4
	@DEBUG_VALUE: getExtFunction:this <- %R4
	@DEBUG_VALUE: getExtFunction:this <- %R4
	@DEBUG_VALUE: getExtFunction:this <- %R4
	@DEBUG_VALUE: getExtFunction:this <- %R4
	@DEBUG_VALUE: getExtFunction:this <- %R4
	@DEBUG_VALUE: getExtFunction:this <- %R4
	@DEBUG_VALUE: getExtFunctions:this <- %R4
	@DEBUG_VALUE: getExtFunction:this <- %R4
	.loc	66 275 16               @ /root/Bela/projects/RNBO-KPStrong/rnbo/src/RNBO_ExternalLoader.cpp:275:16
	movw	r0, :lower16:_ZN4RNBO16dummyExtFunctionEv
	movt	r0, :upper16:_ZN4RNBO16dummyExtFunctionEv
	str	r0, [r4, #64]
.Ltmp500:
	@DEBUG_VALUE: getExtFunction:func <- %R0
	@DEBUG_VALUE: getExtFunction:this <- %R4
.LBB18_37:                              @ %_ZN4RNBO14ExternalModule14getExtFunctionEPKc.exit48.thread
	@DEBUG_VALUE: getExtFunction:this <- %R4
	@DEBUG_VALUE: getExtFunction:this <- %R4
	@DEBUG_VALUE: getExtFunction:this <- %R4
	@DEBUG_VALUE: getExtFunction:this <- %R4
	@DEBUG_VALUE: getExtFunction:this <- %R4
	@DEBUG_VALUE: getExtFunction:this <- %R4
	@DEBUG_VALUE: getExtFunction:this <- %R4
	@DEBUG_VALUE: getExtFunction:this <- %R4
	@DEBUG_VALUE: getExtFunction:this <- %R4
	@DEBUG_VALUE: getExtFunction:this <- %R4
	@DEBUG_VALUE: getExtFunction:this <- %R4
	@DEBUG_VALUE: getExtFunction:this <- %R4
	@DEBUG_VALUE: getExtFunction:this <- %R4
	@DEBUG_VALUE: getExtFunction:this <- %R4
	@DEBUG_VALUE: getExtFunction:this <- %R4
	@DEBUG_VALUE: getExtFunctions:this <- %R4
	@DEBUG_VALUE: getExtFunction:this <- %R4
	.loc	66 277 28               @ /root/Bela/projects/RNBO-KPStrong/rnbo/src/RNBO_ExternalLoader.cpp:277:28
	movw	r0, :lower16:_ZN4RNBO16dummyExtFunctionEv
	movt	r0, :upper16:_ZN4RNBO16dummyExtFunctionEv
	str	r0, [r4, #68]
.Ltmp501:
	@DEBUG_VALUE: getExtFunction:func <- %R0
	@DEBUG_VALUE: getExtFunction:this <- %R4
.LBB18_38:                              @ %_ZN4RNBO14ExternalModule14getExtFunctionEPKc.exit51.thread
	@DEBUG_VALUE: getExtFunction:this <- %R4
	@DEBUG_VALUE: getExtFunction:this <- %R4
	@DEBUG_VALUE: getExtFunction:this <- %R4
	@DEBUG_VALUE: getExtFunction:this <- %R4
	@DEBUG_VALUE: getExtFunction:this <- %R4
	@DEBUG_VALUE: getExtFunction:this <- %R4
	@DEBUG_VALUE: getExtFunction:this <- %R4
	@DEBUG_VALUE: getExtFunction:this <- %R4
	@DEBUG_VALUE: getExtFunction:this <- %R4
	@DEBUG_VALUE: getExtFunction:this <- %R4
	@DEBUG_VALUE: getExtFunction:this <- %R4
	@DEBUG_VALUE: getExtFunction:this <- %R4
	@DEBUG_VALUE: getExtFunction:this <- %R4
	@DEBUG_VALUE: getExtFunction:this <- %R4
	@DEBUG_VALUE: getExtFunction:this <- %R4
	@DEBUG_VALUE: getExtFunction:this <- %R4
	@DEBUG_VALUE: getExtFunctions:this <- %R4
	@DEBUG_VALUE: getExtFunction:this <- %R4
	.loc	66 278 29               @ /root/Bela/projects/RNBO-KPStrong/rnbo/src/RNBO_ExternalLoader.cpp:278:29
	movw	r0, :lower16:_ZN4RNBO16dummyExtFunctionEv
	movt	r0, :upper16:_ZN4RNBO16dummyExtFunctionEv
	str	r0, [r4, #72]
.Ltmp502:
	@DEBUG_VALUE: getExtFunction:func <- %R0
	@DEBUG_VALUE: getExtFunction:this <- %R4
.LBB18_39:                              @ %_ZN4RNBO14ExternalModule14getExtFunctionEPKc.exit54.thread
	@DEBUG_VALUE: getExtFunction:this <- %R4
	@DEBUG_VALUE: getExtFunction:this <- %R4
	@DEBUG_VALUE: getExtFunction:this <- %R4
	@DEBUG_VALUE: getExtFunction:this <- %R4
	@DEBUG_VALUE: getExtFunction:this <- %R4
	@DEBUG_VALUE: getExtFunction:this <- %R4
	@DEBUG_VALUE: getExtFunction:this <- %R4
	@DEBUG_VALUE: getExtFunction:this <- %R4
	@DEBUG_VALUE: getExtFunction:this <- %R4
	@DEBUG_VALUE: getExtFunction:this <- %R4
	@DEBUG_VALUE: getExtFunction:this <- %R4
	@DEBUG_VALUE: getExtFunction:this <- %R4
	@DEBUG_VALUE: getExtFunction:this <- %R4
	@DEBUG_VALUE: getExtFunction:this <- %R4
	@DEBUG_VALUE: getExtFunction:this <- %R4
	@DEBUG_VALUE: getExtFunction:this <- %R4
	@DEBUG_VALUE: getExtFunction:this <- %R4
	@DEBUG_VALUE: getExtFunctions:this <- %R4
	@DEBUG_VALUE: getExtFunction:this <- %R4
	.loc	66 280 25               @ /root/Bela/projects/RNBO-KPStrong/rnbo/src/RNBO_ExternalLoader.cpp:280:25
	movw	r0, :lower16:_ZN4RNBO16dummyExtFunctionEv
	movt	r0, :upper16:_ZN4RNBO16dummyExtFunctionEv
	str	r0, [r4, #76]
	mov	r0, #0
.Ltmp503:
	@DEBUG_VALUE: getExtFunction:func <- %R0
	@DEBUG_VALUE: getExtFunction:func <- %R0
	@DEBUG_VALUE: getExtFunction:this <- %R4
.LBB18_40:                              @ %_ZN4RNBO14ExternalModule14getExtFunctionEPKc.exit57
	@DEBUG_VALUE: getExtFunction:this <- %R4
	@DEBUG_VALUE: getExtFunction:func <- %R0
	@DEBUG_VALUE: getExtFunction:this <- %R4
	@DEBUG_VALUE: getExtFunction:this <- %R4
	@DEBUG_VALUE: getExtFunction:this <- %R4
	@DEBUG_VALUE: getExtFunction:this <- %R4
	@DEBUG_VALUE: getExtFunction:this <- %R4
	@DEBUG_VALUE: getExtFunction:this <- %R4
	@DEBUG_VALUE: getExtFunction:this <- %R4
	@DEBUG_VALUE: getExtFunction:this <- %R4
	@DEBUG_VALUE: getExtFunction:this <- %R4
	@DEBUG_VALUE: getExtFunction:this <- %R4
	@DEBUG_VALUE: getExtFunction:this <- %R4
	@DEBUG_VALUE: getExtFunction:this <- %R4
	@DEBUG_VALUE: getExtFunction:this <- %R4
	@DEBUG_VALUE: getExtFunction:this <- %R4
	@DEBUG_VALUE: getExtFunction:this <- %R4
	@DEBUG_VALUE: getExtFunction:this <- %R4
	@DEBUG_VALUE: getExtFunction:this <- %R4
	@DEBUG_VALUE: getExtFunctions:this <- %R4
	@DEBUG_VALUE: getExtFunction:this <- %R4
	.loc	66 247 7                @ /root/Bela/projects/RNBO-KPStrong/rnbo/src/RNBO_ExternalLoader.cpp:247:7
	movw	r1, :lower16:_ZN4RNBO16dummyExtFunctionEv
	cmp	r0, #0
	movt	r1, :upper16:_ZN4RNBO16dummyExtFunctionEv
	movne	r1, r0
.Ltmp504:
	@DEBUG_VALUE: getExtFunction:this <- %R4
	.loc	66 281 26               @ /root/Bela/projects/RNBO-KPStrong/rnbo/src/RNBO_ExternalLoader.cpp:281:26
	str	r1, [r4, #80]
.Ltmp505:
	@DEBUG_VALUE: getExtFunction:func <- %R1
	.loc	66 282 2                @ /root/Bela/projects/RNBO-KPStrong/rnbo/src/RNBO_ExternalLoader.cpp:282:2
	pop	{r4, r5, r11, pc}
.Ltmp506:
.Lfunc_end18:
	.size	_ZN4RNBO14ExternalModule15getExtFunctionsEv, .Lfunc_end18-_ZN4RNBO14ExternalModule15getExtFunctionsEv
	.cfi_endproc
	.fnend

	.section	.text._ZN4RNBO6String6appendEPKc,"axG",%progbits,_ZN4RNBO6String6appendEPKc,comdat
	.weak	_ZN4RNBO6String6appendEPKc
	.p2align	2
	.type	_ZN4RNBO6String6appendEPKc,%function
_ZN4RNBO6String6appendEPKc:             @ @_ZN4RNBO6String6appendEPKc
.Lfunc_begin19:
	.loc	5 71 0                  @ /root/Bela/projects/RNBO-KPStrong/rnbo/common/RNBO_String.h:71:0
	.fnstart
	.cfi_startproc
@ BB#0:
	.save	{r4, r5, r6, r7, r8, r9, r10, r11, lr}
	push	{r4, r5, r6, r7, r8, r9, r10, r11, lr}
.Ltmp507:
	.cfi_def_cfa_offset 36
.Ltmp508:
	.cfi_offset lr, -4
.Ltmp509:
	.cfi_offset r11, -8
.Ltmp510:
	.cfi_offset r10, -12
.Ltmp511:
	.cfi_offset r9, -16
.Ltmp512:
	.cfi_offset r8, -20
.Ltmp513:
	.cfi_offset r7, -24
.Ltmp514:
	.cfi_offset r6, -28
.Ltmp515:
	.cfi_offset r5, -32
.Ltmp516:
	.cfi_offset r4, -36
	.setfp	r11, sp, #28
	add	r11, sp, #28
.Ltmp517:
	.cfi_def_cfa r11, 8
	.pad	#4
	sub	sp, sp, #4
	@DEBUG_VALUE: append:this <- %R0
	@DEBUG_VALUE: append:astr <- %R1
.Ltmp518:
	.loc	31 63 11 prologue_end   @ /root/Bela/projects/RNBO-KPStrong/rnbo/common/RNBO_PlatformInterface.h:63:11
	movw	r6, :lower16:_ZZN4RNBO8Platform8instanceEvE9pInstance
	mov	r4, r0
.Ltmp519:
	@DEBUG_VALUE: append:this <- %R4
	movt	r6, :upper16:_ZZN4RNBO8Platform8instanceEvE9pInstance
	mov	r9, r1
.Ltmp520:
	@DEBUG_VALUE: append:astr <- %R9
	ldr	r0, [r6]
.Ltmp521:
	.loc	5 72 35                 @ /root/Bela/projects/RNBO-KPStrong/rnbo/common/RNBO_String.h:72:35
	ldr	r1, [r0]
	ldr	r2, [r1, #44]
	.loc	5 72 35 is_stmt 0 discriminator 2 @ /root/Bela/projects/RNBO-KPStrong/rnbo/common/RNBO_String.h:72:35
	mov	r1, r9
	blx	r2
.Ltmp522:
	.loc	5 82 43 is_stmt 1       @ /root/Bela/projects/RNBO-KPStrong/rnbo/common/RNBO_String.h:82:43
	ldr	r7, [r4, #4]
.Ltmp523:
	.loc	5 72 35 discriminator 2 @ /root/Bela/projects/RNBO-KPStrong/rnbo/common/RNBO_String.h:72:35
	mov	r10, r0
.Ltmp524:
	@DEBUG_VALUE: append:alen <- %R10
	.loc	5 75 18                 @ /root/Bela/projects/RNBO-KPStrong/rnbo/common/RNBO_String.h:75:18
	ldr	r1, [r4, #8]
.Ltmp525:
	.loc	5 73 25                 @ /root/Bela/projects/RNBO-KPStrong/rnbo/common/RNBO_String.h:73:25
	add	r5, r7, r10
.Ltmp526:
	@DEBUG_VALUE: append:newlen <- %R5
	.loc	5 75 8                  @ /root/Bela/projects/RNBO-KPStrong/rnbo/common/RNBO_String.h:75:8
	cmp	r5, r1
	blo	.LBB19_7
.Ltmp527:
@ BB#1:
	@DEBUG_VALUE: append:newlen <- %R5
	@DEBUG_VALUE: append:alen <- %R10
	@DEBUG_VALUE: append:astr <- %R9
	@DEBUG_VALUE: append:this <- %R4
	.loc	5 76 20                 @ /root/Bela/projects/RNBO-KPStrong/rnbo/common/RNBO_String.h:76:20
	ldr	r8, [r4]
.Ltmp528:
	@DEBUG_VALUE: oldptr <- %R8
	.loc	5 78 9                  @ /root/Bela/projects/RNBO-KPStrong/rnbo/common/RNBO_String.h:78:9
	cmp	r1, #15
	movls	r1, #16
.Ltmp529:
	.loc	5 78 33 is_stmt 0 discriminator 1 @ /root/Bela/projects/RNBO-KPStrong/rnbo/common/RNBO_String.h:78:33
	strls	r1, [r4, #8]
.Ltmp530:
	.loc	5 79 5 is_stmt 1 discriminator 1 @ /root/Bela/projects/RNBO-KPStrong/rnbo/common/RNBO_String.h:79:5
	cmp	r5, r1
	bhs	.LBB19_3
.Ltmp531:
@ BB#2:
	@DEBUG_VALUE: oldptr <- %R8
	@DEBUG_VALUE: append:newlen <- %R5
	@DEBUG_VALUE: append:alen <- %R10
	@DEBUG_VALUE: append:astr <- %R9
	@DEBUG_VALUE: append:this <- %R4
	mov	r0, r1
	b	.LBB19_5
.Ltmp532:
.LBB19_3:                               @ %.lr.ph
                                        @ =>This Inner Loop Header: Depth=1
	.loc	5 80 15                 @ /root/Bela/projects/RNBO-KPStrong/rnbo/common/RNBO_String.h:80:15
	lsl	r0, r1, #1
	.loc	5 79 5 discriminator 1  @ /root/Bela/projects/RNBO-KPStrong/rnbo/common/RNBO_String.h:79:5
	cmp	r5, r1, lsl #1
	mov	r1, r0
	bhs	.LBB19_3
@ BB#4:                                 @ %._crit_edge
	.loc	5 80 15                 @ /root/Bela/projects/RNBO-KPStrong/rnbo/common/RNBO_String.h:80:15
	str	r0, [r4, #8]
.LBB19_5:
	.loc	5 81 12                 @ /root/Bela/projects/RNBO-KPStrong/rnbo/common/RNBO_String.h:81:12
	bl	_Znaj
	mov	r1, r0
	.loc	5 82 22 discriminator 1 @ /root/Bela/projects/RNBO-KPStrong/rnbo/common/RNBO_String.h:82:22
	mov	r3, r7
	.loc	5 81 10                 @ /root/Bela/projects/RNBO-KPStrong/rnbo/common/RNBO_String.h:81:10
	str	r1, [r4]
.Ltmp533:
	.loc	31 63 11                @ /root/Bela/projects/RNBO-KPStrong/rnbo/common/RNBO_PlatformInterface.h:63:11
	ldr	r0, [r6]
.Ltmp534:
	.loc	5 82 22                 @ /root/Bela/projects/RNBO-KPStrong/rnbo/common/RNBO_String.h:82:22
	ldr	r2, [r0]
	ldr	r6, [r2, #32]
	.loc	5 82 22 is_stmt 0 discriminator 1 @ /root/Bela/projects/RNBO-KPStrong/rnbo/common/RNBO_String.h:82:22
	mov	r2, r8
	blx	r6
.Ltmp535:
	.loc	31 63 11 is_stmt 1      @ /root/Bela/projects/RNBO-KPStrong/rnbo/common/RNBO_PlatformInterface.h:63:11
	movw	r6, :lower16:_ZZN4RNBO8Platform8instanceEvE9pInstance
.Ltmp536:
	.loc	5 83 9                  @ /root/Bela/projects/RNBO-KPStrong/rnbo/common/RNBO_String.h:83:9
	cmp	r8, #0
.Ltmp537:
	.loc	31 63 11                @ /root/Bela/projects/RNBO-KPStrong/rnbo/common/RNBO_PlatformInterface.h:63:11
	movt	r6, :upper16:_ZZN4RNBO8Platform8instanceEvE9pInstance
	beq	.LBB19_7
.Ltmp538:
@ BB#6:
	.loc	5 84 6 discriminator 1  @ /root/Bela/projects/RNBO-KPStrong/rnbo/common/RNBO_String.h:84:6
	mov	r0, r8
	bl	_ZdaPv
.Ltmp539:
.LBB19_7:                               @ %._crit_edge18
	.loc	31 63 11                @ /root/Bela/projects/RNBO-KPStrong/rnbo/common/RNBO_PlatformInterface.h:63:11
	ldr	r0, [r6]
.Ltmp540:
	.loc	5 86 21                 @ /root/Bela/projects/RNBO-KPStrong/rnbo/common/RNBO_String.h:86:21
	ldr	r1, [r0]
	.loc	5 86 28 is_stmt 0       @ /root/Bela/projects/RNBO-KPStrong/rnbo/common/RNBO_String.h:86:28
	ldm	r4, {r2, r3}
	.loc	5 86 21                 @ /root/Bela/projects/RNBO-KPStrong/rnbo/common/RNBO_String.h:86:21
	ldr	r7, [r1, #32]
	.loc	5 86 33                 @ /root/Bela/projects/RNBO-KPStrong/rnbo/common/RNBO_String.h:86:33
	add	r1, r2, r3
	.loc	5 86 21 discriminator 1 @ /root/Bela/projects/RNBO-KPStrong/rnbo/common/RNBO_String.h:86:21
	mov	r2, r9
	mov	r3, r10
	blx	r7
	.loc	5 87 4 is_stmt 1        @ /root/Bela/projects/RNBO-KPStrong/rnbo/common/RNBO_String.h:87:4
	ldr	r0, [r4]
	.loc	5 87 17 is_stmt 0       @ /root/Bela/projects/RNBO-KPStrong/rnbo/common/RNBO_String.h:87:17
	mov	r1, #0
	strb	r1, [r0, r5]
	.loc	5 88 9 is_stmt 1        @ /root/Bela/projects/RNBO-KPStrong/rnbo/common/RNBO_String.h:88:9
	str	r5, [r4, #4]
	.loc	5 89 3                  @ /root/Bela/projects/RNBO-KPStrong/rnbo/common/RNBO_String.h:89:3
	sub	sp, r11, #28
	pop	{r4, r5, r6, r7, r8, r9, r10, r11, pc}
.Ltmp541:
.Lfunc_end19:
	.size	_ZN4RNBO6String6appendEPKc, .Lfunc_end19-_ZN4RNBO6String6appendEPKc
	.cfi_endproc
	.fnend

	.text
	.globl	_ZN4RNBO14ExternalModule14createExternalEv
	.p2align	2
	.type	_ZN4RNBO14ExternalModule14createExternalEv,%function
_ZN4RNBO14ExternalModule14createExternalEv: @ @_ZN4RNBO14ExternalModule14createExternalEv
.Lfunc_begin20:
	.loc	66 228 0                @ /root/Bela/projects/RNBO-KPStrong/rnbo/src/RNBO_ExternalLoader.cpp:228:0
	.fnstart
	.cfi_startproc
@ BB#0:
	.save	{r11, lr}
	push	{r11, lr}
.Ltmp542:
	.cfi_def_cfa_offset 8
.Ltmp543:
	.cfi_offset lr, -4
.Ltmp544:
	.cfi_offset r11, -8
	.setfp	r11, sp
	mov	r11, sp
.Ltmp545:
	.cfi_def_cfa_register r11
	.pad	#8
	sub	sp, sp, #8
	@DEBUG_VALUE: createExternal:this <- %R0
.Ltmp546:
	.loc	66 230 3 prologue_end   @ /root/Bela/projects/RNBO-KPStrong/rnbo/src/RNBO_ExternalLoader.cpp:230:3
	ldr	r1, [r0, #4]
	add	r0, sp, #4
.Ltmp547:
	@DEBUG_VALUE: createExternal:handle <- [%R0+0]
	blx	r1
.Ltmp548:
	.loc	66 231 10               @ /root/Bela/projects/RNBO-KPStrong/rnbo/src/RNBO_ExternalLoader.cpp:231:10
	ldr	r0, [sp, #4]
.Ltmp549:
	@DEBUG_VALUE: createExternal:handle <- %R0
	.loc	66 231 3 is_stmt 0      @ /root/Bela/projects/RNBO-KPStrong/rnbo/src/RNBO_ExternalLoader.cpp:231:3
	mov	sp, r11
	pop	{r11, pc}
.Ltmp550:
.Lfunc_end20:
	.size	_ZN4RNBO14ExternalModule14createExternalEv, .Lfunc_end20-_ZN4RNBO14ExternalModule14createExternalEv
	.cfi_endproc
	.fnend

	.globl	_ZN4RNBO14ExternalModule7isValidEv
	.p2align	2
	.type	_ZN4RNBO14ExternalModule7isValidEv,%function
_ZN4RNBO14ExternalModule7isValidEv:     @ @_ZN4RNBO14ExternalModule7isValidEv
.Lfunc_begin21:
	.loc	66 235 0 is_stmt 1      @ /root/Bela/projects/RNBO-KPStrong/rnbo/src/RNBO_ExternalLoader.cpp:235:0
	.fnstart
	.cfi_startproc
@ BB#0:
	@DEBUG_VALUE: isValid:this <- %R0
	.loc	66 236 3 prologue_end   @ /root/Bela/projects/RNBO-KPStrong/rnbo/src/RNBO_ExternalLoader.cpp:236:3
	ldrb	r0, [r0, #112]
	bx	lr
.Ltmp551:
.Lfunc_end21:
	.size	_ZN4RNBO14ExternalModule7isValidEv, .Lfunc_end21-_ZN4RNBO14ExternalModule7isValidEv
	.cfi_endproc
	.fnend

	.globl	_ZN4RNBO14ExternalModule14getExtFunctionEPKc
	.p2align	2
	.type	_ZN4RNBO14ExternalModule14getExtFunctionEPKc,%function
_ZN4RNBO14ExternalModule14getExtFunctionEPKc: @ @_ZN4RNBO14ExternalModule14getExtFunctionEPKc
.Lfunc_begin22:
	.loc	66 240 0                @ /root/Bela/projects/RNBO-KPStrong/rnbo/src/RNBO_ExternalLoader.cpp:240:0
	.fnstart
	.cfi_startproc
@ BB#0:
	@DEBUG_VALUE: getExtFunction:this <- %R0
	@DEBUG_VALUE: getExtFunction:name <- %R1
	.loc	66 243 7 prologue_end   @ /root/Bela/projects/RNBO-KPStrong/rnbo/src/RNBO_ExternalLoader.cpp:243:7
	ldr	r2, [r0, #108]
	mov	r0, #0
.Ltmp552:
	@DEBUG_VALUE: getExtFunction:func <- %R0
	.loc	66 243 7 is_stmt 0      @ /root/Bela/projects/RNBO-KPStrong/rnbo/src/RNBO_ExternalLoader.cpp:243:7
	cmp	r2, #0
	beq	.LBB22_2
.Ltmp553:
@ BB#1:
	@DEBUG_VALUE: getExtFunction:func <- %R0
	@DEBUG_VALUE: getExtFunction:name <- %R1
	.save	{r11, lr}
	push	{r11, lr}
.Ltmp554:
	.cfi_def_cfa_offset 8
.Ltmp555:
	.cfi_offset lr, -4
.Ltmp556:
	.cfi_offset r11, -8
	.setfp	r11, sp
	mov	r11, sp
.Ltmp557:
	.cfi_def_cfa_register r11
.Ltmp558:
	.loc	66 244 11 is_stmt 1     @ /root/Bela/projects/RNBO-KPStrong/rnbo/src/RNBO_ExternalLoader.cpp:244:11
	mov	r0, r1
.Ltmp559:
	blx	r2
.Ltmp560:
	@DEBUG_VALUE: getExtFunction:func <- %R0
	pop	{r11, lr}
.Ltmp561:
.LBB22_2:
	@DEBUG_VALUE: getExtFunction:func <- %R0
	@DEBUG_VALUE: getExtFunction:func <- %R1
	.loc	66 247 7                @ /root/Bela/projects/RNBO-KPStrong/rnbo/src/RNBO_ExternalLoader.cpp:247:7
	movw	r1, :lower16:_ZN4RNBO16dummyExtFunctionEv
.Ltmp562:
	cmp	r0, #0
	movt	r1, :upper16:_ZN4RNBO16dummyExtFunctionEv
	movne	r1, r0
	.loc	66 251 3                @ /root/Bela/projects/RNBO-KPStrong/rnbo/src/RNBO_ExternalLoader.cpp:251:3
	mov	r0, r1
	bx	lr
.Ltmp563:
.Lfunc_end22:
	.size	_ZN4RNBO14ExternalModule14getExtFunctionEPKc, .Lfunc_end22-_ZN4RNBO14ExternalModule14getExtFunctionEPKc
	.cfi_endproc
	.fnend

	.globl	_ZN4RNBO14ExternalLoaderC2EPKcS2_S2_
	.p2align	2
	.type	_ZN4RNBO14ExternalLoaderC2EPKcS2_S2_,%function
_ZN4RNBO14ExternalLoaderC2EPKcS2_S2_:   @ @_ZN4RNBO14ExternalLoaderC2EPKcS2_S2_
.Lfunc_begin23:
	.loc	66 288 0                @ /root/Bela/projects/RNBO-KPStrong/rnbo/src/RNBO_ExternalLoader.cpp:288:0
	.fnstart
	.cfi_startproc
@ BB#0:
	.save	{r4, r5, r6, r7, r8, r9, r10, r11, lr}
	push	{r4, r5, r6, r7, r8, r9, r10, r11, lr}
.Ltmp600:
	.cfi_def_cfa_offset 36
.Ltmp601:
	.cfi_offset lr, -4
.Ltmp602:
	.cfi_offset r11, -8
.Ltmp603:
	.cfi_offset r10, -12
.Ltmp604:
	.cfi_offset r9, -16
.Ltmp605:
	.cfi_offset r8, -20
.Ltmp606:
	.cfi_offset r7, -24
.Ltmp607:
	.cfi_offset r6, -28
.Ltmp608:
	.cfi_offset r5, -32
.Ltmp609:
	.cfi_offset r4, -36
	.setfp	r11, sp, #28
	add	r11, sp, #28
.Ltmp610:
	.cfi_def_cfa r11, 8
	.pad	#52
	sub	sp, sp, #52
	@DEBUG_VALUE: ExternalLoader:this <- %R0
	@DEBUG_VALUE: ExternalLoader:externalName <- %R1
	@DEBUG_VALUE: ExternalLoader:dllName <- %R2
	@DEBUG_VALUE: ExternalLoader:pathToDll <- %R3
.Ltmp611:
	.loc	66 288 2 prologue_end   @ /root/Bela/projects/RNBO-KPStrong/rnbo/src/RNBO_ExternalLoader.cpp:288:2
	movw	r1, :lower16:_ZTVN4RNBO14ExternalLoaderE
.Ltmp612:
	mov	r5, r0
.Ltmp613:
	@DEBUG_VALUE: ExternalLoader:this <- %R5
	mov	r8, r3
.Ltmp614:
	@DEBUG_VALUE: ExternalLoader:pathToDll <- %R8
	movt	r1, :upper16:_ZTVN4RNBO14ExternalLoaderE
	mov	r9, r2
.Ltmp615:
	@DEBUG_VALUE: ExternalLoader:dllName <- %R9
	mov	r0, #0
	add	r2, r1, #8
	add	r3, r1, #104
	stm	r5, {r2, r3}
	add	r1, r1, #116
.Ltmp616:
	.loc	37 34 20                @ /root/Bela/projects/RNBO-KPStrong/rnbo/common/RNBO_EngineLink.h:34:20
	str	r0, [r5, #8]
	.loc	37 35 23                @ /root/Bela/projects/RNBO-KPStrong/rnbo/common/RNBO_EngineLink.h:35:23
	str	r0, [r5, #12]
.Ltmp617:
	.loc	66 288 2                @ /root/Bela/projects/RNBO-KPStrong/rnbo/src/RNBO_ExternalLoader.cpp:288:2
	str	r1, [r5, #16]
.Ltmp618:
	.loc	13 880 9                @ /usr/bin/../lib/gcc/arm-linux-gnueabihf/6.3.0/../../../../include/c++/6.3.0/bits/shared_ptr_base.h:880:9
	str	r0, [r5, #20]
.Ltmp619:
	.loc	13 563 45               @ /usr/bin/../lib/gcc/arm-linux-gnueabihf/6.3.0/../../../../include/c++/6.3.0/bits/shared_ptr_base.h:563:45
	str	r0, [r5, #24]
.Ltmp620:
	.loc	31 63 11                @ /root/Bela/projects/RNBO-KPStrong/rnbo/common/RNBO_PlatformInterface.h:63:11
	movw	r0, :lower16:_ZZN4RNBO8Platform8instanceEvE9pInstance
	movt	r0, :upper16:_ZZN4RNBO8Platform8instanceEvE9pInstance
	ldr	r0, [r0]
.Ltmp621:
	.loc	5 72 35                 @ /root/Bela/projects/RNBO-KPStrong/rnbo/common/RNBO_String.h:72:35
	ldr	r1, [r0]
	ldr	r2, [r1, #44]
	.loc	5 72 35 is_stmt 0 discriminator 2 @ /root/Bela/projects/RNBO-KPStrong/rnbo/common/RNBO_String.h:72:35
.Ltmp564:
.Ltmp622:
	@DEBUG_VALUE: append:astr <- %R9
	@DEBUG_VALUE: copy:origin <- %R9
	@DEBUG_VALUE: String:str <- %R9
	mov	r1, r9
	blx	r2
	mov	r4, r0
.Ltmp565:
.Ltmp623:
@ BB#1:                                 @ %.preheader.i
	@DEBUG_VALUE: String:str <- %R9
	@DEBUG_VALUE: copy:origin <- %R9
	@DEBUG_VALUE: append:astr <- %R9
	@DEBUG_VALUE: ExternalLoader:dllName <- %R9
	@DEBUG_VALUE: ExternalLoader:pathToDll <- %R8
	@DEBUG_VALUE: ExternalLoader:this <- %R5
	mov	r0, #16
.Ltmp624:
	@DEBUG_VALUE: append:newlen <- %R4
	.loc	5 79 5 is_stmt 1 discriminator 1 @ /root/Bela/projects/RNBO-KPStrong/rnbo/common/RNBO_String.h:79:5
	cmp	r4, #16
	blo	.LBB23_4
.Ltmp625:
@ BB#2:                                 @ %.lr.ph.i.preheader
	@DEBUG_VALUE: append:newlen <- %R4
	@DEBUG_VALUE: String:str <- %R9
	@DEBUG_VALUE: copy:origin <- %R9
	@DEBUG_VALUE: append:astr <- %R9
	@DEBUG_VALUE: ExternalLoader:dllName <- %R9
	@DEBUG_VALUE: ExternalLoader:pathToDll <- %R8
	@DEBUG_VALUE: ExternalLoader:this <- %R5
	mov	r1, #16
.Ltmp626:
.LBB23_3:                               @ %.lr.ph.i
                                        @ =>This Inner Loop Header: Depth=1
	.loc	5 80 15                 @ /root/Bela/projects/RNBO-KPStrong/rnbo/common/RNBO_String.h:80:15
	lsl	r0, r1, #1
	.loc	5 79 5 discriminator 1  @ /root/Bela/projects/RNBO-KPStrong/rnbo/common/RNBO_String.h:79:5
	cmp	r4, r1, lsl #1
.Ltmp627:
	.loc	5 191 4                 @ /root/Bela/projects/RNBO-KPStrong/rnbo/common/RNBO_String.h:191:4
	mov	r1, r0
	bhs	.LBB23_3
.LBB23_4:                               @ %._crit_edge.i
.Ltmp628:
	.loc	5 81 12                 @ /root/Bela/projects/RNBO-KPStrong/rnbo/common/RNBO_String.h:81:12
.Ltmp566:
	bl	_Znaj
	mov	r7, r0
.Ltmp567:
.Ltmp629:
@ BB#5:                                 @ %.noexc8
	.loc	31 63 11                @ /root/Bela/projects/RNBO-KPStrong/rnbo/common/RNBO_PlatformInterface.h:63:11
	movw	r0, :lower16:_ZZN4RNBO8Platform8instanceEvE9pInstance
	movt	r0, :upper16:_ZZN4RNBO8Platform8instanceEvE9pInstance
.Ltmp630:
	.loc	31 63 11 is_stmt 0      @ /root/Bela/projects/RNBO-KPStrong/rnbo/common/RNBO_PlatformInterface.h:63:11
	ldr	r0, [r0]
.Ltmp631:
	.loc	5 82 22 is_stmt 1       @ /root/Bela/projects/RNBO-KPStrong/rnbo/common/RNBO_String.h:82:22
	ldr	r1, [r0]
	ldr	r6, [r1, #32]
	.loc	5 82 22 is_stmt 0 discriminator 1 @ /root/Bela/projects/RNBO-KPStrong/rnbo/common/RNBO_String.h:82:22
.Ltmp568:
.Ltmp632:
	@DEBUG_VALUE: oldptr <- %R3
	mov	r1, r7
	mov	r2, #0
	mov	r3, #0
.Ltmp633:
	blx	r6
.Ltmp569:
.Ltmp634:
@ BB#6:                                 @ %._crit_edge18.i
	.loc	31 63 11 is_stmt 1      @ /root/Bela/projects/RNBO-KPStrong/rnbo/common/RNBO_PlatformInterface.h:63:11
	movw	r0, :lower16:_ZZN4RNBO8Platform8instanceEvE9pInstance
	movt	r0, :upper16:_ZZN4RNBO8Platform8instanceEvE9pInstance
.Ltmp635:
	.loc	31 63 11 is_stmt 0      @ /root/Bela/projects/RNBO-KPStrong/rnbo/common/RNBO_PlatformInterface.h:63:11
	ldr	r0, [r0]
.Ltmp636:
	.loc	5 86 21 is_stmt 1       @ /root/Bela/projects/RNBO-KPStrong/rnbo/common/RNBO_String.h:86:21
	ldr	r1, [r0]
	ldr	r6, [r1, #32]
	.loc	5 86 21 is_stmt 0 discriminator 1 @ /root/Bela/projects/RNBO-KPStrong/rnbo/common/RNBO_String.h:86:21
.Ltmp570:
	mov	r1, r7
	mov	r2, r9
	mov	r3, r4
	blx	r6
.Ltmp571:
@ BB#7:
	mov	r6, #0
.Ltmp637:
	@DEBUG_VALUE: TAG:str <- %R7
	str	r9, [sp]                @ 4-byte Spill
	.loc	5 87 17 is_stmt 1       @ /root/Bela/projects/RNBO-KPStrong/rnbo/common/RNBO_String.h:87:17
	strb	r6, [r7, r4]
.Ltmp638:
	@DEBUG_VALUE: TAG:hash <- 0
	movw	r9, #63
	movt	r9, #1
.Ltmp639:
	.loc	1 279 13                @ /root/Bela/projects/RNBO-KPStrong/rnbo/common/RNBO_Types.h:279:13
	ldrb	r0, [r7]
	str	r8, [sp, #4]            @ 4-byte Spill
	str	r5, [sp, #8]            @ 4-byte Spill
	.loc	1 279 10 is_stmt 0      @ /root/Bela/projects/RNBO-KPStrong/rnbo/common/RNBO_Types.h:279:10
	cmp	r0, #0
	beq	.LBB23_10
.Ltmp640:
@ BB#8:                                 @ %tailrecurse.i.i.i.i.i.preheader
	@DEBUG_VALUE: TAG:str <- %R7
	.loc	1 281 13 is_stmt 1      @ /root/Bela/projects/RNBO-KPStrong/rnbo/common/RNBO_Types.h:281:13
	add	r1, r7, #1
	mov	r6, #0
.Ltmp641:
.LBB23_9:                               @ %tailrecurse.i.i.i.i.i
                                        @ =>This Inner Loop Header: Depth=1
	@DEBUG_VALUE: TAG:hash <- %R6
	.loc	1 281 62 is_stmt 0      @ /root/Bela/projects/RNBO-KPStrong/rnbo/common/RNBO_Types.h:281:62
	mul	r2, r6, r9
	.loc	1 279 13 is_stmt 1      @ /root/Bela/projects/RNBO-KPStrong/rnbo/common/RNBO_Types.h:279:13
	ldrb	r3, [r1], #1
	.loc	1 279 10 is_stmt 0      @ /root/Bela/projects/RNBO-KPStrong/rnbo/common/RNBO_Types.h:279:10
	cmp	r3, #0
	.loc	1 281 77 is_stmt 1      @ /root/Bela/projects/RNBO-KPStrong/rnbo/common/RNBO_Types.h:281:77
	uxtab	r6, r2, r0
.Ltmp642:
	.loc	5 226 11                @ /root/Bela/projects/RNBO-KPStrong/rnbo/common/RNBO_String.h:226:11
	mov	r0, r3
	bne	.LBB23_9
.Ltmp643:
.LBB23_10:                              @ %_ZNKSt8__detail15_Hash_code_baseIN4RNBO6StringESt4pairIKS2_St10shared_ptrINS1_14ExternalModuleEEENS_10_Select1stENS1_12StringHasherENS_18_Mod_range_hashingENS_20_Default_ranged_hashELb1EE12_M_hash_codeERS4_.exit.i.i
	.loc	23 623 60               @ /usr/bin/../lib/gcc/arm-linux-gnueabihf/6.3.0/../../../../include/c++/6.3.0/bits/hashtable.h:623:60
	movw	r0, :lower16:.L_MergedGlobals
	str	r7, [sp, #12]           @ 4-byte Spill
	movt	r0, :upper16:.L_MergedGlobals
.Ltmp644:
	@DEBUG_VALUE: operator():__den <- %R1
	@DEBUG_VALUE: _M_bucket_index:__n <- %R1
	ldr	r1, [r0, #8]
.Ltmp645:
	@DEBUG_VALUE: _M_bucket_index:__c <- %R6
	.loc	23 1413 31              @ /usr/bin/../lib/gcc/arm-linux-gnueabihf/6.3.0/../../../../include/c++/6.3.0/bits/hashtable.h:1413:31
	ldr	r4, [r0, #4]
.Ltmp646:
	.loc	4 446 20                @ /usr/bin/../lib/gcc/arm-linux-gnueabihf/6.3.0/../../../../include/c++/6.3.0/bits/hashtable_policy.h:446:20
	mov	r0, r6
	bl	__aeabi_uidivmod
	mov	r8, r1
.Ltmp647:
	.loc	23 1413 31              @ /usr/bin/../lib/gcc/arm-linux-gnueabihf/6.3.0/../../../../include/c++/6.3.0/bits/hashtable.h:1413:31
	ldr	r4, [r4, r8, lsl #2]
.Ltmp648:
	@DEBUG_VALUE: _M_find_before_node:__prev_p <- %R4
	.loc	23 1414 11              @ /usr/bin/../lib/gcc/arm-linux-gnueabihf/6.3.0/../../../../include/c++/6.3.0/bits/hashtable.h:1414:11
	cmp	r4, #0
	beq	.LBB23_18
.Ltmp649:
@ BB#11:
	@DEBUG_VALUE: _M_find_before_node:__prev_p <- %R4
	@DEBUG_VALUE: _M_bucket_index:__c <- %R6
	.loc	23 1417 67              @ /usr/bin/../lib/gcc/arm-linux-gnueabihf/6.3.0/../../../../include/c++/6.3.0/bits/hashtable.h:1417:67
	ldr	r10, [r4]
.Ltmp650:
	@DEBUG_VALUE: __p <- %R10
	.loc	4 1320 26               @ /usr/bin/../lib/gcc/arm-linux-gnueabihf/6.3.0/../../../../include/c++/6.3.0/bits/hashtable_policy.h:1320:26
	ldr	r7, [r10, #24]
.Ltmp651:
.LBB23_12:                              @ =>This Inner Loop Header: Depth=1
	.loc	4 1320 39 is_stmt 0     @ /usr/bin/../lib/gcc/arm-linux-gnueabihf/6.3.0/../../../../include/c++/6.3.0/bits/hashtable_policy.h:1320:39
	cmp	r7, r6
	bne	.LBB23_15
.Ltmp652:
@ BB#13:                                @ %_ZNKSt8__detail15_Hashtable_baseIN4RNBO6StringESt4pairIKS2_St10shared_ptrINS1_14ExternalModuleEEENS_10_Select1stESt8equal_toIS2_ENS1_12StringHasherENS_18_Mod_range_hashingENS_20_Default_ranged_hashENS_17_Hashtable_traitsILb1ELb0ELb1EEEE9_M_equalsERS4_jPNS_10_Hash_nodeIS8_Lb1EEE.exit.i.i.i.i
                                        @   in Loop: Header=BB23_12 Depth=1
	.loc	31 63 11 is_stmt 1      @ /root/Bela/projects/RNBO-KPStrong/rnbo/common/RNBO_PlatformInterface.h:63:11
	movw	r0, :lower16:_ZZN4RNBO8Platform8instanceEvE9pInstance
.Ltmp653:
	.loc	5 160 47                @ /root/Bela/projects/RNBO-KPStrong/rnbo/common/RNBO_String.h:160:47
	ldr	r2, [r10, #4]
.Ltmp654:
	@DEBUG_VALUE: _S_equals:__n <- %R10
	.loc	31 63 11                @ /root/Bela/projects/RNBO-KPStrong/rnbo/common/RNBO_PlatformInterface.h:63:11
	movt	r0, :upper16:_ZZN4RNBO8Platform8instanceEvE9pInstance
.Ltmp655:
	.loc	31 63 11 is_stmt 0      @ /root/Bela/projects/RNBO-KPStrong/rnbo/common/RNBO_PlatformInterface.h:63:11
	ldr	r0, [r0]
.Ltmp656:
	.loc	5 160 28 is_stmt 1      @ /root/Bela/projects/RNBO-KPStrong/rnbo/common/RNBO_String.h:160:28
	ldr	r1, [r0]
	ldr	r3, [r1, #48]
	.loc	5 160 28 is_stmt 0 discriminator 1 @ /root/Bela/projects/RNBO-KPStrong/rnbo/common/RNBO_String.h:160:28
.Ltmp573:
	ldr	r1, [sp, #12]           @ 4-byte Reload
	blx	r3
.Ltmp574:
.Ltmp657:
@ BB#14:                                @ %.noexc12
                                        @   in Loop: Header=BB23_12 Depth=1
	@DEBUG_VALUE: _S_equals:__n <- %R10
	.loc	23 1420 8 is_stmt 1     @ /usr/bin/../lib/gcc/arm-linux-gnueabihf/6.3.0/../../../../include/c++/6.3.0/bits/hashtable.h:1420:8
	cmp	r0, #0
	beq	.LBB23_17
.Ltmp658:
.LBB23_15:                              @ %_ZNKSt8__detail15_Hashtable_baseIN4RNBO6StringESt4pairIKS2_St10shared_ptrINS1_14ExternalModuleEEENS_10_Select1stESt8equal_toIS2_ENS1_12StringHasherENS_18_Mod_range_hashingENS_20_Default_ranged_hashENS_17_Hashtable_traitsILb1ELb0ELb1EEEE9_M_equalsERS4_jPNS_10_Hash_nodeIS8_Lb1EEE.exit.thread.i.i.i.i
                                        @   in Loop: Header=BB23_12 Depth=1
	.loc	23 1423 14              @ /usr/bin/../lib/gcc/arm-linux-gnueabihf/6.3.0/../../../../include/c++/6.3.0/bits/hashtable.h:1423:14
	ldr	r5, [r10]
	.loc	23 1423 21 is_stmt 0    @ /usr/bin/../lib/gcc/arm-linux-gnueabihf/6.3.0/../../../../include/c++/6.3.0/bits/hashtable.h:1423:21
	cmp	r5, #0
	beq	.LBB23_18
.Ltmp659:
@ BB#16:                                @   in Loop: Header=BB23_12 Depth=1
	@DEBUG_VALUE: _M_bucket_index:__p <- %R5
	@DEBUG_VALUE: _M_bucket_index:__n <- %R5
	.loc	23 623 60 is_stmt 1     @ /usr/bin/../lib/gcc/arm-linux-gnueabihf/6.3.0/../../../../include/c++/6.3.0/bits/hashtable.h:623:60
	movw	r0, :lower16:.L_MergedGlobals
.Ltmp660:
	.loc	4 1266 29 discriminator 1 @ /usr/bin/../lib/gcc/arm-linux-gnueabihf/6.3.0/../../../../include/c++/6.3.0/bits/hashtable_policy.h:1266:29
	ldr	r7, [r5, #24]
.Ltmp661:
	@DEBUG_VALUE: operator():__num <- %R7
	.loc	23 623 60               @ /usr/bin/../lib/gcc/arm-linux-gnueabihf/6.3.0/../../../../include/c++/6.3.0/bits/hashtable.h:623:60
	movt	r0, :upper16:.L_MergedGlobals
.Ltmp662:
	.loc	23 619 55               @ /usr/bin/../lib/gcc/arm-linux-gnueabihf/6.3.0/../../../../include/c++/6.3.0/bits/hashtable.h:619:55
	ldr	r1, [r0, #8]
.Ltmp663:
	@DEBUG_VALUE: _M_bucket_index:__n <- %R1
	@DEBUG_VALUE: operator():__den <- %R1
	.loc	4 446 20                @ /usr/bin/../lib/gcc/arm-linux-gnueabihf/6.3.0/../../../../include/c++/6.3.0/bits/hashtable_policy.h:446:20
	mov	r0, r7
	bl	__aeabi_uidivmod
.Ltmp664:
	.loc	23 634 28 discriminator 1 @ /usr/bin/../lib/gcc/arm-linux-gnueabihf/6.3.0/../../../../include/c++/6.3.0/bits/hashtable.h:634:28
	mov	r4, r10
	mov	r10, r5
.Ltmp665:
	@DEBUG_VALUE: _M_bucket_index:__n <- %R10
	@DEBUG_VALUE: _M_bucket_index:__p <- %R10
	.loc	23 1423 8 discriminator 1 @ /usr/bin/../lib/gcc/arm-linux-gnueabihf/6.3.0/../../../../include/c++/6.3.0/bits/hashtable.h:1423:8
	cmp	r1, r8
	beq	.LBB23_12
	b	.LBB23_18
.Ltmp666:
.LBB23_17:                              @ %_ZNKSt10_HashtableIN4RNBO6StringESt4pairIKS1_St10shared_ptrINS0_14ExternalModuleEEESaIS7_ENSt8__detail10_Select1stESt8equal_toIS1_ENS0_12StringHasherENS9_18_Mod_range_hashingENS9_20_Default_ranged_hashENS9_20_Prime_rehash_policyENS9_17_Hashtable_traitsILb1ELb0ELb1EEEE19_M_find_before_nodeEjRS3_j.exit.i.i.i
	@DEBUG_VALUE: _S_equals:__n <- %R10
	@DEBUG_VALUE: _M_find_node:__before_n <- %R4
	.loc	23 635 6                @ /usr/bin/../lib/gcc/arm-linux-gnueabihf/6.3.0/../../../../include/c++/6.3.0/bits/hashtable.h:635:6
	cmp	r4, #0
.Ltmp667:
	.loc	23 636 49               @ /usr/bin/../lib/gcc/arm-linux-gnueabihf/6.3.0/../../../../include/c++/6.3.0/bits/hashtable.h:636:49
	ldrne	r0, [r4]
.Ltmp668:
	.loc	66 293 7                @ /root/Bela/projects/RNBO-KPStrong/rnbo/src/RNBO_ExternalLoader.cpp:293:7
	cmpne	r0, #0
	bne	.LBB23_62
.Ltmp669:
.LBB23_18:                              @ %_ZNSt13unordered_mapIN4RNBO6StringESt10shared_ptrINS0_14ExternalModuleEENS0_12StringHasherESt8equal_toIS1_ESaISt4pairIKS1_S4_EEE4findERS9_.exit.thread
	mov	r0, #0
.Ltmp670:
	@DEBUG_VALUE: __shared_count<RNBO::ExternalModule, std::allocator<RNBO::ExternalModule>, const char *&, const char *&>: <- %R0
	.loc	13 1099 4               @ /usr/bin/../lib/gcc/arm-linux-gnueabihf/6.3.0/../../../../include/c++/6.3.0/bits/shared_ptr_base.h:1099:4
	str	r0, [sp, #24]
.Ltmp671:
	.loc	13 609 4                @ /usr/bin/../lib/gcc/arm-linux-gnueabihf/6.3.0/../../../../include/c++/6.3.0/bits/shared_ptr_base.h:609:4
	str	r0, [sp, #28]
.Ltmp672:
	@DEBUG_VALUE: allocate:__n <- 1
	@DEBUG_VALUE: allocate:__n <- 1
	.loc	20 104 27               @ /usr/bin/../lib/gcc/arm-linux-gnueabihf/6.3.0/../../../../include/c++/6.3.0/ext/new_allocator.h:104:27
.Ltmp576:
	mov	r0, #128
.Ltmp673:
	bl	_Znwj
	mov	r4, r0
.Ltmp577:
.Ltmp674:
@ BB#19:
	.loc	13 517 2                @ /usr/bin/../lib/gcc/arm-linux-gnueabihf/6.3.0/../../../../include/c++/6.3.0/bits/shared_ptr_base.h:517:2
	movw	r1, :lower16:_ZTVSt23_Sp_counted_ptr_inplaceIN4RNBO14ExternalModuleESaIS1_ELN9__gnu_cxx12_Lock_policyE2EE
.Ltmp675:
	.loc	13 113 9                @ /usr/bin/../lib/gcc/arm-linux-gnueabihf/6.3.0/../../../../include/c++/6.3.0/bits/shared_ptr_base.h:113:9
	mov	r0, #1
.Ltmp676:
	.loc	13 517 2                @ /usr/bin/../lib/gcc/arm-linux-gnueabihf/6.3.0/../../../../include/c++/6.3.0/bits/shared_ptr_base.h:517:2
	movt	r1, :upper16:_ZTVSt23_Sp_counted_ptr_inplaceIN4RNBO14ExternalModuleESaIS1_ELN9__gnu_cxx12_Lock_policyE2EE
	add	r1, r1, #8
.Ltmp677:
	@DEBUG_VALUE: construct<RNBO::ExternalModule, const char *&, const char *&>:__p <- %R0
	@DEBUG_VALUE: construct<RNBO::ExternalModule, const char *&, const char *&>:__p <- %R0
	str	r1, [r4]
.Ltmp678:
	.loc	13 113 9                @ /usr/bin/../lib/gcc/arm-linux-gnueabihf/6.3.0/../../../../include/c++/6.3.0/bits/shared_ptr_base.h:113:9
	str	r0, [r4, #4]
	.loc	13 113 26 is_stmt 0     @ /usr/bin/../lib/gcc/arm-linux-gnueabihf/6.3.0/../../../../include/c++/6.3.0/bits/shared_ptr_base.h:113:26
	str	r0, [r4, #8]
.Ltmp679:
	.loc	20 120 23 is_stmt 1 discriminator 2 @ /usr/bin/../lib/gcc/arm-linux-gnueabihf/6.3.0/../../../../include/c++/6.3.0/ext/new_allocator.h:120:23
.Ltmp579:
	ldm	sp, {r1, r2}
.Ltmp680:
	.loc	13 553 47               @ /usr/bin/../lib/gcc/arm-linux-gnueabihf/6.3.0/../../../../include/c++/6.3.0/bits/shared_ptr_base.h:553:47
	add	r0, r4, #12
.Ltmp681:
	ldr	r10, [sp, #12]          @ 4-byte Reload
.Ltmp682:
	.loc	20 120 23 discriminator 2 @ /usr/bin/../lib/gcc/arm-linux-gnueabihf/6.3.0/../../../../include/c++/6.3.0/ext/new_allocator.h:120:23
	bl	_ZN4RNBO14ExternalModuleC2EPKcS2_
.Ltmp580:
.Ltmp683:
@ BB#20:
	add	r0, sp, #24
.Ltmp684:
	@DEBUG_VALUE: shared_ptr<std::allocator<RNBO::ExternalModule>, const char *&, const char *&>:this <- %R0
	.loc	13 617 10               @ /usr/bin/../lib/gcc/arm-linux-gnueabihf/6.3.0/../../../../include/c++/6.3.0/bits/shared_ptr_base.h:617:10
	str	r4, [sp, #28]
.Ltmp685:
	.loc	13 1099 14              @ /usr/bin/../lib/gcc/arm-linux-gnueabihf/6.3.0/../../../../include/c++/6.3.0/bits/shared_ptr_base.h:1099:14
	add	r6, r0, #4
.Ltmp686:
	@DEBUG_VALUE: __shared_count<RNBO::ExternalModule, std::allocator<RNBO::ExternalModule>, const char *&, const char *&>:this <- %R6
	@DEBUG_VALUE: _M_get_deleter:this <- %R6
	@DEBUG_VALUE: _M_swap:__r <- %R6
	.loc	13 705 31 discriminator 1 @ /usr/bin/../lib/gcc/arm-linux-gnueabihf/6.3.0/../../../../include/c++/6.3.0/bits/shared_ptr_base.h:705:31
	ldr	r0, [r4]
.Ltmp687:
	movw	r1, :lower16:_ZTISt19_Sp_make_shared_tag
	movt	r1, :upper16:_ZTISt19_Sp_make_shared_tag
.Ltmp688:
	@DEBUG_VALUE: _M_get_deleter:__ti <- %R1
	ldr	r2, [r0, #16]
	mov	r0, r4
	blx	r2
.Ltmp689:
	mov	r1, r0
.Ltmp690:
	@DEBUG_VALUE: __p <- %R1
	.loc	13 1106 4               @ /usr/bin/../lib/gcc/arm-linux-gnueabihf/6.3.0/../../../../include/c++/6.3.0/bits/shared_ptr_base.h:1106:4
	mov	r0, r6
	mov	r2, r1
	.loc	13 1105 11              @ /usr/bin/../lib/gcc/arm-linux-gnueabihf/6.3.0/../../../../include/c++/6.3.0/bits/shared_ptr_base.h:1105:11
	str	r1, [sp, #24]
	.loc	13 1106 4               @ /usr/bin/../lib/gcc/arm-linux-gnueabihf/6.3.0/../../../../include/c++/6.3.0/bits/shared_ptr_base.h:1106:4
	bl	_ZSt32__enable_shared_from_this_helperILN9__gnu_cxx12_Lock_policyE2EEvRKSt14__shared_countIXT_EEz
.Ltmp691:
	mov	r0, #0
.Ltmp692:
	@DEBUG_VALUE: allocate: <- %R0
	.loc	5 39 31                 @ /root/Bela/projects/RNBO-KPStrong/rnbo/common/RNBO_String.h:39:31
	str	r0, [sp, #32]
	.loc	5 39 55 is_stmt 0       @ /root/Bela/projects/RNBO-KPStrong/rnbo/common/RNBO_String.h:39:55
	str	r0, [sp, #40]
.Ltmp693:
	.loc	5 56 49 is_stmt 1 discriminator 2 @ /root/Bela/projects/RNBO-KPStrong/rnbo/common/RNBO_String.h:56:49
	str	r0, [sp, #36]
.Ltmp694:
	.loc	31 63 11                @ /root/Bela/projects/RNBO-KPStrong/rnbo/common/RNBO_PlatformInterface.h:63:11
	movw	r0, :lower16:_ZZN4RNBO8Platform8instanceEvE9pInstance
.Ltmp695:
	movt	r0, :upper16:_ZZN4RNBO8Platform8instanceEvE9pInstance
.Ltmp696:
	.loc	31 63 11 is_stmt 0      @ /root/Bela/projects/RNBO-KPStrong/rnbo/common/RNBO_PlatformInterface.h:63:11
	ldr	r0, [r0]
.Ltmp697:
	.loc	5 72 35 is_stmt 1       @ /root/Bela/projects/RNBO-KPStrong/rnbo/common/RNBO_String.h:72:35
	ldr	r1, [r0]
	ldr	r2, [r1, #44]
	.loc	5 72 35 is_stmt 0 discriminator 2 @ /root/Bela/projects/RNBO-KPStrong/rnbo/common/RNBO_String.h:72:35
.Ltmp582:
.Ltmp698:
	@DEBUG_VALUE: append:astr <- [%SP+12]
	mov	r1, r10
	blx	r2
.Ltmp699:
	mov	r6, r0
.Ltmp700:
.Ltmp583:
@ BB#21:                                @ %.noexc20
.Ltmp701:
	.loc	5 82 43 is_stmt 1       @ /root/Bela/projects/RNBO-KPStrong/rnbo/common/RNBO_String.h:82:43
	ldr	r7, [sp, #36]
.Ltmp702:
	.loc	5 75 18                 @ /root/Bela/projects/RNBO-KPStrong/rnbo/common/RNBO_String.h:75:18
	ldr	r1, [sp, #40]
.Ltmp703:
	.loc	5 73 25                 @ /root/Bela/projects/RNBO-KPStrong/rnbo/common/RNBO_String.h:73:25
	add	r5, r7, r6
.Ltmp704:
	@DEBUG_VALUE: append:newlen <- %R5
	.loc	5 75 8                  @ /root/Bela/projects/RNBO-KPStrong/rnbo/common/RNBO_String.h:75:8
	cmp	r5, r1
	blo	.LBB23_30
.Ltmp705:
@ BB#22:
	@DEBUG_VALUE: append:newlen <- %R5
	.loc	5 76 20                 @ /root/Bela/projects/RNBO-KPStrong/rnbo/common/RNBO_String.h:76:20
	ldr	r8, [sp, #32]
.Ltmp706:
	@DEBUG_VALUE: oldptr <- %R8
	.loc	5 78 9                  @ /root/Bela/projects/RNBO-KPStrong/rnbo/common/RNBO_String.h:78:9
	cmp	r1, #15
	movls	r1, #16
.Ltmp707:
	.loc	5 78 33 is_stmt 0 discriminator 1 @ /root/Bela/projects/RNBO-KPStrong/rnbo/common/RNBO_String.h:78:33
	strls	r1, [sp, #40]
.Ltmp708:
	.loc	5 79 5 is_stmt 1 discriminator 1 @ /root/Bela/projects/RNBO-KPStrong/rnbo/common/RNBO_String.h:79:5
	cmp	r5, r1
	bhs	.LBB23_24
.Ltmp709:
@ BB#23:
	@DEBUG_VALUE: oldptr <- %R8
	@DEBUG_VALUE: append:newlen <- %R5
	.loc	5 191 4                 @ /root/Bela/projects/RNBO-KPStrong/rnbo/common/RNBO_String.h:191:4
	mov	r0, r1
	b	.LBB23_26
.Ltmp710:
.LBB23_24:                              @ %.lr.ph.i16
                                        @ =>This Inner Loop Header: Depth=1
	.loc	5 80 15                 @ /root/Bela/projects/RNBO-KPStrong/rnbo/common/RNBO_String.h:80:15
	lsl	r0, r1, #1
	.loc	5 79 5 discriminator 1  @ /root/Bela/projects/RNBO-KPStrong/rnbo/common/RNBO_String.h:79:5
	cmp	r5, r1, lsl #1
.Ltmp711:
	.loc	5 191 4                 @ /root/Bela/projects/RNBO-KPStrong/rnbo/common/RNBO_String.h:191:4
	mov	r1, r0
.Ltmp712:
	.loc	5 79 5 discriminator 1  @ /root/Bela/projects/RNBO-KPStrong/rnbo/common/RNBO_String.h:79:5
	bhs	.LBB23_24
@ BB#25:                                @ %._crit_edge.i17
	.loc	5 80 15                 @ /root/Bela/projects/RNBO-KPStrong/rnbo/common/RNBO_String.h:80:15
	str	r0, [sp, #40]
.LBB23_26:
	.loc	5 81 12                 @ /root/Bela/projects/RNBO-KPStrong/rnbo/common/RNBO_String.h:81:12
.Ltmp584:
	bl	_Znaj
	mov	r1, r0
.Ltmp585:
.Ltmp713:
@ BB#27:                                @ %.noexc21
	.loc	31 63 11                @ /root/Bela/projects/RNBO-KPStrong/rnbo/common/RNBO_PlatformInterface.h:63:11
	movw	r0, :lower16:_ZZN4RNBO8Platform8instanceEvE9pInstance
.Ltmp714:
	.loc	5 81 10                 @ /root/Bela/projects/RNBO-KPStrong/rnbo/common/RNBO_String.h:81:10
	str	r1, [sp, #32]
.Ltmp715:
	.loc	31 63 11                @ /root/Bela/projects/RNBO-KPStrong/rnbo/common/RNBO_PlatformInterface.h:63:11
	movt	r0, :upper16:_ZZN4RNBO8Platform8instanceEvE9pInstance
.Ltmp716:
	.loc	31 63 11 is_stmt 0      @ /root/Bela/projects/RNBO-KPStrong/rnbo/common/RNBO_PlatformInterface.h:63:11
	ldr	r0, [r0]
.Ltmp717:
	.loc	5 82 22 is_stmt 1       @ /root/Bela/projects/RNBO-KPStrong/rnbo/common/RNBO_String.h:82:22
	ldr	r2, [r0]
	ldr	r4, [r2, #32]
	.loc	5 82 22 is_stmt 0 discriminator 1 @ /root/Bela/projects/RNBO-KPStrong/rnbo/common/RNBO_String.h:82:22
.Ltmp586:
	mov	r2, r8
	mov	r3, r7
	blx	r4
.Ltmp587:
@ BB#28:                                @ %.noexc22
	.loc	5 83 9 is_stmt 1        @ /root/Bela/projects/RNBO-KPStrong/rnbo/common/RNBO_String.h:83:9
	cmp	r8, #0
	beq	.LBB23_30
@ BB#29:
.Ltmp718:
	.loc	5 84 6 discriminator 1  @ /root/Bela/projects/RNBO-KPStrong/rnbo/common/RNBO_String.h:84:6
	mov	r0, r8
	bl	_ZdaPv
.Ltmp719:
.LBB23_30:                              @ %._crit_edge18.i19
	@DEBUG_VALUE: append:alen <- %R6
	.loc	31 63 11                @ /root/Bela/projects/RNBO-KPStrong/rnbo/common/RNBO_PlatformInterface.h:63:11
	movw	r0, :lower16:_ZZN4RNBO8Platform8instanceEvE9pInstance
.Ltmp720:
	.loc	5 86 28                 @ /root/Bela/projects/RNBO-KPStrong/rnbo/common/RNBO_String.h:86:28
	ldr	r2, [sp, #32]
.Ltmp721:
	.loc	31 63 11                @ /root/Bela/projects/RNBO-KPStrong/rnbo/common/RNBO_PlatformInterface.h:63:11
	movt	r0, :upper16:_ZZN4RNBO8Platform8instanceEvE9pInstance
.Ltmp722:
	.loc	5 86 35                 @ /root/Bela/projects/RNBO-KPStrong/rnbo/common/RNBO_String.h:86:35
	ldr	r3, [sp, #36]
.Ltmp723:
	.loc	31 63 11                @ /root/Bela/projects/RNBO-KPStrong/rnbo/common/RNBO_PlatformInterface.h:63:11
	ldr	r0, [r0]
.Ltmp724:
	.loc	5 86 21                 @ /root/Bela/projects/RNBO-KPStrong/rnbo/common/RNBO_String.h:86:21
	ldr	r1, [r0]
	ldr	r7, [r1, #32]
	.loc	5 86 21 is_stmt 0 discriminator 1 @ /root/Bela/projects/RNBO-KPStrong/rnbo/common/RNBO_String.h:86:21
.Ltmp588:
	.loc	5 86 33                 @ /root/Bela/projects/RNBO-KPStrong/rnbo/common/RNBO_String.h:86:33
	add	r1, r2, r3
	.loc	5 86 21 discriminator 1 @ /root/Bela/projects/RNBO-KPStrong/rnbo/common/RNBO_String.h:86:21
	mov	r2, r10
	mov	r3, r6
	blx	r7
.Ltmp589:
.Ltmp725:
@ BB#31:
	@DEBUG_VALUE: append:alen <- %R6
	.loc	5 87 4 is_stmt 1        @ /root/Bela/projects/RNBO-KPStrong/rnbo/common/RNBO_String.h:87:4
	ldr	r0, [sp, #32]
	mov	r1, #0
	.loc	5 87 17 is_stmt 0       @ /root/Bela/projects/RNBO-KPStrong/rnbo/common/RNBO_String.h:87:17
	strb	r1, [r0, r5]
.Ltmp726:
	.loc	13 936 20 is_stmt 1     @ /usr/bin/../lib/gcc/arm-linux-gnueabihf/6.3.0/../../../../include/c++/6.3.0/bits/shared_ptr_base.h:936:20
	ldr	r0, [sp, #24]
.Ltmp727:
	.loc	5 88 9                  @ /root/Bela/projects/RNBO-KPStrong/rnbo/common/RNBO_String.h:88:9
	str	r5, [sp, #36]
.Ltmp728:
	.loc	13 936 9                @ /usr/bin/../lib/gcc/arm-linux-gnueabihf/6.3.0/../../../../include/c++/6.3.0/bits/shared_ptr_base.h:936:9
	str	r0, [sp, #44]
.Ltmp729:
	.loc	13 690 37               @ /usr/bin/../lib/gcc/arm-linux-gnueabihf/6.3.0/../../../../include/c++/6.3.0/bits/shared_ptr_base.h:690:37
	ldr	r0, [sp, #28]
	.loc	13 691 12               @ /usr/bin/../lib/gcc/arm-linux-gnueabihf/6.3.0/../../../../include/c++/6.3.0/bits/shared_ptr_base.h:691:12
	str	r1, [sp, #28]
	.loc	13 692 8                @ /usr/bin/../lib/gcc/arm-linux-gnueabihf/6.3.0/../../../../include/c++/6.3.0/bits/shared_ptr_base.h:692:8
	str	r0, [sp, #48]
.Ltmp730:
	.loc	13 939 13               @ /usr/bin/../lib/gcc/arm-linux-gnueabihf/6.3.0/../../../../include/c++/6.3.0/bits/shared_ptr_base.h:939:13
	str	r1, [sp, #24]
.Ltmp731:
	.loc	4 901 15 discriminator 1 @ /usr/bin/../lib/gcc/arm-linux-gnueabihf/6.3.0/../../../../include/c++/6.3.0/bits/hashtable_policy.h:901:15
.Ltmp591:
.Ltmp732:
	.loc	23 623 60               @ /usr/bin/../lib/gcc/arm-linux-gnueabihf/6.3.0/../../../../include/c++/6.3.0/bits/hashtable.h:623:60
	movw	r0, :lower16:.L_MergedGlobals
	add	r2, sp, #32
.Ltmp733:
	@DEBUG_VALUE: insert<std::pair<RNBO::String, std::shared_ptr<RNBO::ExternalModule> >, void>:__v <- %R2
	@DEBUG_VALUE: insert<std::pair<RNBO::String, std::shared_ptr<RNBO::ExternalModule> >, void>:__x <- %R2
	movt	r0, :upper16:.L_MergedGlobals
.Ltmp734:
	.loc	4 901 15 discriminator 1 @ /usr/bin/../lib/gcc/arm-linux-gnueabihf/6.3.0/../../../../include/c++/6.3.0/bits/hashtable_policy.h:901:15
	add	r1, r0, #4
.Ltmp735:
	@DEBUG_VALUE: insert<std::pair<RNBO::String, std::shared_ptr<RNBO::ExternalModule> >, void>:__h <- %R1
	add	r0, sp, #16
	bl	_ZNSt10_HashtableIN4RNBO6StringESt4pairIKS1_St10shared_ptrINS0_14ExternalModuleEEESaIS7_ENSt8__detail10_Select1stESt8equal_toIS1_ENS0_12StringHasherENS9_18_Mod_range_hashingENS9_20_Default_ranged_hashENS9_20_Prime_rehash_policyENS9_17_Hashtable_traitsILb1ELb0ELb1EEEE10_M_emplaceIJS2_IS1_S6_EEEES2_INS9_14_Node_iteratorIS7_Lb0ELb1EEEbESt17integral_constantIbLb1EEDpOT_
.Ltmp736:
.Ltmp592:
.Ltmp737:
@ BB#32:                                @ %_ZNSt13unordered_mapIN4RNBO6StringESt10shared_ptrINS0_14ExternalModuleEENS0_12StringHasherESt8equal_toIS1_ESaISt4pairIKS1_S4_EEE6insertIS8_IS1_S4_EvEES8_INSt8__detail14_Node_iteratorISA_Lb0ELb1EEEbEOT_.exit
	@DEBUG_VALUE: append:alen <- %R6
	.loc	13 661 6                @ /usr/bin/../lib/gcc/arm-linux-gnueabihf/6.3.0/../../../../include/c++/6.3.0/bits/shared_ptr_base.h:661:6
	ldr	r6, [sp, #48]
.Ltmp738:
	@DEBUG_VALUE: _M_release:this <- %R6
	.loc	13 661 6 is_stmt 0      @ /usr/bin/../lib/gcc/arm-linux-gnueabihf/6.3.0/../../../../include/c++/6.3.0/bits/shared_ptr_base.h:661:6
	cmp	r6, #0
	beq	.LBB23_46
.Ltmp739:
@ BB#33:
	@DEBUG_VALUE: _M_release:this <- %R6
	@DEBUG_VALUE: __exchange_and_add_dispatch:__val <- -1
	.file	67 "/usr/bin/../lib/gcc/arm-linux-gnueabihf/6.3.0/../../../../include/c++/6.3.0/ext" "atomicity.h"
	.loc	67 81 9 is_stmt 1       @ /usr/bin/../lib/gcc/arm-linux-gnueabihf/6.3.0/../../../../include/c++/6.3.0/ext/atomicity.h:81:9
	movw	r4, :lower16:__pthread_key_create
.Ltmp740:
	.loc	13 147 46               @ /usr/bin/../lib/gcc/arm-linux-gnueabihf/6.3.0/../../../../include/c++/6.3.0/bits/shared_ptr_base.h:147:46
	add	r0, r6, #4
.Ltmp741:
	.loc	67 81 9                 @ /usr/bin/../lib/gcc/arm-linux-gnueabihf/6.3.0/../../../../include/c++/6.3.0/ext/atomicity.h:81:9
	movt	r4, :upper16:__pthread_key_create
	cmp	r4, #0
	beq	.LBB23_37
.Ltmp742:
@ BB#34:
	@DEBUG_VALUE: _M_release:this <- %R6
	@DEBUG_VALUE: __exchange_and_add:__val <- -1
	.loc	67 49 12                @ /usr/bin/../lib/gcc/arm-linux-gnueabihf/6.3.0/../../../../include/c++/6.3.0/ext/atomicity.h:49:12
	dmb	ish
.Ltmp743:
.LBB23_35:                              @ %atomicrmw.start
                                        @ =>This Inner Loop Header: Depth=1
	ldrex	r1, [r0]
	sub	r2, r1, #1
	strex	r3, r2, [r0]
	cmp	r3, #0
	bne	.LBB23_35
@ BB#36:                                @ %atomicrmw.end
	dmb	ish
	b	.LBB23_38
.Ltmp744:
.LBB23_37:
	@DEBUG_VALUE: _M_release:this <- %R6
	@DEBUG_VALUE: __exchange_and_add_single:__val <- -1
	.loc	67 67 29                @ /usr/bin/../lib/gcc/arm-linux-gnueabihf/6.3.0/../../../../include/c++/6.3.0/ext/atomicity.h:67:29
	ldr	r1, [r0]
.Ltmp745:
	@DEBUG_VALUE: __exchange_and_add_single:__result <- %R1
	.loc	67 68 12                @ /usr/bin/../lib/gcc/arm-linux-gnueabihf/6.3.0/../../../../include/c++/6.3.0/ext/atomicity.h:68:12
	sub	r2, r1, #1
	str	r2, [r0]
.Ltmp746:
.LBB23_38:                              @ %_ZN9__gnu_cxxL27__exchange_and_add_dispatchEPii.exit.i.i.i.i
	.loc	13 147 6 discriminator 1 @ /usr/bin/../lib/gcc/arm-linux-gnueabihf/6.3.0/../../../../include/c++/6.3.0/bits/shared_ptr_base.h:147:6
	cmp	r1, #1
	bne	.LBB23_46
@ BB#39:
.Ltmp747:
	.loc	13 150 6                @ /usr/bin/../lib/gcc/arm-linux-gnueabihf/6.3.0/../../../../include/c++/6.3.0/bits/shared_ptr_base.h:150:6
	mov	r5, r6
	ldr	r0, [r5], #8
	ldr	r1, [r0, #8]
	mov	r0, r6
	blx	r1
.Ltmp748:
	@DEBUG_VALUE: __exchange_and_add_dispatch:__val <- -1
	.loc	67 81 9                 @ /usr/bin/../lib/gcc/arm-linux-gnueabihf/6.3.0/../../../../include/c++/6.3.0/ext/atomicity.h:81:9
	cmp	r4, #0
	beq	.LBB23_43
@ BB#40:
.Ltmp749:
	@DEBUG_VALUE: __exchange_and_add:__val <- -1
	.loc	67 49 12                @ /usr/bin/../lib/gcc/arm-linux-gnueabihf/6.3.0/../../../../include/c++/6.3.0/ext/atomicity.h:49:12
	dmb	ish
.LBB23_41:                              @ %atomicrmw.start130
                                        @ =>This Inner Loop Header: Depth=1
	ldrex	r0, [r5]
	sub	r1, r0, #1
	strex	r2, r1, [r5]
	cmp	r2, #0
	bne	.LBB23_41
@ BB#42:                                @ %atomicrmw.end129
	dmb	ish
	b	.LBB23_44
.Ltmp750:
.LBB23_43:
	@DEBUG_VALUE: __exchange_and_add_single:__val <- -1
	.loc	67 67 29                @ /usr/bin/../lib/gcc/arm-linux-gnueabihf/6.3.0/../../../../include/c++/6.3.0/ext/atomicity.h:67:29
	ldr	r0, [r5]
.Ltmp751:
	@DEBUG_VALUE: __exchange_and_add_single:__result <- %R0
	.loc	67 68 12                @ /usr/bin/../lib/gcc/arm-linux-gnueabihf/6.3.0/../../../../include/c++/6.3.0/ext/atomicity.h:68:12
	sub	r1, r0, #1
	str	r1, [r5]
.Ltmp752:
.LBB23_44:                              @ %_ZN9__gnu_cxxL27__exchange_and_add_dispatchEPii.exit2.i.i.i.i
	.loc	13 162 10 discriminator 1 @ /usr/bin/../lib/gcc/arm-linux-gnueabihf/6.3.0/../../../../include/c++/6.3.0/bits/shared_ptr_base.h:162:10
	cmp	r0, #1
	bne	.LBB23_46
@ BB#45:
.Ltmp753:
	.loc	13 166 10               @ /usr/bin/../lib/gcc/arm-linux-gnueabihf/6.3.0/../../../../include/c++/6.3.0/bits/shared_ptr_base.h:166:10
	ldr	r0, [r6]
	ldr	r1, [r0, #12]
	mov	r0, r6
	blx	r1
.Ltmp754:
.LBB23_46:                              @ %_ZNSt12__shared_ptrIN4RNBO14ExternalModuleELN9__gnu_cxx12_Lock_policyE2EED2Ev.exit.i
	.loc	5 44 24                 @ /root/Bela/projects/RNBO-KPStrong/rnbo/common/RNBO_String.h:44:24
	ldr	r0, [sp, #32]
	.loc	5 44 15 is_stmt 0       @ /root/Bela/projects/RNBO-KPStrong/rnbo/common/RNBO_String.h:44:15
	cmp	r0, #0
	beq	.LBB23_48
@ BB#47:
	.loc	5 44 15 discriminator 1 @ /root/Bela/projects/RNBO-KPStrong/rnbo/common/RNBO_String.h:44:15
	bl	_ZdaPv
.Ltmp755:
.LBB23_48:                              @ %_ZNSt4pairIN4RNBO6StringESt10shared_ptrINS0_14ExternalModuleEEED2Ev.exit
	.loc	13 661 6 is_stmt 1      @ /usr/bin/../lib/gcc/arm-linux-gnueabihf/6.3.0/../../../../include/c++/6.3.0/bits/shared_ptr_base.h:661:6
	ldr	r6, [sp, #28]
.Ltmp756:
	@DEBUG_VALUE: _M_release:this <- %R6
	.loc	13 661 6 is_stmt 0      @ /usr/bin/../lib/gcc/arm-linux-gnueabihf/6.3.0/../../../../include/c++/6.3.0/bits/shared_ptr_base.h:661:6
	cmp	r6, #0
	beq	.LBB23_62
.Ltmp757:
@ BB#49:
	@DEBUG_VALUE: _M_release:this <- %R6
	@DEBUG_VALUE: __exchange_and_add_dispatch:__val <- -1
	.loc	67 81 9 is_stmt 1       @ /usr/bin/../lib/gcc/arm-linux-gnueabihf/6.3.0/../../../../include/c++/6.3.0/ext/atomicity.h:81:9
	movw	r4, :lower16:__pthread_key_create
.Ltmp758:
	.loc	13 147 46               @ /usr/bin/../lib/gcc/arm-linux-gnueabihf/6.3.0/../../../../include/c++/6.3.0/bits/shared_ptr_base.h:147:46
	add	r0, r6, #4
.Ltmp759:
	.loc	67 81 9                 @ /usr/bin/../lib/gcc/arm-linux-gnueabihf/6.3.0/../../../../include/c++/6.3.0/ext/atomicity.h:81:9
	movt	r4, :upper16:__pthread_key_create
	cmp	r4, #0
	beq	.LBB23_53
.Ltmp760:
@ BB#50:
	@DEBUG_VALUE: _M_release:this <- %R6
	@DEBUG_VALUE: __exchange_and_add:__val <- -1
	.loc	67 49 12                @ /usr/bin/../lib/gcc/arm-linux-gnueabihf/6.3.0/../../../../include/c++/6.3.0/ext/atomicity.h:49:12
	dmb	ish
.Ltmp761:
.LBB23_51:                              @ %atomicrmw.start134
                                        @ =>This Inner Loop Header: Depth=1
	ldrex	r1, [r0]
	sub	r2, r1, #1
	strex	r3, r2, [r0]
	cmp	r3, #0
	bne	.LBB23_51
@ BB#52:                                @ %atomicrmw.end133
	dmb	ish
	b	.LBB23_54
.Ltmp762:
.LBB23_53:
	@DEBUG_VALUE: _M_release:this <- %R6
	@DEBUG_VALUE: __exchange_and_add_single:__val <- -1
	.loc	67 67 29                @ /usr/bin/../lib/gcc/arm-linux-gnueabihf/6.3.0/../../../../include/c++/6.3.0/ext/atomicity.h:67:29
	ldr	r1, [r0]
.Ltmp763:
	@DEBUG_VALUE: __exchange_and_add_single:__result <- %R1
	.loc	67 68 12                @ /usr/bin/../lib/gcc/arm-linux-gnueabihf/6.3.0/../../../../include/c++/6.3.0/ext/atomicity.h:68:12
	sub	r2, r1, #1
	str	r2, [r0]
.Ltmp764:
.LBB23_54:                              @ %_ZN9__gnu_cxxL27__exchange_and_add_dispatchEPii.exit.i.i.i27
	.loc	13 147 6 discriminator 1 @ /usr/bin/../lib/gcc/arm-linux-gnueabihf/6.3.0/../../../../include/c++/6.3.0/bits/shared_ptr_base.h:147:6
	cmp	r1, #1
	bne	.LBB23_62
@ BB#55:
.Ltmp765:
	.loc	13 150 6                @ /usr/bin/../lib/gcc/arm-linux-gnueabihf/6.3.0/../../../../include/c++/6.3.0/bits/shared_ptr_base.h:150:6
	mov	r5, r6
	ldr	r0, [r5], #8
	ldr	r1, [r0, #8]
	mov	r0, r6
	blx	r1
.Ltmp766:
	@DEBUG_VALUE: __exchange_and_add_dispatch:__val <- -1
	.loc	67 81 9                 @ /usr/bin/../lib/gcc/arm-linux-gnueabihf/6.3.0/../../../../include/c++/6.3.0/ext/atomicity.h:81:9
	cmp	r4, #0
	beq	.LBB23_59
@ BB#56:
.Ltmp767:
	@DEBUG_VALUE: __exchange_and_add:__val <- -1
	.loc	67 49 12                @ /usr/bin/../lib/gcc/arm-linux-gnueabihf/6.3.0/../../../../include/c++/6.3.0/ext/atomicity.h:49:12
	dmb	ish
.LBB23_57:                              @ %atomicrmw.start138
                                        @ =>This Inner Loop Header: Depth=1
	ldrex	r0, [r5]
	sub	r1, r0, #1
	strex	r2, r1, [r5]
	cmp	r2, #0
	bne	.LBB23_57
@ BB#58:                                @ %atomicrmw.end137
	dmb	ish
	b	.LBB23_60
.Ltmp768:
.LBB23_59:
	@DEBUG_VALUE: __exchange_and_add_single:__val <- -1
	.loc	67 67 29                @ /usr/bin/../lib/gcc/arm-linux-gnueabihf/6.3.0/../../../../include/c++/6.3.0/ext/atomicity.h:67:29
	ldr	r0, [r5]
.Ltmp769:
	@DEBUG_VALUE: __exchange_and_add_single:__result <- %R0
	.loc	67 68 12                @ /usr/bin/../lib/gcc/arm-linux-gnueabihf/6.3.0/../../../../include/c++/6.3.0/ext/atomicity.h:68:12
	sub	r1, r0, #1
	str	r1, [r5]
.Ltmp770:
.LBB23_60:                              @ %_ZN9__gnu_cxxL27__exchange_and_add_dispatchEPii.exit2.i.i.i29
	.loc	13 162 10 discriminator 1 @ /usr/bin/../lib/gcc/arm-linux-gnueabihf/6.3.0/../../../../include/c++/6.3.0/bits/shared_ptr_base.h:162:10
	cmp	r0, #1
	bne	.LBB23_62
@ BB#61:
.Ltmp771:
	.loc	13 166 10               @ /usr/bin/../lib/gcc/arm-linux-gnueabihf/6.3.0/../../../../include/c++/6.3.0/bits/shared_ptr_base.h:166:10
	ldr	r0, [r6]
	ldr	r1, [r0, #12]
	mov	r0, r6
	blx	r1
.Ltmp772:
.LBB23_62:
	@DEBUG_VALUE: TAG:hash <- 0
	@DEBUG_VALUE: TAG:str <- [%SP+12]
	ldr	r1, [sp, #12]           @ 4-byte Reload
	mov	r8, #0
.Ltmp773:
	.loc	5 226 11                @ /root/Bela/projects/RNBO-KPStrong/rnbo/common/RNBO_String.h:226:11
	mov	r6, #0
.Ltmp774:
	.loc	1 279 13                @ /root/Bela/projects/RNBO-KPStrong/rnbo/common/RNBO_Types.h:279:13
	ldrb	r0, [r1]
	.loc	1 279 10 is_stmt 0      @ /root/Bela/projects/RNBO-KPStrong/rnbo/common/RNBO_Types.h:279:10
	cmp	r0, #0
	beq	.LBB23_65
.Ltmp775:
@ BB#63:                                @ %tailrecurse.i.i.i.i.i44.preheader
	@DEBUG_VALUE: TAG:str <- [%SP+12]
	.loc	1 281 13 is_stmt 1      @ /root/Bela/projects/RNBO-KPStrong/rnbo/common/RNBO_Types.h:281:13
	add	r1, r1, #1
	mov	r6, #0
.Ltmp776:
.LBB23_64:                              @ %tailrecurse.i.i.i.i.i44
                                        @ =>This Inner Loop Header: Depth=1
	@DEBUG_VALUE: TAG:hash <- %R6
	.loc	1 281 62 is_stmt 0      @ /root/Bela/projects/RNBO-KPStrong/rnbo/common/RNBO_Types.h:281:62
	mul	r2, r6, r9
	.loc	1 279 13 is_stmt 1      @ /root/Bela/projects/RNBO-KPStrong/rnbo/common/RNBO_Types.h:279:13
	ldrb	r3, [r1], #1
	.loc	1 279 10 is_stmt 0      @ /root/Bela/projects/RNBO-KPStrong/rnbo/common/RNBO_Types.h:279:10
	cmp	r3, #0
	.loc	1 281 77 is_stmt 1      @ /root/Bela/projects/RNBO-KPStrong/rnbo/common/RNBO_Types.h:281:77
	uxtab	r6, r2, r0
.Ltmp777:
	.loc	5 226 11                @ /root/Bela/projects/RNBO-KPStrong/rnbo/common/RNBO_String.h:226:11
	mov	r0, r3
	bne	.LBB23_64
.Ltmp778:
.LBB23_65:                              @ %_ZNKSt8__detail15_Hash_code_baseIN4RNBO6StringESt4pairIKS2_St10shared_ptrINS1_14ExternalModuleEEENS_10_Select1stENS1_12StringHasherENS_18_Mod_range_hashingENS_20_Default_ranged_hashELb1EE12_M_hash_codeERS4_.exit.i.i46
	@DEBUG_VALUE: _M_bucket_index:__n <- %R1
	@DEBUG_VALUE: operator():__den <- %R1
	.loc	23 623 60               @ /usr/bin/../lib/gcc/arm-linux-gnueabihf/6.3.0/../../../../include/c++/6.3.0/bits/hashtable.h:623:60
	movw	r0, :lower16:.L_MergedGlobals
	movt	r0, :upper16:.L_MergedGlobals
.Ltmp779:
	.loc	23 623 60 is_stmt 0     @ /usr/bin/../lib/gcc/arm-linux-gnueabihf/6.3.0/../../../../include/c++/6.3.0/bits/hashtable.h:623:60
	ldr	r1, [r0, #8]
.Ltmp780:
	@DEBUG_VALUE: _M_bucket_index:__c <- %R6
	.loc	23 1413 31 is_stmt 1    @ /usr/bin/../lib/gcc/arm-linux-gnueabihf/6.3.0/../../../../include/c++/6.3.0/bits/hashtable.h:1413:31
	ldr	r4, [r0, #4]
.Ltmp781:
	.loc	4 446 20                @ /usr/bin/../lib/gcc/arm-linux-gnueabihf/6.3.0/../../../../include/c++/6.3.0/bits/hashtable_policy.h:446:20
	mov	r0, r6
	bl	__aeabi_uidivmod
	mov	r9, r1
.Ltmp782:
	.loc	23 1413 31              @ /usr/bin/../lib/gcc/arm-linux-gnueabihf/6.3.0/../../../../include/c++/6.3.0/bits/hashtable.h:1413:31
	ldr	r10, [r4, r9, lsl #2]
.Ltmp783:
	@DEBUG_VALUE: _M_find_before_node:__prev_p <- %R10
	.loc	23 1414 11              @ /usr/bin/../lib/gcc/arm-linux-gnueabihf/6.3.0/../../../../include/c++/6.3.0/bits/hashtable.h:1414:11
	cmp	r10, #0
	beq	.LBB23_73
.Ltmp784:
@ BB#66:
	@DEBUG_VALUE: _M_find_before_node:__prev_p <- %R10
	@DEBUG_VALUE: _M_bucket_index:__c <- %R6
	.loc	23 1417 67              @ /usr/bin/../lib/gcc/arm-linux-gnueabihf/6.3.0/../../../../include/c++/6.3.0/bits/hashtable.h:1417:67
	ldr	r4, [r10]
.Ltmp785:
	@DEBUG_VALUE: __p <- %R4
	.loc	4 1320 26               @ /usr/bin/../lib/gcc/arm-linux-gnueabihf/6.3.0/../../../../include/c++/6.3.0/bits/hashtable_policy.h:1320:26
	ldr	r7, [r4, #24]
.Ltmp786:
.LBB23_67:                              @ =>This Inner Loop Header: Depth=1
	.loc	4 1320 39 is_stmt 0     @ /usr/bin/../lib/gcc/arm-linux-gnueabihf/6.3.0/../../../../include/c++/6.3.0/bits/hashtable_policy.h:1320:39
	cmp	r7, r6
	bne	.LBB23_70
.Ltmp787:
@ BB#68:                                @ %_ZNKSt8__detail15_Hashtable_baseIN4RNBO6StringESt4pairIKS2_St10shared_ptrINS1_14ExternalModuleEEENS_10_Select1stESt8equal_toIS2_ENS1_12StringHasherENS_18_Mod_range_hashingENS_20_Default_ranged_hashENS_17_Hashtable_traitsILb1ELb0ELb1EEEE9_M_equalsERS4_jPNS_10_Hash_nodeIS8_Lb1EEE.exit.i.i.i.i51
                                        @   in Loop: Header=BB23_67 Depth=1
	.loc	31 63 11 is_stmt 1      @ /root/Bela/projects/RNBO-KPStrong/rnbo/common/RNBO_PlatformInterface.h:63:11
	movw	r0, :lower16:_ZZN4RNBO8Platform8instanceEvE9pInstance
.Ltmp788:
	.loc	5 160 47                @ /root/Bela/projects/RNBO-KPStrong/rnbo/common/RNBO_String.h:160:47
	ldr	r2, [r4, #4]
.Ltmp789:
	@DEBUG_VALUE: _S_equals:__n <- %R4
	.loc	31 63 11                @ /root/Bela/projects/RNBO-KPStrong/rnbo/common/RNBO_PlatformInterface.h:63:11
	movt	r0, :upper16:_ZZN4RNBO8Platform8instanceEvE9pInstance
.Ltmp790:
	.loc	31 63 11 is_stmt 0      @ /root/Bela/projects/RNBO-KPStrong/rnbo/common/RNBO_PlatformInterface.h:63:11
	ldr	r0, [r0]
.Ltmp791:
	.loc	5 160 28 is_stmt 1      @ /root/Bela/projects/RNBO-KPStrong/rnbo/common/RNBO_String.h:160:28
	ldr	r1, [r0]
	ldr	r3, [r1, #48]
	.loc	5 160 28 is_stmt 0 discriminator 1 @ /root/Bela/projects/RNBO-KPStrong/rnbo/common/RNBO_String.h:160:28
.Ltmp594:
	ldr	r1, [sp, #12]           @ 4-byte Reload
	blx	r3
.Ltmp595:
.Ltmp792:
@ BB#69:                                @ %.noexc55
                                        @   in Loop: Header=BB23_67 Depth=1
	@DEBUG_VALUE: _S_equals:__n <- %R4
	.loc	23 1420 8 is_stmt 1     @ /usr/bin/../lib/gcc/arm-linux-gnueabihf/6.3.0/../../../../include/c++/6.3.0/bits/hashtable.h:1420:8
	cmp	r0, #0
	beq	.LBB23_72
.Ltmp793:
.LBB23_70:                              @ %_ZNKSt8__detail15_Hashtable_baseIN4RNBO6StringESt4pairIKS2_St10shared_ptrINS1_14ExternalModuleEEENS_10_Select1stESt8equal_toIS2_ENS1_12StringHasherENS_18_Mod_range_hashingENS_20_Default_ranged_hashENS_17_Hashtable_traitsILb1ELb0ELb1EEEE9_M_equalsERS4_jPNS_10_Hash_nodeIS8_Lb1EEE.exit.thread.i.i.i.i52
                                        @   in Loop: Header=BB23_67 Depth=1
	.loc	23 1423 14              @ /usr/bin/../lib/gcc/arm-linux-gnueabihf/6.3.0/../../../../include/c++/6.3.0/bits/hashtable.h:1423:14
	ldr	r5, [r4]
	.loc	23 1423 21 is_stmt 0    @ /usr/bin/../lib/gcc/arm-linux-gnueabihf/6.3.0/../../../../include/c++/6.3.0/bits/hashtable.h:1423:21
	cmp	r5, #0
	beq	.LBB23_73
.Ltmp794:
@ BB#71:                                @   in Loop: Header=BB23_67 Depth=1
	@DEBUG_VALUE: _M_bucket_index:__p <- %R5
	@DEBUG_VALUE: _M_bucket_index:__n <- %R5
	.loc	23 623 60 is_stmt 1     @ /usr/bin/../lib/gcc/arm-linux-gnueabihf/6.3.0/../../../../include/c++/6.3.0/bits/hashtable.h:623:60
	movw	r0, :lower16:.L_MergedGlobals
.Ltmp795:
	.loc	4 1266 29 discriminator 1 @ /usr/bin/../lib/gcc/arm-linux-gnueabihf/6.3.0/../../../../include/c++/6.3.0/bits/hashtable_policy.h:1266:29
	ldr	r7, [r5, #24]
.Ltmp796:
	@DEBUG_VALUE: operator():__num <- %R7
	.loc	23 623 60               @ /usr/bin/../lib/gcc/arm-linux-gnueabihf/6.3.0/../../../../include/c++/6.3.0/bits/hashtable.h:623:60
	movt	r0, :upper16:.L_MergedGlobals
.Ltmp797:
	.loc	23 619 55               @ /usr/bin/../lib/gcc/arm-linux-gnueabihf/6.3.0/../../../../include/c++/6.3.0/bits/hashtable.h:619:55
	ldr	r1, [r0, #8]
.Ltmp798:
	@DEBUG_VALUE: _M_bucket_index:__n <- %R1
	@DEBUG_VALUE: operator():__den <- %R1
	.loc	4 446 20                @ /usr/bin/../lib/gcc/arm-linux-gnueabihf/6.3.0/../../../../include/c++/6.3.0/bits/hashtable_policy.h:446:20
	mov	r0, r7
	bl	__aeabi_uidivmod
.Ltmp799:
	.loc	23 634 28 discriminator 1 @ /usr/bin/../lib/gcc/arm-linux-gnueabihf/6.3.0/../../../../include/c++/6.3.0/bits/hashtable.h:634:28
	mov	r10, r4
	mov	r4, r5
.Ltmp800:
	@DEBUG_VALUE: _M_bucket_index:__n <- %R4
	@DEBUG_VALUE: _M_bucket_index:__p <- %R4
	.loc	23 1423 8 discriminator 1 @ /usr/bin/../lib/gcc/arm-linux-gnueabihf/6.3.0/../../../../include/c++/6.3.0/bits/hashtable.h:1423:8
	cmp	r1, r9
	beq	.LBB23_67
	b	.LBB23_73
.Ltmp801:
.LBB23_72:                              @ %_ZNKSt10_HashtableIN4RNBO6StringESt4pairIKS1_St10shared_ptrINS0_14ExternalModuleEEESaIS7_ENSt8__detail10_Select1stESt8equal_toIS1_ENS0_12StringHasherENS9_18_Mod_range_hashingENS9_20_Default_ranged_hashENS9_20_Prime_rehash_policyENS9_17_Hashtable_traitsILb1ELb0ELb1EEEE19_M_find_before_nodeEjRS3_j.exit.i.i.i53
	@DEBUG_VALUE: _S_equals:__n <- %R4
	@DEBUG_VALUE: _M_find_node:__before_n <- %R10
	.loc	23 635 6                @ /usr/bin/../lib/gcc/arm-linux-gnueabihf/6.3.0/../../../../include/c++/6.3.0/bits/hashtable.h:635:6
	cmp	r10, #0
.Ltmp802:
	.loc	23 636 49               @ /usr/bin/../lib/gcc/arm-linux-gnueabihf/6.3.0/../../../../include/c++/6.3.0/bits/hashtable.h:636:49
	ldrne	r8, [r10]
.Ltmp803:
.LBB23_73:                              @ %_ZNSt13unordered_mapIN4RNBO6StringESt10shared_ptrINS0_14ExternalModuleEENS0_12StringHasherESt8equal_toIS1_ESaISt4pairIKS1_S4_EEE4findERS9_.exit56
	ldr	r5, [sp, #8]            @ 4-byte Reload
.Ltmp804:
	.loc	13 927 69               @ /usr/bin/../lib/gcc/arm-linux-gnueabihf/6.3.0/../../../../include/c++/6.3.0/bits/shared_ptr_base.h:927:69
	ldr	r0, [r8, #16]
	str	r0, [r5, #20]
.Ltmp805:
	.loc	13 676 15               @ /usr/bin/../lib/gcc/arm-linux-gnueabihf/6.3.0/../../../../include/c++/6.3.0/bits/shared_ptr_base.h:676:15
	ldr	r6, [r5, #24]
.Ltmp806:
	.loc	13 675 37               @ /usr/bin/../lib/gcc/arm-linux-gnueabihf/6.3.0/../../../../include/c++/6.3.0/bits/shared_ptr_base.h:675:37
	ldr	r4, [r8, #20]
.Ltmp807:
	@DEBUG_VALUE: operator=:__tmp <- %R4
	@DEBUG_VALUE: _M_add_ref_copy:this <- %R4
	ldr	r9, [sp, #12]           @ 4-byte Reload
	.loc	13 676 6                @ /usr/bin/../lib/gcc/arm-linux-gnueabihf/6.3.0/../../../../include/c++/6.3.0/bits/shared_ptr_base.h:676:6
	cmp	r4, r6
	beq	.LBB23_95
.Ltmp808:
@ BB#74:
	@DEBUG_VALUE: _M_add_ref_copy:this <- %R4
	@DEBUG_VALUE: operator=:__tmp <- %R4
	.loc	13 678 10               @ /usr/bin/../lib/gcc/arm-linux-gnueabihf/6.3.0/../../../../include/c++/6.3.0/bits/shared_ptr_base.h:678:10
	cmp	r4, #0
	beq	.LBB23_80
.Ltmp809:
@ BB#75:
	@DEBUG_VALUE: _M_add_ref_copy:this <- %R4
	@DEBUG_VALUE: operator=:__tmp <- %R4
	@DEBUG_VALUE: __atomic_add_dispatch:__val <- 1
	.loc	13 134 43               @ /usr/bin/../lib/gcc/arm-linux-gnueabihf/6.3.0/../../../../include/c++/6.3.0/bits/shared_ptr_base.h:134:43
	add	r0, r4, #4
.Ltmp810:
	.loc	67 95 9                 @ /usr/bin/../lib/gcc/arm-linux-gnueabihf/6.3.0/../../../../include/c++/6.3.0/ext/atomicity.h:95:9
	movw	r1, :lower16:__pthread_key_create
	movt	r1, :upper16:__pthread_key_create
	cmp	r1, #0
	beq	.LBB23_79
.Ltmp811:
@ BB#76:
	@DEBUG_VALUE: _M_add_ref_copy:this <- %R4
	@DEBUG_VALUE: operator=:__tmp <- %R4
	@DEBUG_VALUE: __atomic_add:__val <- 1
	.loc	67 53 5                 @ /usr/bin/../lib/gcc/arm-linux-gnueabihf/6.3.0/../../../../include/c++/6.3.0/ext/atomicity.h:53:5
	dmb	ish
.Ltmp812:
.LBB23_77:                              @ %atomicrmw.start158
                                        @ =>This Inner Loop Header: Depth=1
	ldrex	r1, [r0]
	add	r1, r1, #1
	strex	r2, r1, [r0]
	cmp	r2, #0
	bne	.LBB23_77
@ BB#78:                                @ %atomicrmw.end157
	dmb	ish
.Ltmp813:
	.loc	13 680 10               @ /usr/bin/../lib/gcc/arm-linux-gnueabihf/6.3.0/../../../../include/c++/6.3.0/bits/shared_ptr_base.h:680:10
	ldr	r6, [r5, #24]
	b	.LBB23_80
.Ltmp814:
.LBB23_79:
	@DEBUG_VALUE: _M_add_ref_copy:this <- %R4
	@DEBUG_VALUE: operator=:__tmp <- %R4
	@DEBUG_VALUE: __atomic_add_single:__val <- 1
	.loc	67 74 12                @ /usr/bin/../lib/gcc/arm-linux-gnueabihf/6.3.0/../../../../include/c++/6.3.0/ext/atomicity.h:74:12
	ldr	r1, [r0]
	add	r1, r1, #1
	str	r1, [r0]
.Ltmp815:
.LBB23_80:                              @ %_ZNSt16_Sp_counted_baseILN9__gnu_cxx12_Lock_policyE2EE15_M_add_ref_copyEv.exit.i.i.i
	@DEBUG_VALUE: _M_release:this <- %R6
	.loc	13 680 10               @ /usr/bin/../lib/gcc/arm-linux-gnueabihf/6.3.0/../../../../include/c++/6.3.0/bits/shared_ptr_base.h:680:10
	cmp	r6, #0
	beq	.LBB23_94
.Ltmp816:
@ BB#81:
	@DEBUG_VALUE: _M_release:this <- %R6
	@DEBUG_VALUE: __exchange_and_add_dispatch:__val <- -1
	.loc	67 81 9                 @ /usr/bin/../lib/gcc/arm-linux-gnueabihf/6.3.0/../../../../include/c++/6.3.0/ext/atomicity.h:81:9
	movw	r8, :lower16:__pthread_key_create
.Ltmp817:
	.loc	13 147 46               @ /usr/bin/../lib/gcc/arm-linux-gnueabihf/6.3.0/../../../../include/c++/6.3.0/bits/shared_ptr_base.h:147:46
	add	r0, r6, #4
.Ltmp818:
	.loc	67 81 9                 @ /usr/bin/../lib/gcc/arm-linux-gnueabihf/6.3.0/../../../../include/c++/6.3.0/ext/atomicity.h:81:9
	movt	r8, :upper16:__pthread_key_create
	cmp	r8, #0
	beq	.LBB23_85
.Ltmp819:
@ BB#82:
	@DEBUG_VALUE: _M_release:this <- %R6
	@DEBUG_VALUE: __exchange_and_add:__val <- -1
	.loc	67 49 12                @ /usr/bin/../lib/gcc/arm-linux-gnueabihf/6.3.0/../../../../include/c++/6.3.0/ext/atomicity.h:49:12
	dmb	ish
.Ltmp820:
.LBB23_83:                              @ %atomicrmw.start162
                                        @ =>This Inner Loop Header: Depth=1
	ldrex	r1, [r0]
	sub	r2, r1, #1
	strex	r3, r2, [r0]
	cmp	r3, #0
	bne	.LBB23_83
@ BB#84:                                @ %atomicrmw.end161
	dmb	ish
	b	.LBB23_86
.Ltmp821:
.LBB23_85:
	@DEBUG_VALUE: _M_release:this <- %R6
	@DEBUG_VALUE: __exchange_and_add_single:__val <- -1
	.loc	67 67 29                @ /usr/bin/../lib/gcc/arm-linux-gnueabihf/6.3.0/../../../../include/c++/6.3.0/ext/atomicity.h:67:29
	ldr	r1, [r0]
.Ltmp822:
	@DEBUG_VALUE: __exchange_and_add_single:__result <- %R1
	.loc	67 68 12                @ /usr/bin/../lib/gcc/arm-linux-gnueabihf/6.3.0/../../../../include/c++/6.3.0/ext/atomicity.h:68:12
	sub	r2, r1, #1
	str	r2, [r0]
.Ltmp823:
.LBB23_86:                              @ %_ZN9__gnu_cxxL27__exchange_and_add_dispatchEPii.exit.i.i.i.i58
	.loc	13 147 6 discriminator 1 @ /usr/bin/../lib/gcc/arm-linux-gnueabihf/6.3.0/../../../../include/c++/6.3.0/bits/shared_ptr_base.h:147:6
	cmp	r1, #1
	bne	.LBB23_94
@ BB#87:
.Ltmp824:
	.loc	13 150 6                @ /usr/bin/../lib/gcc/arm-linux-gnueabihf/6.3.0/../../../../include/c++/6.3.0/bits/shared_ptr_base.h:150:6
	mov	r7, r6
	ldr	r0, [r7], #8
	ldr	r1, [r0, #8]
	mov	r0, r6
	blx	r1
.Ltmp825:
	@DEBUG_VALUE: __exchange_and_add_dispatch:__val <- -1
	.loc	67 81 9                 @ /usr/bin/../lib/gcc/arm-linux-gnueabihf/6.3.0/../../../../include/c++/6.3.0/ext/atomicity.h:81:9
	cmp	r8, #0
	beq	.LBB23_91
@ BB#88:
.Ltmp826:
	@DEBUG_VALUE: __exchange_and_add:__val <- -1
	.loc	67 49 12                @ /usr/bin/../lib/gcc/arm-linux-gnueabihf/6.3.0/../../../../include/c++/6.3.0/ext/atomicity.h:49:12
	dmb	ish
.LBB23_89:                              @ %atomicrmw.start166
                                        @ =>This Inner Loop Header: Depth=1
	ldrex	r0, [r7]
	sub	r1, r0, #1
	strex	r2, r1, [r7]
	cmp	r2, #0
	bne	.LBB23_89
@ BB#90:                                @ %atomicrmw.end165
	dmb	ish
	b	.LBB23_92
.Ltmp827:
.LBB23_91:
	@DEBUG_VALUE: __exchange_and_add_single:__val <- -1
	.loc	67 67 29                @ /usr/bin/../lib/gcc/arm-linux-gnueabihf/6.3.0/../../../../include/c++/6.3.0/ext/atomicity.h:67:29
	ldr	r0, [r7]
.Ltmp828:
	@DEBUG_VALUE: __exchange_and_add_single:__result <- %R0
	.loc	67 68 12                @ /usr/bin/../lib/gcc/arm-linux-gnueabihf/6.3.0/../../../../include/c++/6.3.0/ext/atomicity.h:68:12
	sub	r1, r0, #1
	str	r1, [r7]
.Ltmp829:
.LBB23_92:                              @ %_ZN9__gnu_cxxL27__exchange_and_add_dispatchEPii.exit2.i.i.i.i60
	.loc	13 162 10 discriminator 1 @ /usr/bin/../lib/gcc/arm-linux-gnueabihf/6.3.0/../../../../include/c++/6.3.0/bits/shared_ptr_base.h:162:10
	cmp	r0, #1
	bne	.LBB23_94
@ BB#93:
.Ltmp830:
	.loc	13 166 10               @ /usr/bin/../lib/gcc/arm-linux-gnueabihf/6.3.0/../../../../include/c++/6.3.0/bits/shared_ptr_base.h:166:10
	ldr	r0, [r6]
	ldr	r1, [r0, #12]
	mov	r0, r6
	blx	r1
.Ltmp831:
.LBB23_94:                              @ %_ZNSt16_Sp_counted_baseILN9__gnu_cxx12_Lock_policyE2EE10_M_releaseEv.exit.i.i.i
	.loc	13 682 12               @ /usr/bin/../lib/gcc/arm-linux-gnueabihf/6.3.0/../../../../include/c++/6.3.0/bits/shared_ptr_base.h:682:12
	str	r4, [r5, #24]
.Ltmp832:
	.loc	13 1058 9               @ /usr/bin/../lib/gcc/arm-linux-gnueabihf/6.3.0/../../../../include/c++/6.3.0/bits/shared_ptr_base.h:1058:9
	ldr	r0, [r5, #20]
.Ltmp833:
.LBB23_95:                              @ %_ZNSt10shared_ptrIN4RNBO14ExternalModuleEEaSERKS2_.exit
	@DEBUG_VALUE: createExternal:this <- %R0
	.loc	66 230 3                @ /root/Bela/projects/RNBO-KPStrong/rnbo/src/RNBO_ExternalLoader.cpp:230:3
	ldr	r1, [r0, #4]
.Ltmp597:
	add	r0, sp, #32
.Ltmp834:
	@DEBUG_VALUE: createExternal:handle <- [%R0+0]
	blx	r1
.Ltmp835:
.Ltmp598:
@ BB#96:                                @ %_ZN4RNBO6StringD2Ev.exit
	.loc	66 231 10               @ /root/Bela/projects/RNBO-KPStrong/rnbo/src/RNBO_ExternalLoader.cpp:231:10
	ldr	r0, [sp, #32]
.Ltmp836:
	.loc	66 298 14 discriminator 1 @ /root/Bela/projects/RNBO-KPStrong/rnbo/src/RNBO_ExternalLoader.cpp:298:14
	str	r0, [r5, #28]
.Ltmp837:
	.loc	5 44 15 discriminator 1 @ /root/Bela/projects/RNBO-KPStrong/rnbo/common/RNBO_String.h:44:15
	mov	r0, r9
	bl	_ZdaPv
.Ltmp838:
	.loc	66 299 2 discriminator 5 @ /root/Bela/projects/RNBO-KPStrong/rnbo/src/RNBO_ExternalLoader.cpp:299:2
	mov	r0, r5
	sub	sp, r11, #28
	pop	{r4, r5, r6, r7, r8, r9, r10, r11, pc}
.LBB23_97:                              @ %.loopexit.split-lp
.Ltmp599:
	b	.LBB23_134
.LBB23_98:
.Ltmp839:
	@DEBUG_VALUE: append:alen <- %R6
.Ltmp593:
.Ltmp840:
	.loc	13 661 6                @ /usr/bin/../lib/gcc/arm-linux-gnueabihf/6.3.0/../../../../include/c++/6.3.0/bits/shared_ptr_base.h:661:6
	ldr	r7, [sp, #48]
.Ltmp841:
	@DEBUG_VALUE: _M_release:this <- %R7
	mov	r6, r0
.Ltmp842:
	.loc	13 661 6 is_stmt 0      @ /usr/bin/../lib/gcc/arm-linux-gnueabihf/6.3.0/../../../../include/c++/6.3.0/bits/shared_ptr_base.h:661:6
	cmp	r7, #0
	beq	.LBB23_112
.Ltmp843:
@ BB#99:
	@DEBUG_VALUE: _M_release:this <- %R7
	@DEBUG_VALUE: __exchange_and_add_dispatch:__val <- -1
	.loc	67 81 9 is_stmt 1       @ /usr/bin/../lib/gcc/arm-linux-gnueabihf/6.3.0/../../../../include/c++/6.3.0/ext/atomicity.h:81:9
	movw	r4, :lower16:__pthread_key_create
.Ltmp844:
	.loc	13 147 46               @ /usr/bin/../lib/gcc/arm-linux-gnueabihf/6.3.0/../../../../include/c++/6.3.0/bits/shared_ptr_base.h:147:46
	add	r0, r7, #4
.Ltmp845:
	.loc	67 81 9                 @ /usr/bin/../lib/gcc/arm-linux-gnueabihf/6.3.0/../../../../include/c++/6.3.0/ext/atomicity.h:81:9
	movt	r4, :upper16:__pthread_key_create
	cmp	r4, #0
	beq	.LBB23_103
.Ltmp846:
@ BB#100:
	@DEBUG_VALUE: _M_release:this <- %R7
	@DEBUG_VALUE: __exchange_and_add:__val <- -1
	.loc	67 49 12                @ /usr/bin/../lib/gcc/arm-linux-gnueabihf/6.3.0/../../../../include/c++/6.3.0/ext/atomicity.h:49:12
	dmb	ish
.Ltmp847:
.LBB23_101:                             @ %atomicrmw.start142
                                        @ =>This Inner Loop Header: Depth=1
	ldrex	r1, [r0]
	sub	r2, r1, #1
	strex	r3, r2, [r0]
	cmp	r3, #0
	bne	.LBB23_101
@ BB#102:                               @ %atomicrmw.end141
	dmb	ish
	b	.LBB23_104
.Ltmp848:
.LBB23_103:
	@DEBUG_VALUE: _M_release:this <- %R7
	@DEBUG_VALUE: __exchange_and_add_single:__val <- -1
	.loc	67 67 29                @ /usr/bin/../lib/gcc/arm-linux-gnueabihf/6.3.0/../../../../include/c++/6.3.0/ext/atomicity.h:67:29
	ldr	r1, [r0]
.Ltmp849:
	@DEBUG_VALUE: __exchange_and_add_single:__result <- %R1
	.loc	67 68 12                @ /usr/bin/../lib/gcc/arm-linux-gnueabihf/6.3.0/../../../../include/c++/6.3.0/ext/atomicity.h:68:12
	sub	r2, r1, #1
	str	r2, [r0]
.Ltmp850:
.LBB23_104:                             @ %_ZN9__gnu_cxxL27__exchange_and_add_dispatchEPii.exit.i.i.i.i32
	.loc	13 147 6 discriminator 1 @ /usr/bin/../lib/gcc/arm-linux-gnueabihf/6.3.0/../../../../include/c++/6.3.0/bits/shared_ptr_base.h:147:6
	cmp	r1, #1
	bne	.LBB23_112
@ BB#105:
.Ltmp851:
	.loc	13 150 6                @ /usr/bin/../lib/gcc/arm-linux-gnueabihf/6.3.0/../../../../include/c++/6.3.0/bits/shared_ptr_base.h:150:6
	mov	r5, r7
	ldr	r0, [r5], #8
	ldr	r1, [r0, #8]
	mov	r0, r7
	blx	r1
.Ltmp852:
	@DEBUG_VALUE: __exchange_and_add_dispatch:__val <- -1
	.loc	67 81 9                 @ /usr/bin/../lib/gcc/arm-linux-gnueabihf/6.3.0/../../../../include/c++/6.3.0/ext/atomicity.h:81:9
	cmp	r4, #0
	beq	.LBB23_109
@ BB#106:
.Ltmp853:
	@DEBUG_VALUE: __exchange_and_add:__val <- -1
	.loc	67 49 12                @ /usr/bin/../lib/gcc/arm-linux-gnueabihf/6.3.0/../../../../include/c++/6.3.0/ext/atomicity.h:49:12
	dmb	ish
.LBB23_107:                             @ %atomicrmw.start146
                                        @ =>This Inner Loop Header: Depth=1
	ldrex	r0, [r5]
	sub	r1, r0, #1
	strex	r2, r1, [r5]
	cmp	r2, #0
	bne	.LBB23_107
@ BB#108:                               @ %atomicrmw.end145
	dmb	ish
	b	.LBB23_110
.Ltmp854:
.LBB23_109:
	@DEBUG_VALUE: __exchange_and_add_single:__val <- -1
	.loc	67 67 29                @ /usr/bin/../lib/gcc/arm-linux-gnueabihf/6.3.0/../../../../include/c++/6.3.0/ext/atomicity.h:67:29
	ldr	r0, [r5]
.Ltmp855:
	@DEBUG_VALUE: __exchange_and_add_single:__result <- %R0
	.loc	67 68 12                @ /usr/bin/../lib/gcc/arm-linux-gnueabihf/6.3.0/../../../../include/c++/6.3.0/ext/atomicity.h:68:12
	sub	r1, r0, #1
	str	r1, [r5]
.Ltmp856:
.LBB23_110:                             @ %_ZN9__gnu_cxxL27__exchange_and_add_dispatchEPii.exit2.i.i.i.i34
	.loc	13 162 10 discriminator 1 @ /usr/bin/../lib/gcc/arm-linux-gnueabihf/6.3.0/../../../../include/c++/6.3.0/bits/shared_ptr_base.h:162:10
	cmp	r0, #1
	bne	.LBB23_112
@ BB#111:
.Ltmp857:
	.loc	13 166 10               @ /usr/bin/../lib/gcc/arm-linux-gnueabihf/6.3.0/../../../../include/c++/6.3.0/bits/shared_ptr_base.h:166:10
	ldr	r0, [r7]
	ldr	r1, [r0, #12]
	mov	r0, r7
	blx	r1
.Ltmp858:
.LBB23_112:                             @ %_ZNSt12__shared_ptrIN4RNBO14ExternalModuleELN9__gnu_cxx12_Lock_policyE2EED2Ev.exit.i35
	.loc	5 44 24                 @ /root/Bela/projects/RNBO-KPStrong/rnbo/common/RNBO_String.h:44:24
	ldr	r0, [sp, #32]
	.loc	5 44 15 is_stmt 0       @ /root/Bela/projects/RNBO-KPStrong/rnbo/common/RNBO_String.h:44:15
	cmp	r0, #0
	beq	.LBB23_117
@ BB#113:
	.loc	5 44 15 discriminator 1 @ /root/Bela/projects/RNBO-KPStrong/rnbo/common/RNBO_String.h:44:15
	bl	_ZdaPv
	b	.LBB23_117
.Ltmp859:
.LBB23_114:                             @ %_ZNSt15__allocated_ptrISaISt23_Sp_counted_ptr_inplaceIN4RNBO14ExternalModuleESaIS2_ELN9__gnu_cxx12_Lock_policyE2EEEED2Ev.exit.i.i.i.i.i
.Ltmp581:
	mov	r6, r0
.Ltmp860:
	@DEBUG_VALUE: deallocate: <- 1
	@DEBUG_VALUE: deallocate:__n <- 1
	.loc	20 110 9 is_stmt 1      @ /usr/bin/../lib/gcc/arm-linux-gnueabihf/6.3.0/../../../../include/c++/6.3.0/ext/new_allocator.h:110:9
	mov	r0, r4
	bl	_ZdlPv
	b	.LBB23_135
.Ltmp861:
.LBB23_115:
.Ltmp578:
	b	.LBB23_134
.LBB23_116:
.Ltmp590:
	mov	r6, r0
.LBB23_117:                             @ %_ZNSt4pairIN4RNBO6StringESt10shared_ptrINS0_14ExternalModuleEEED2Ev.exit36
.Ltmp862:
	.loc	13 661 6                @ /usr/bin/../lib/gcc/arm-linux-gnueabihf/6.3.0/../../../../include/c++/6.3.0/bits/shared_ptr_base.h:661:6
	ldr	r7, [sp, #28]
.Ltmp863:
	@DEBUG_VALUE: _M_release:this <- %R7
	.loc	13 661 6 is_stmt 0      @ /usr/bin/../lib/gcc/arm-linux-gnueabihf/6.3.0/../../../../include/c++/6.3.0/bits/shared_ptr_base.h:661:6
	cmp	r7, #0
	beq	.LBB23_135
.Ltmp864:
@ BB#118:
	@DEBUG_VALUE: _M_release:this <- %R7
	@DEBUG_VALUE: __exchange_and_add_dispatch:__val <- -1
	.loc	67 81 9 is_stmt 1       @ /usr/bin/../lib/gcc/arm-linux-gnueabihf/6.3.0/../../../../include/c++/6.3.0/ext/atomicity.h:81:9
	movw	r4, :lower16:__pthread_key_create
.Ltmp865:
	.loc	13 147 46               @ /usr/bin/../lib/gcc/arm-linux-gnueabihf/6.3.0/../../../../include/c++/6.3.0/bits/shared_ptr_base.h:147:46
	add	r0, r7, #4
.Ltmp866:
	.loc	67 81 9                 @ /usr/bin/../lib/gcc/arm-linux-gnueabihf/6.3.0/../../../../include/c++/6.3.0/ext/atomicity.h:81:9
	movt	r4, :upper16:__pthread_key_create
	cmp	r4, #0
	beq	.LBB23_122
.Ltmp867:
@ BB#119:
	@DEBUG_VALUE: _M_release:this <- %R7
	@DEBUG_VALUE: __exchange_and_add:__val <- -1
	.loc	67 49 12                @ /usr/bin/../lib/gcc/arm-linux-gnueabihf/6.3.0/../../../../include/c++/6.3.0/ext/atomicity.h:49:12
	dmb	ish
.Ltmp868:
.LBB23_120:                             @ %atomicrmw.start150
                                        @ =>This Inner Loop Header: Depth=1
	ldrex	r1, [r0]
	sub	r2, r1, #1
	strex	r3, r2, [r0]
	cmp	r3, #0
	bne	.LBB23_120
@ BB#121:                               @ %atomicrmw.end149
	dmb	ish
	b	.LBB23_123
.Ltmp869:
.LBB23_122:
	@DEBUG_VALUE: _M_release:this <- %R7
	@DEBUG_VALUE: __exchange_and_add_single:__val <- -1
	.loc	67 67 29                @ /usr/bin/../lib/gcc/arm-linux-gnueabihf/6.3.0/../../../../include/c++/6.3.0/ext/atomicity.h:67:29
	ldr	r1, [r0]
.Ltmp870:
	@DEBUG_VALUE: __exchange_and_add_single:__result <- %R1
	.loc	67 68 12                @ /usr/bin/../lib/gcc/arm-linux-gnueabihf/6.3.0/../../../../include/c++/6.3.0/ext/atomicity.h:68:12
	sub	r2, r1, #1
	str	r2, [r0]
.Ltmp871:
.LBB23_123:                             @ %_ZN9__gnu_cxxL27__exchange_and_add_dispatchEPii.exit.i.i.i38
	.loc	13 147 6 discriminator 1 @ /usr/bin/../lib/gcc/arm-linux-gnueabihf/6.3.0/../../../../include/c++/6.3.0/bits/shared_ptr_base.h:147:6
	cmp	r1, #1
	bne	.LBB23_135
@ BB#124:
.Ltmp872:
	.loc	13 150 6                @ /usr/bin/../lib/gcc/arm-linux-gnueabihf/6.3.0/../../../../include/c++/6.3.0/bits/shared_ptr_base.h:150:6
	mov	r5, r7
	ldr	r0, [r5], #8
	ldr	r1, [r0, #8]
	mov	r0, r7
	blx	r1
.Ltmp873:
	@DEBUG_VALUE: __exchange_and_add_dispatch:__val <- -1
	.loc	67 81 9                 @ /usr/bin/../lib/gcc/arm-linux-gnueabihf/6.3.0/../../../../include/c++/6.3.0/ext/atomicity.h:81:9
	cmp	r4, #0
	beq	.LBB23_128
@ BB#125:
.Ltmp874:
	@DEBUG_VALUE: __exchange_and_add:__val <- -1
	.loc	67 49 12                @ /usr/bin/../lib/gcc/arm-linux-gnueabihf/6.3.0/../../../../include/c++/6.3.0/ext/atomicity.h:49:12
	dmb	ish
.LBB23_126:                             @ %atomicrmw.start154
                                        @ =>This Inner Loop Header: Depth=1
	ldrex	r0, [r5]
	sub	r1, r0, #1
	strex	r2, r1, [r5]
	cmp	r2, #0
	bne	.LBB23_126
@ BB#127:                               @ %atomicrmw.end153
	dmb	ish
	b	.LBB23_129
.Ltmp875:
.LBB23_128:
	@DEBUG_VALUE: __exchange_and_add_single:__val <- -1
	.loc	67 67 29                @ /usr/bin/../lib/gcc/arm-linux-gnueabihf/6.3.0/../../../../include/c++/6.3.0/ext/atomicity.h:67:29
	ldr	r0, [r5]
.Ltmp876:
	@DEBUG_VALUE: __exchange_and_add_single:__result <- %R0
	.loc	67 68 12                @ /usr/bin/../lib/gcc/arm-linux-gnueabihf/6.3.0/../../../../include/c++/6.3.0/ext/atomicity.h:68:12
	sub	r1, r0, #1
	str	r1, [r5]
.Ltmp877:
.LBB23_129:                             @ %_ZN9__gnu_cxxL27__exchange_and_add_dispatchEPii.exit2.i.i.i40
	.loc	13 162 10 discriminator 1 @ /usr/bin/../lib/gcc/arm-linux-gnueabihf/6.3.0/../../../../include/c++/6.3.0/bits/shared_ptr_base.h:162:10
	cmp	r0, #1
	bne	.LBB23_135
@ BB#130:
.Ltmp878:
	.loc	13 166 10               @ /usr/bin/../lib/gcc/arm-linux-gnueabihf/6.3.0/../../../../include/c++/6.3.0/bits/shared_ptr_base.h:166:10
	ldr	r0, [r7]
	ldr	r1, [r0, #12]
	mov	r0, r7
	blx	r1
	b	.LBB23_135
.Ltmp879:
.LBB23_131:
.Ltmp572:
	mov	r6, r0
	b	.LBB23_136
.LBB23_132:                             @ %.loopexit
.Ltmp880:
	@DEBUG_VALUE: _S_equals:__n <- %R4
.Ltmp596:
	b	.LBB23_134
.Ltmp881:
.LBB23_133:
	@DEBUG_VALUE: _S_equals:__n <- %R10
.Ltmp575:
.Ltmp882:
.LBB23_134:
	mov	r6, r0
.LBB23_135:
	ldr	r0, [sp, #12]           @ 4-byte Reload
	ldr	r5, [sp, #8]            @ 4-byte Reload
.Ltmp883:
	.loc	5 44 15 discriminator 1 @ /root/Bela/projects/RNBO-KPStrong/rnbo/common/RNBO_String.h:44:15
	bl	_ZdaPv
.Ltmp884:
.LBB23_136:                             @ %_ZN4RNBO6StringD2Ev.exit62
	.loc	13 661 6                @ /usr/bin/../lib/gcc/arm-linux-gnueabihf/6.3.0/../../../../include/c++/6.3.0/bits/shared_ptr_base.h:661:6
	ldr	r4, [r5, #24]
.Ltmp885:
	@DEBUG_VALUE: _M_release:this <- %R4
	.loc	13 661 6 is_stmt 0      @ /usr/bin/../lib/gcc/arm-linux-gnueabihf/6.3.0/../../../../include/c++/6.3.0/bits/shared_ptr_base.h:661:6
	cmp	r4, #0
	beq	.LBB23_149
.Ltmp886:
@ BB#137:
	@DEBUG_VALUE: _M_release:this <- %R4
	@DEBUG_VALUE: __exchange_and_add_dispatch:__val <- -1
	.loc	67 81 9 is_stmt 1       @ /usr/bin/../lib/gcc/arm-linux-gnueabihf/6.3.0/../../../../include/c++/6.3.0/ext/atomicity.h:81:9
	movw	r5, :lower16:__pthread_key_create
.Ltmp887:
	.loc	13 147 46               @ /usr/bin/../lib/gcc/arm-linux-gnueabihf/6.3.0/../../../../include/c++/6.3.0/bits/shared_ptr_base.h:147:46
	add	r0, r4, #4
.Ltmp888:
	.loc	67 81 9                 @ /usr/bin/../lib/gcc/arm-linux-gnueabihf/6.3.0/../../../../include/c++/6.3.0/ext/atomicity.h:81:9
	movt	r5, :upper16:__pthread_key_create
	cmp	r5, #0
	beq	.LBB23_141
.Ltmp889:
@ BB#138:
	@DEBUG_VALUE: _M_release:this <- %R4
	@DEBUG_VALUE: __exchange_and_add:__val <- -1
	.loc	67 49 12                @ /usr/bin/../lib/gcc/arm-linux-gnueabihf/6.3.0/../../../../include/c++/6.3.0/ext/atomicity.h:49:12
	dmb	ish
.Ltmp890:
.LBB23_139:                             @ %atomicrmw.start170
                                        @ =>This Inner Loop Header: Depth=1
	ldrex	r1, [r0]
	sub	r2, r1, #1
	strex	r3, r2, [r0]
	cmp	r3, #0
	bne	.LBB23_139
@ BB#140:                               @ %atomicrmw.end169
	dmb	ish
	b	.LBB23_142
.Ltmp891:
.LBB23_141:
	@DEBUG_VALUE: _M_release:this <- %R4
	@DEBUG_VALUE: __exchange_and_add_single:__val <- -1
	.loc	67 67 29                @ /usr/bin/../lib/gcc/arm-linux-gnueabihf/6.3.0/../../../../include/c++/6.3.0/ext/atomicity.h:67:29
	ldr	r1, [r0]
.Ltmp892:
	@DEBUG_VALUE: __exchange_and_add_single:__result <- %R1
	.loc	67 68 12                @ /usr/bin/../lib/gcc/arm-linux-gnueabihf/6.3.0/../../../../include/c++/6.3.0/ext/atomicity.h:68:12
	sub	r2, r1, #1
	str	r2, [r0]
.Ltmp893:
.LBB23_142:                             @ %_ZN9__gnu_cxxL27__exchange_and_add_dispatchEPii.exit.i.i.i
	.loc	13 147 6 discriminator 1 @ /usr/bin/../lib/gcc/arm-linux-gnueabihf/6.3.0/../../../../include/c++/6.3.0/bits/shared_ptr_base.h:147:6
	cmp	r1, #1
	bne	.LBB23_149
@ BB#143:
.Ltmp894:
	.loc	13 150 6                @ /usr/bin/../lib/gcc/arm-linux-gnueabihf/6.3.0/../../../../include/c++/6.3.0/bits/shared_ptr_base.h:150:6
	mov	r7, r4
	ldr	r0, [r7], #8
	ldr	r1, [r0, #8]
	mov	r0, r4
	blx	r1
.Ltmp895:
	@DEBUG_VALUE: __exchange_and_add_dispatch:__val <- -1
	.loc	67 81 9                 @ /usr/bin/../lib/gcc/arm-linux-gnueabihf/6.3.0/../../../../include/c++/6.3.0/ext/atomicity.h:81:9
	cmp	r5, #0
	beq	.LBB23_150
@ BB#144:
.Ltmp896:
	@DEBUG_VALUE: __exchange_and_add:__val <- -1
	.loc	67 49 12                @ /usr/bin/../lib/gcc/arm-linux-gnueabihf/6.3.0/../../../../include/c++/6.3.0/ext/atomicity.h:49:12
	dmb	ish
.LBB23_145:                             @ %atomicrmw.start174
                                        @ =>This Inner Loop Header: Depth=1
	ldrex	r0, [r7]
	sub	r1, r0, #1
	strex	r2, r1, [r7]
	cmp	r2, #0
	bne	.LBB23_145
@ BB#146:                               @ %atomicrmw.end173
	dmb	ish
.Ltmp897:
.LBB23_147:                             @ %_ZN9__gnu_cxxL27__exchange_and_add_dispatchEPii.exit2.i.i.i
	.loc	13 162 10 discriminator 1 @ /usr/bin/../lib/gcc/arm-linux-gnueabihf/6.3.0/../../../../include/c++/6.3.0/bits/shared_ptr_base.h:162:10
	cmp	r0, #1
	bne	.LBB23_149
@ BB#148:
.Ltmp898:
	.loc	13 166 10               @ /usr/bin/../lib/gcc/arm-linux-gnueabihf/6.3.0/../../../../include/c++/6.3.0/bits/shared_ptr_base.h:166:10
	ldr	r0, [r4]
	ldr	r1, [r0, #12]
	mov	r0, r4
	blx	r1
.Ltmp899:
.LBB23_149:                             @ %_ZNSt12__shared_ptrIN4RNBO14ExternalModuleELN9__gnu_cxx12_Lock_policyE2EED2Ev.exit
	mov	r0, r6
	mov	lr, pc
	b	_Unwind_Resume
.LBB23_150:
.Ltmp900:
	@DEBUG_VALUE: __exchange_and_add_single:__val <- -1
	.loc	67 67 29                @ /usr/bin/../lib/gcc/arm-linux-gnueabihf/6.3.0/../../../../include/c++/6.3.0/ext/atomicity.h:67:29
	ldr	r0, [r7]
.Ltmp901:
	@DEBUG_VALUE: __exchange_and_add_single:__result <- %R0
	.loc	67 68 12                @ /usr/bin/../lib/gcc/arm-linux-gnueabihf/6.3.0/../../../../include/c++/6.3.0/ext/atomicity.h:68:12
	sub	r1, r0, #1
	str	r1, [r7]
	b	.LBB23_147
.Ltmp902:
.Lfunc_end23:
	.size	_ZN4RNBO14ExternalLoaderC2EPKcS2_S2_, .Lfunc_end23-_ZN4RNBO14ExternalLoaderC2EPKcS2_S2_
	.cfi_endproc
	.file	68 "<stdin>"
	.file	69 "/usr/bin/../lib/gcc/arm-linux-gnueabihf/6.3.0/../../../../include/c++/6.3.0/bits" "allocated_ptr.h"
	.globl	__gxx_personality_v0
	.personality __gxx_personality_v0
	.handlerdata
	.p2align	2
GCC_except_table23:
.Lexception3:
	.byte	255                     @ @LPStart Encoding = omit
	.byte	0                       @ @TType Encoding = absptr
	.asciz	"\271\201\200\200"      @ @TType base offset
	.byte	3                       @ Call site Encoding = udata4
	.ascii	"\266\001"              @ Call site table length
	.long	.Ltmp564-.Lfunc_begin23 @ >> Call Site 1 <<
	.long	.Ltmp571-.Ltmp564       @   Call between .Ltmp564 and .Ltmp571
	.long	.Ltmp572-.Lfunc_begin23 @     jumps to .Ltmp572
	.byte	0                       @   On action: cleanup
	.long	.Ltmp571-.Lfunc_begin23 @ >> Call Site 2 <<
	.long	.Ltmp573-.Ltmp571       @   Call between .Ltmp571 and .Ltmp573
	.long	0                       @     has no landing pad
	.byte	0                       @   On action: cleanup
	.long	.Ltmp573-.Lfunc_begin23 @ >> Call Site 3 <<
	.long	.Ltmp574-.Ltmp573       @   Call between .Ltmp573 and .Ltmp574
	.long	.Ltmp575-.Lfunc_begin23 @     jumps to .Ltmp575
	.byte	0                       @   On action: cleanup
	.long	.Ltmp574-.Lfunc_begin23 @ >> Call Site 4 <<
	.long	.Ltmp576-.Ltmp574       @   Call between .Ltmp574 and .Ltmp576
	.long	0                       @     has no landing pad
	.byte	0                       @   On action: cleanup
	.long	.Ltmp576-.Lfunc_begin23 @ >> Call Site 5 <<
	.long	.Ltmp577-.Ltmp576       @   Call between .Ltmp576 and .Ltmp577
	.long	.Ltmp578-.Lfunc_begin23 @     jumps to .Ltmp578
	.byte	0                       @   On action: cleanup
	.long	.Ltmp579-.Lfunc_begin23 @ >> Call Site 6 <<
	.long	.Ltmp580-.Ltmp579       @   Call between .Ltmp579 and .Ltmp580
	.long	.Ltmp581-.Lfunc_begin23 @     jumps to .Ltmp581
	.byte	0                       @   On action: cleanup
	.long	.Ltmp580-.Lfunc_begin23 @ >> Call Site 7 <<
	.long	.Ltmp582-.Ltmp580       @   Call between .Ltmp580 and .Ltmp582
	.long	0                       @     has no landing pad
	.byte	0                       @   On action: cleanup
	.long	.Ltmp582-.Lfunc_begin23 @ >> Call Site 8 <<
	.long	.Ltmp589-.Ltmp582       @   Call between .Ltmp582 and .Ltmp589
	.long	.Ltmp590-.Lfunc_begin23 @     jumps to .Ltmp590
	.byte	0                       @   On action: cleanup
	.long	.Ltmp591-.Lfunc_begin23 @ >> Call Site 9 <<
	.long	.Ltmp592-.Ltmp591       @   Call between .Ltmp591 and .Ltmp592
	.long	.Ltmp593-.Lfunc_begin23 @     jumps to .Ltmp593
	.byte	0                       @   On action: cleanup
	.long	.Ltmp592-.Lfunc_begin23 @ >> Call Site 10 <<
	.long	.Ltmp594-.Ltmp592       @   Call between .Ltmp592 and .Ltmp594
	.long	0                       @     has no landing pad
	.byte	0                       @   On action: cleanup
	.long	.Ltmp594-.Lfunc_begin23 @ >> Call Site 11 <<
	.long	.Ltmp595-.Ltmp594       @   Call between .Ltmp594 and .Ltmp595
	.long	.Ltmp596-.Lfunc_begin23 @     jumps to .Ltmp596
	.byte	0                       @   On action: cleanup
	.long	.Ltmp595-.Lfunc_begin23 @ >> Call Site 12 <<
	.long	.Ltmp597-.Ltmp595       @   Call between .Ltmp595 and .Ltmp597
	.long	0                       @     has no landing pad
	.byte	0                       @   On action: cleanup
	.long	.Ltmp597-.Lfunc_begin23 @ >> Call Site 13 <<
	.long	.Ltmp598-.Ltmp597       @   Call between .Ltmp597 and .Ltmp598
	.long	.Ltmp599-.Lfunc_begin23 @     jumps to .Ltmp599
	.byte	0                       @   On action: cleanup
	.long	.Ltmp598-.Lfunc_begin23 @ >> Call Site 14 <<
	.long	.Lfunc_end23-.Ltmp598   @   Call between .Ltmp598 and .Lfunc_end23
	.long	0                       @     has no landing pad
	.byte	0                       @   On action: cleanup
	.p2align	2
	.fnend

	.globl	_ZN4RNBO14ExternalLoader10initializeEv
	.p2align	2
	.type	_ZN4RNBO14ExternalLoader10initializeEv,%function
_ZN4RNBO14ExternalLoader10initializeEv: @ @_ZN4RNBO14ExternalLoader10initializeEv
.Lfunc_begin24:
	.loc	66 302 0                @ /root/Bela/projects/RNBO-KPStrong/rnbo/src/RNBO_ExternalLoader.cpp:302:0
	.fnstart
	.cfi_startproc
@ BB#0:
	@DEBUG_VALUE: initialize:this <- %R0
	mov	r1, r0
.Ltmp903:
	@DEBUG_VALUE: initialize:this <- %R1
	.loc	13 1058 9 prologue_end  @ /usr/bin/../lib/gcc/arm-linux-gnueabihf/6.3.0/../../../../include/c++/6.3.0/bits/shared_ptr_base.h:1058:9
	ldr	r2, [r1, #20]
.Ltmp904:
	.loc	66 304 36               @ /root/Bela/projects/RNBO-KPStrong/rnbo/src/RNBO_ExternalLoader.cpp:304:36
	ldr	r0, [r1, #28]
	.loc	66 304 20 is_stmt 0     @ /root/Bela/projects/RNBO-KPStrong/rnbo/src/RNBO_ExternalLoader.cpp:304:20
	ldr	r2, [r2, #12]
	.loc	66 304 3 discriminator 1 @ /root/Bela/projects/RNBO-KPStrong/rnbo/src/RNBO_ExternalLoader.cpp:304:3
	bx	r2
.Ltmp905:
.Lfunc_end24:
	.size	_ZN4RNBO14ExternalLoader10initializeEv, .Lfunc_end24-_ZN4RNBO14ExternalLoader10initializeEv
	.cfi_endproc
	.fnend

	.globl	_ZNK4RNBO14ExternalLoader20getNumMidiInputPortsEv
	.p2align	2
	.type	_ZNK4RNBO14ExternalLoader20getNumMidiInputPortsEv,%function
_ZNK4RNBO14ExternalLoader20getNumMidiInputPortsEv: @ @_ZNK4RNBO14ExternalLoader20getNumMidiInputPortsEv
.Lfunc_begin25:
	.loc	66 308 0 is_stmt 1      @ /root/Bela/projects/RNBO-KPStrong/rnbo/src/RNBO_ExternalLoader.cpp:308:0
	.fnstart
	.cfi_startproc
@ BB#0:
	@DEBUG_VALUE: getNumMidiInputPorts:this <- %R0
	.loc	13 1058 9 prologue_end  @ /usr/bin/../lib/gcc/arm-linux-gnueabihf/6.3.0/../../../../include/c++/6.3.0/bits/shared_ptr_base.h:1058:9
	ldr	r1, [r0, #20]
.Ltmp906:
	.loc	66 309 53               @ /root/Bela/projects/RNBO-KPStrong/rnbo/src/RNBO_ExternalLoader.cpp:309:53
	ldr	r0, [r0, #28]
.Ltmp907:
	.loc	66 309 27 is_stmt 0     @ /root/Bela/projects/RNBO-KPStrong/rnbo/src/RNBO_ExternalLoader.cpp:309:27
	ldr	r1, [r1, #16]
	.loc	66 309 10 discriminator 1 @ /root/Bela/projects/RNBO-KPStrong/rnbo/src/RNBO_ExternalLoader.cpp:309:10
	bx	r1
.Ltmp908:
.Lfunc_end25:
	.size	_ZNK4RNBO14ExternalLoader20getNumMidiInputPortsEv, .Lfunc_end25-_ZNK4RNBO14ExternalLoader20getNumMidiInputPortsEv
	.cfi_endproc
	.fnend

	.globl	_ZNK4RNBO14ExternalLoader21getNumMidiOutputPortsEv
	.p2align	2
	.type	_ZNK4RNBO14ExternalLoader21getNumMidiOutputPortsEv,%function
_ZNK4RNBO14ExternalLoader21getNumMidiOutputPortsEv: @ @_ZNK4RNBO14ExternalLoader21getNumMidiOutputPortsEv
.Lfunc_begin26:
	.loc	66 313 0 is_stmt 1      @ /root/Bela/projects/RNBO-KPStrong/rnbo/src/RNBO_ExternalLoader.cpp:313:0
	.fnstart
	.cfi_startproc
@ BB#0:
	@DEBUG_VALUE: getNumMidiOutputPorts:this <- %R0
	.loc	13 1058 9 prologue_end  @ /usr/bin/../lib/gcc/arm-linux-gnueabihf/6.3.0/../../../../include/c++/6.3.0/bits/shared_ptr_base.h:1058:9
	ldr	r1, [r0, #20]
.Ltmp909:
	.loc	66 314 54               @ /root/Bela/projects/RNBO-KPStrong/rnbo/src/RNBO_ExternalLoader.cpp:314:54
	ldr	r0, [r0, #28]
.Ltmp910:
	.loc	66 314 27 is_stmt 0     @ /root/Bela/projects/RNBO-KPStrong/rnbo/src/RNBO_ExternalLoader.cpp:314:27
	ldr	r1, [r1, #20]
	.loc	66 314 10 discriminator 1 @ /root/Bela/projects/RNBO-KPStrong/rnbo/src/RNBO_ExternalLoader.cpp:314:10
	bx	r1
.Ltmp911:
.Lfunc_end26:
	.size	_ZNK4RNBO14ExternalLoader21getNumMidiOutputPortsEv, .Lfunc_end26-_ZNK4RNBO14ExternalLoader21getNumMidiOutputPortsEv
	.cfi_endproc
	.fnend

	.globl	_ZNK4RNBO14ExternalLoader16getNumParametersEv
	.p2align	2
	.type	_ZNK4RNBO14ExternalLoader16getNumParametersEv,%function
_ZNK4RNBO14ExternalLoader16getNumParametersEv: @ @_ZNK4RNBO14ExternalLoader16getNumParametersEv
.Lfunc_begin27:
	.loc	66 318 0 is_stmt 1      @ /root/Bela/projects/RNBO-KPStrong/rnbo/src/RNBO_ExternalLoader.cpp:318:0
	.fnstart
	.cfi_startproc
@ BB#0:
	@DEBUG_VALUE: getNumParameters:this <- %R0
	.loc	13 1058 9 prologue_end  @ /usr/bin/../lib/gcc/arm-linux-gnueabihf/6.3.0/../../../../include/c++/6.3.0/bits/shared_ptr_base.h:1058:9
	ldr	r1, [r0, #20]
.Ltmp912:
	.loc	66 319 49               @ /root/Bela/projects/RNBO-KPStrong/rnbo/src/RNBO_ExternalLoader.cpp:319:49
	ldr	r0, [r0, #28]
.Ltmp913:
	.loc	66 319 27 is_stmt 0     @ /root/Bela/projects/RNBO-KPStrong/rnbo/src/RNBO_ExternalLoader.cpp:319:27
	ldr	r1, [r1, #24]
	.loc	66 319 10 discriminator 1 @ /root/Bela/projects/RNBO-KPStrong/rnbo/src/RNBO_ExternalLoader.cpp:319:10
	bx	r1
.Ltmp914:
.Lfunc_end27:
	.size	_ZNK4RNBO14ExternalLoader16getNumParametersEv, .Lfunc_end27-_ZNK4RNBO14ExternalLoader16getNumParametersEv
	.cfi_endproc
	.fnend

	.globl	_ZNK4RNBO14ExternalLoader16getParameterNameEj
	.p2align	2
	.type	_ZNK4RNBO14ExternalLoader16getParameterNameEj,%function
_ZNK4RNBO14ExternalLoader16getParameterNameEj: @ @_ZNK4RNBO14ExternalLoader16getParameterNameEj
.Lfunc_begin28:
	.loc	66 323 0 is_stmt 1      @ /root/Bela/projects/RNBO-KPStrong/rnbo/src/RNBO_ExternalLoader.cpp:323:0
	.fnstart
	.cfi_startproc
@ BB#0:
	@DEBUG_VALUE: getParameterName:this <- %R0
	@DEBUG_VALUE: getParameterName:index <- %R1
	.loc	13 1058 9 prologue_end  @ /usr/bin/../lib/gcc/arm-linux-gnueabihf/6.3.0/../../../../include/c++/6.3.0/bits/shared_ptr_base.h:1058:9
	ldr	r2, [r0, #20]
.Ltmp915:
	.loc	66 324 49               @ /root/Bela/projects/RNBO-KPStrong/rnbo/src/RNBO_ExternalLoader.cpp:324:49
	ldr	r0, [r0, #28]
.Ltmp916:
	.loc	66 324 27 is_stmt 0     @ /root/Bela/projects/RNBO-KPStrong/rnbo/src/RNBO_ExternalLoader.cpp:324:27
	ldr	r2, [r2, #28]
	.loc	66 324 10 discriminator 1 @ /root/Bela/projects/RNBO-KPStrong/rnbo/src/RNBO_ExternalLoader.cpp:324:10
	bx	r2
.Ltmp917:
.Lfunc_end28:
	.size	_ZNK4RNBO14ExternalLoader16getParameterNameEj, .Lfunc_end28-_ZNK4RNBO14ExternalLoader16getParameterNameEj
	.cfi_endproc
	.fnend

	.globl	_ZNK4RNBO14ExternalLoader14getParameterIdEj
	.p2align	2
	.type	_ZNK4RNBO14ExternalLoader14getParameterIdEj,%function
_ZNK4RNBO14ExternalLoader14getParameterIdEj: @ @_ZNK4RNBO14ExternalLoader14getParameterIdEj
.Lfunc_begin29:
	.loc	66 328 0 is_stmt 1      @ /root/Bela/projects/RNBO-KPStrong/rnbo/src/RNBO_ExternalLoader.cpp:328:0
	.fnstart
	.cfi_startproc
@ BB#0:
	@DEBUG_VALUE: getParameterId:this <- %R0
	@DEBUG_VALUE: getParameterId:index <- %R1
	.loc	13 1058 9 prologue_end  @ /usr/bin/../lib/gcc/arm-linux-gnueabihf/6.3.0/../../../../include/c++/6.3.0/bits/shared_ptr_base.h:1058:9
	ldr	r2, [r0, #20]
.Ltmp918:
	.loc	66 329 47               @ /root/Bela/projects/RNBO-KPStrong/rnbo/src/RNBO_ExternalLoader.cpp:329:47
	ldr	r0, [r0, #28]
.Ltmp919:
	.loc	66 329 27 is_stmt 0     @ /root/Bela/projects/RNBO-KPStrong/rnbo/src/RNBO_ExternalLoader.cpp:329:27
	ldr	r2, [r2, #32]
	.loc	66 329 10 discriminator 1 @ /root/Bela/projects/RNBO-KPStrong/rnbo/src/RNBO_ExternalLoader.cpp:329:10
	bx	r2
.Ltmp920:
.Lfunc_end29:
	.size	_ZNK4RNBO14ExternalLoader14getParameterIdEj, .Lfunc_end29-_ZNK4RNBO14ExternalLoader14getParameterIdEj
	.cfi_endproc
	.fnend

	.globl	_ZNK4RNBO14ExternalLoader16getParameterInfoEjPNS_13ParameterInfoE
	.p2align	2
	.type	_ZNK4RNBO14ExternalLoader16getParameterInfoEjPNS_13ParameterInfoE,%function
_ZNK4RNBO14ExternalLoader16getParameterInfoEjPNS_13ParameterInfoE: @ @_ZNK4RNBO14ExternalLoader16getParameterInfoEjPNS_13ParameterInfoE
.Lfunc_begin30:
	.loc	66 333 0 is_stmt 1      @ /root/Bela/projects/RNBO-KPStrong/rnbo/src/RNBO_ExternalLoader.cpp:333:0
	.fnstart
	.cfi_startproc
@ BB#0:
	@DEBUG_VALUE: getParameterInfo:this <- %R0
	@DEBUG_VALUE: getParameterInfo:index <- %R1
	@DEBUG_VALUE: getParameterInfo:info <- %R2
	.loc	13 1058 9 prologue_end  @ /usr/bin/../lib/gcc/arm-linux-gnueabihf/6.3.0/../../../../include/c++/6.3.0/bits/shared_ptr_base.h:1058:9
	ldr	r3, [r0, #20]
.Ltmp921:
	.loc	66 334 42               @ /root/Bela/projects/RNBO-KPStrong/rnbo/src/RNBO_ExternalLoader.cpp:334:42
	ldr	r0, [r0, #28]
.Ltmp922:
	.loc	66 334 20 is_stmt 0     @ /root/Bela/projects/RNBO-KPStrong/rnbo/src/RNBO_ExternalLoader.cpp:334:20
	ldr	r3, [r3, #36]
	.loc	66 334 3 discriminator 1 @ /root/Bela/projects/RNBO-KPStrong/rnbo/src/RNBO_ExternalLoader.cpp:334:3
	bx	r3
.Ltmp923:
.Lfunc_end30:
	.size	_ZNK4RNBO14ExternalLoader16getParameterInfoEjPNS_13ParameterInfoE, .Lfunc_end30-_ZNK4RNBO14ExternalLoader16getParameterInfoEjPNS_13ParameterInfoE
	.cfi_endproc
	.fnend

	.globl	_ZN4RNBO14ExternalLoader17getParameterValueEj
	.p2align	2
	.type	_ZN4RNBO14ExternalLoader17getParameterValueEj,%function
_ZN4RNBO14ExternalLoader17getParameterValueEj: @ @_ZN4RNBO14ExternalLoader17getParameterValueEj
.Lfunc_begin31:
	.loc	66 338 0 is_stmt 1      @ /root/Bela/projects/RNBO-KPStrong/rnbo/src/RNBO_ExternalLoader.cpp:338:0
	.fnstart
	.cfi_startproc
@ BB#0:
	@DEBUG_VALUE: getParameterValue:this <- %R0
	@DEBUG_VALUE: getParameterValue:index <- %R1
	.loc	13 1058 9 prologue_end  @ /usr/bin/../lib/gcc/arm-linux-gnueabihf/6.3.0/../../../../include/c++/6.3.0/bits/shared_ptr_base.h:1058:9
	ldr	r2, [r0, #20]
.Ltmp924:
	.loc	66 339 50               @ /root/Bela/projects/RNBO-KPStrong/rnbo/src/RNBO_ExternalLoader.cpp:339:50
	ldr	r0, [r0, #28]
.Ltmp925:
	.loc	66 339 27 is_stmt 0     @ /root/Bela/projects/RNBO-KPStrong/rnbo/src/RNBO_ExternalLoader.cpp:339:27
	ldr	r2, [r2, #40]
	.loc	66 339 10 discriminator 1 @ /root/Bela/projects/RNBO-KPStrong/rnbo/src/RNBO_ExternalLoader.cpp:339:10
	bx	r2
.Ltmp926:
.Lfunc_end31:
	.size	_ZN4RNBO14ExternalLoader17getParameterValueEj, .Lfunc_end31-_ZN4RNBO14ExternalLoader17getParameterValueEj
	.cfi_endproc
	.fnend

	.globl	_ZN4RNBO14ExternalLoader17setParameterValueEjff
	.p2align	2
	.type	_ZN4RNBO14ExternalLoader17setParameterValueEjff,%function
_ZN4RNBO14ExternalLoader17setParameterValueEjff: @ @_ZN4RNBO14ExternalLoader17setParameterValueEjff
.Lfunc_begin32:
	.loc	66 343 0 is_stmt 1      @ /root/Bela/projects/RNBO-KPStrong/rnbo/src/RNBO_ExternalLoader.cpp:343:0
	.fnstart
	.cfi_startproc
@ BB#0:
	@DEBUG_VALUE: setParameterValue:this <- %R0
	@DEBUG_VALUE: setParameterValue:index <- %R1
	@DEBUG_VALUE: setParameterValue:value <- %S0
	@DEBUG_VALUE: setParameterValue:time <- %S1
	.loc	13 1058 9 prologue_end  @ /usr/bin/../lib/gcc/arm-linux-gnueabihf/6.3.0/../../../../include/c++/6.3.0/bits/shared_ptr_base.h:1058:9
	ldr	r2, [r0, #20]
.Ltmp927:
	.loc	66 344 43               @ /root/Bela/projects/RNBO-KPStrong/rnbo/src/RNBO_ExternalLoader.cpp:344:43
	ldr	r0, [r0, #28]
.Ltmp928:
	.loc	66 344 20 is_stmt 0     @ /root/Bela/projects/RNBO-KPStrong/rnbo/src/RNBO_ExternalLoader.cpp:344:20
	ldr	r2, [r2, #44]
	.loc	66 344 3 discriminator 1 @ /root/Bela/projects/RNBO-KPStrong/rnbo/src/RNBO_ExternalLoader.cpp:344:3
	bx	r2
.Ltmp929:
.Lfunc_end32:
	.size	_ZN4RNBO14ExternalLoader17setParameterValueEjff, .Lfunc_end32-_ZN4RNBO14ExternalLoader17setParameterValueEjff
	.cfi_endproc
	.fnend

	.globl	_ZNK4RNBO14ExternalLoader33convertToNormalizedParameterValueEjf
	.p2align	2
	.type	_ZNK4RNBO14ExternalLoader33convertToNormalizedParameterValueEjf,%function
_ZNK4RNBO14ExternalLoader33convertToNormalizedParameterValueEjf: @ @_ZNK4RNBO14ExternalLoader33convertToNormalizedParameterValueEjf
.Lfunc_begin33:
	.loc	66 348 0 is_stmt 1      @ /root/Bela/projects/RNBO-KPStrong/rnbo/src/RNBO_ExternalLoader.cpp:348:0
	.fnstart
	.cfi_startproc
@ BB#0:
	@DEBUG_VALUE: convertToNormalizedParameterValue:this <- %R0
	@DEBUG_VALUE: convertToNormalizedParameterValue:index <- %R1
	@DEBUG_VALUE: convertToNormalizedParameterValue:value <- %S0
	.loc	13 1058 9 prologue_end  @ /usr/bin/../lib/gcc/arm-linux-gnueabihf/6.3.0/../../../../include/c++/6.3.0/bits/shared_ptr_base.h:1058:9
	ldr	r2, [r0, #20]
.Ltmp930:
	.loc	66 349 66               @ /root/Bela/projects/RNBO-KPStrong/rnbo/src/RNBO_ExternalLoader.cpp:349:66
	ldr	r0, [r0, #28]
.Ltmp931:
	.loc	66 349 27 is_stmt 0     @ /root/Bela/projects/RNBO-KPStrong/rnbo/src/RNBO_ExternalLoader.cpp:349:27
	ldr	r2, [r2, #48]
	.loc	66 349 10 discriminator 1 @ /root/Bela/projects/RNBO-KPStrong/rnbo/src/RNBO_ExternalLoader.cpp:349:10
	bx	r2
.Ltmp932:
.Lfunc_end33:
	.size	_ZNK4RNBO14ExternalLoader33convertToNormalizedParameterValueEjf, .Lfunc_end33-_ZNK4RNBO14ExternalLoader33convertToNormalizedParameterValueEjf
	.cfi_endproc
	.fnend

	.globl	_ZNK4RNBO14ExternalLoader35convertFromNormalizedParameterValueEjf
	.p2align	2
	.type	_ZNK4RNBO14ExternalLoader35convertFromNormalizedParameterValueEjf,%function
_ZNK4RNBO14ExternalLoader35convertFromNormalizedParameterValueEjf: @ @_ZNK4RNBO14ExternalLoader35convertFromNormalizedParameterValueEjf
.Lfunc_begin34:
	.loc	66 353 0 is_stmt 1      @ /root/Bela/projects/RNBO-KPStrong/rnbo/src/RNBO_ExternalLoader.cpp:353:0
	.fnstart
	.cfi_startproc
@ BB#0:
	@DEBUG_VALUE: convertFromNormalizedParameterValue:this <- %R0
	@DEBUG_VALUE: convertFromNormalizedParameterValue:index <- %R1
	@DEBUG_VALUE: convertFromNormalizedParameterValue:normalizedValue <- %S0
	.loc	13 1058 9 prologue_end  @ /usr/bin/../lib/gcc/arm-linux-gnueabihf/6.3.0/../../../../include/c++/6.3.0/bits/shared_ptr_base.h:1058:9
	ldr	r2, [r0, #20]
.Ltmp933:
	.loc	66 354 68               @ /root/Bela/projects/RNBO-KPStrong/rnbo/src/RNBO_ExternalLoader.cpp:354:68
	ldr	r0, [r0, #28]
.Ltmp934:
	.loc	66 354 27 is_stmt 0     @ /root/Bela/projects/RNBO-KPStrong/rnbo/src/RNBO_ExternalLoader.cpp:354:27
	ldr	r2, [r2, #52]
	.loc	66 354 10 discriminator 1 @ /root/Bela/projects/RNBO-KPStrong/rnbo/src/RNBO_ExternalLoader.cpp:354:10
	bx	r2
.Ltmp935:
.Lfunc_end34:
	.size	_ZNK4RNBO14ExternalLoader35convertFromNormalizedParameterValueEjf, .Lfunc_end34-_ZNK4RNBO14ExternalLoader35convertFromNormalizedParameterValueEjf
	.cfi_endproc
	.fnend

	.globl	_ZNK4RNBO14ExternalLoader23constrainParameterValueEjf
	.p2align	2
	.type	_ZNK4RNBO14ExternalLoader23constrainParameterValueEjf,%function
_ZNK4RNBO14ExternalLoader23constrainParameterValueEjf: @ @_ZNK4RNBO14ExternalLoader23constrainParameterValueEjf
.Lfunc_begin35:
	.loc	66 358 0 is_stmt 1      @ /root/Bela/projects/RNBO-KPStrong/rnbo/src/RNBO_ExternalLoader.cpp:358:0
	.fnstart
	.cfi_startproc
@ BB#0:
	@DEBUG_VALUE: constrainParameterValue:this <- %R0
	@DEBUG_VALUE: constrainParameterValue:index <- %R1
	@DEBUG_VALUE: constrainParameterValue:value <- %S0
	.loc	13 1058 9 prologue_end  @ /usr/bin/../lib/gcc/arm-linux-gnueabihf/6.3.0/../../../../include/c++/6.3.0/bits/shared_ptr_base.h:1058:9
	ldr	r2, [r0, #20]
.Ltmp936:
	.loc	66 359 56               @ /root/Bela/projects/RNBO-KPStrong/rnbo/src/RNBO_ExternalLoader.cpp:359:56
	ldr	r0, [r0, #28]
.Ltmp937:
	.loc	66 359 27 is_stmt 0     @ /root/Bela/projects/RNBO-KPStrong/rnbo/src/RNBO_ExternalLoader.cpp:359:27
	ldr	r2, [r2, #56]
	.loc	66 359 10 discriminator 1 @ /root/Bela/projects/RNBO-KPStrong/rnbo/src/RNBO_ExternalLoader.cpp:359:10
	bx	r2
.Ltmp938:
.Lfunc_end35:
	.size	_ZNK4RNBO14ExternalLoader23constrainParameterValueEjf, .Lfunc_end35-_ZNK4RNBO14ExternalLoader23constrainParameterValueEjf
	.cfi_endproc
	.fnend

	.globl	_ZN4RNBO14ExternalLoader16prepareToProcessEfjb
	.p2align	2
	.type	_ZN4RNBO14ExternalLoader16prepareToProcessEfjb,%function
_ZN4RNBO14ExternalLoader16prepareToProcessEfjb: @ @_ZN4RNBO14ExternalLoader16prepareToProcessEfjb
.Lfunc_begin36:
	.loc	66 363 0 is_stmt 1      @ /root/Bela/projects/RNBO-KPStrong/rnbo/src/RNBO_ExternalLoader.cpp:363:0
	.fnstart
	.cfi_startproc
@ BB#0:
	@DEBUG_VALUE: prepareToProcess:this <- %R0
	@DEBUG_VALUE: prepareToProcess:sampleRate <- %S0
	@DEBUG_VALUE: prepareToProcess:maxBlockSize <- %R1
	@DEBUG_VALUE: prepareToProcess:force [bit_piece offset=0 size=1] <- %R2
	.loc	13 1058 9 prologue_end  @ /usr/bin/../lib/gcc/arm-linux-gnueabihf/6.3.0/../../../../include/c++/6.3.0/bits/shared_ptr_base.h:1058:9
	ldr	r3, [r0, #20]
.Ltmp939:
	.loc	66 364 54               @ /root/Bela/projects/RNBO-KPStrong/rnbo/src/RNBO_ExternalLoader.cpp:364:54
	vcvt.f64.f32	d0, s0
.Ltmp940:
	.loc	66 364 42 is_stmt 0     @ /root/Bela/projects/RNBO-KPStrong/rnbo/src/RNBO_ExternalLoader.cpp:364:42
	ldr	r0, [r0, #28]
.Ltmp941:
	.loc	66 364 20               @ /root/Bela/projects/RNBO-KPStrong/rnbo/src/RNBO_ExternalLoader.cpp:364:20
	ldr	r3, [r3, #60]
	.loc	66 364 3 discriminator 1 @ /root/Bela/projects/RNBO-KPStrong/rnbo/src/RNBO_ExternalLoader.cpp:364:3
	bx	r3
.Ltmp942:
.Lfunc_end36:
	.size	_ZN4RNBO14ExternalLoader16prepareToProcessEfjb, .Lfunc_end36-_ZN4RNBO14ExternalLoader16prepareToProcessEfjb
	.cfi_endproc
	.fnend

	.globl	_ZN4RNBO14ExternalLoader7processEPPfjS2_jj
	.p2align	2
	.type	_ZN4RNBO14ExternalLoader7processEPPfjS2_jj,%function
_ZN4RNBO14ExternalLoader7processEPPfjS2_jj: @ @_ZN4RNBO14ExternalLoader7processEPPfjS2_jj
.Lfunc_begin37:
	.loc	66 368 0 is_stmt 1      @ /root/Bela/projects/RNBO-KPStrong/rnbo/src/RNBO_ExternalLoader.cpp:368:0
	.fnstart
	.cfi_startproc
@ BB#0:
	@DEBUG_VALUE: process:this <- %R0
	@DEBUG_VALUE: process:audioInputs <- %R1
	@DEBUG_VALUE: process:numInputs <- %R2
	@DEBUG_VALUE: process:audioOutputs <- %R3
	@DEBUG_VALUE: process:numOutputs <- [%SP+0]
	@DEBUG_VALUE: process:sampleFrames <- [%SP+4]
	.loc	13 1058 9 prologue_end  @ /usr/bin/../lib/gcc/arm-linux-gnueabihf/6.3.0/../../../../include/c++/6.3.0/bits/shared_ptr_base.h:1058:9
	ldr	r12, [r0, #20]
.Ltmp943:
	.loc	66 369 33               @ /root/Bela/projects/RNBO-KPStrong/rnbo/src/RNBO_ExternalLoader.cpp:369:33
	ldr	r0, [r0, #28]
.Ltmp944:
	.loc	66 369 20 is_stmt 0     @ /root/Bela/projects/RNBO-KPStrong/rnbo/src/RNBO_ExternalLoader.cpp:369:20
	ldr	r12, [r12, #64]
	.loc	66 369 3 discriminator 1 @ /root/Bela/projects/RNBO-KPStrong/rnbo/src/RNBO_ExternalLoader.cpp:369:3
	bx	r12
.Ltmp945:
.Lfunc_end37:
	.size	_ZN4RNBO14ExternalLoader7processEPPfjS2_jj, .Lfunc_end37-_ZN4RNBO14ExternalLoader7processEPPfjS2_jj
	.cfi_endproc
	.fnend

	.globl	_ZNK4RNBO14ExternalLoader19getNumInputChannelsEv
	.p2align	2
	.type	_ZNK4RNBO14ExternalLoader19getNumInputChannelsEv,%function
_ZNK4RNBO14ExternalLoader19getNumInputChannelsEv: @ @_ZNK4RNBO14ExternalLoader19getNumInputChannelsEv
.Lfunc_begin38:
	.loc	66 373 0 is_stmt 1      @ /root/Bela/projects/RNBO-KPStrong/rnbo/src/RNBO_ExternalLoader.cpp:373:0
	.fnstart
	.cfi_startproc
@ BB#0:
	@DEBUG_VALUE: getNumInputChannels:this <- %R0
	.loc	13 1058 9 prologue_end  @ /usr/bin/../lib/gcc/arm-linux-gnueabihf/6.3.0/../../../../include/c++/6.3.0/bits/shared_ptr_base.h:1058:9
	ldr	r1, [r0, #20]
.Ltmp946:
	.loc	66 374 52               @ /root/Bela/projects/RNBO-KPStrong/rnbo/src/RNBO_ExternalLoader.cpp:374:52
	ldr	r0, [r0, #28]
.Ltmp947:
	.loc	66 374 27 is_stmt 0     @ /root/Bela/projects/RNBO-KPStrong/rnbo/src/RNBO_ExternalLoader.cpp:374:27
	ldr	r1, [r1, #68]
	.loc	66 374 10 discriminator 1 @ /root/Bela/projects/RNBO-KPStrong/rnbo/src/RNBO_ExternalLoader.cpp:374:10
	bx	r1
.Ltmp948:
.Lfunc_end38:
	.size	_ZNK4RNBO14ExternalLoader19getNumInputChannelsEv, .Lfunc_end38-_ZNK4RNBO14ExternalLoader19getNumInputChannelsEv
	.cfi_endproc
	.fnend

	.globl	_ZNK4RNBO14ExternalLoader20getNumOutputChannelsEv
	.p2align	2
	.type	_ZNK4RNBO14ExternalLoader20getNumOutputChannelsEv,%function
_ZNK4RNBO14ExternalLoader20getNumOutputChannelsEv: @ @_ZNK4RNBO14ExternalLoader20getNumOutputChannelsEv
.Lfunc_begin39:
	.loc	66 378 0 is_stmt 1      @ /root/Bela/projects/RNBO-KPStrong/rnbo/src/RNBO_ExternalLoader.cpp:378:0
	.fnstart
	.cfi_startproc
@ BB#0:
	@DEBUG_VALUE: getNumOutputChannels:this <- %R0
	.loc	13 1058 9 prologue_end  @ /usr/bin/../lib/gcc/arm-linux-gnueabihf/6.3.0/../../../../include/c++/6.3.0/bits/shared_ptr_base.h:1058:9
	ldr	r1, [r0, #20]
.Ltmp949:
	.loc	66 379 53               @ /root/Bela/projects/RNBO-KPStrong/rnbo/src/RNBO_ExternalLoader.cpp:379:53
	ldr	r0, [r0, #28]
.Ltmp950:
	.loc	66 379 27 is_stmt 0     @ /root/Bela/projects/RNBO-KPStrong/rnbo/src/RNBO_ExternalLoader.cpp:379:27
	ldr	r1, [r1, #72]
	.loc	66 379 10 discriminator 1 @ /root/Bela/projects/RNBO-KPStrong/rnbo/src/RNBO_ExternalLoader.cpp:379:10
	bx	r1
.Ltmp951:
.Lfunc_end39:
	.size	_ZNK4RNBO14ExternalLoader20getNumOutputChannelsEv, .Lfunc_end39-_ZNK4RNBO14ExternalLoader20getNumOutputChannelsEv
	.cfi_endproc
	.fnend

	.globl	_ZN4RNBO14ExternalLoader16processMidiEventEfiPKhj
	.p2align	2
	.type	_ZN4RNBO14ExternalLoader16processMidiEventEfiPKhj,%function
_ZN4RNBO14ExternalLoader16processMidiEventEfiPKhj: @ @_ZN4RNBO14ExternalLoader16processMidiEventEfiPKhj
.Lfunc_begin40:
	.loc	66 383 0 is_stmt 1      @ /root/Bela/projects/RNBO-KPStrong/rnbo/src/RNBO_ExternalLoader.cpp:383:0
	.fnstart
	.cfi_startproc
@ BB#0:
	@DEBUG_VALUE: processMidiEvent:this <- %R0
	@DEBUG_VALUE: processMidiEvent:time <- %S0
	@DEBUG_VALUE: processMidiEvent:port <- %R1
	@DEBUG_VALUE: processMidiEvent:data <- %R2
	@DEBUG_VALUE: processMidiEvent:length <- %R3
	.loc	13 1058 9 prologue_end  @ /usr/bin/../lib/gcc/arm-linux-gnueabihf/6.3.0/../../../../include/c++/6.3.0/bits/shared_ptr_base.h:1058:9
	ldr	r12, [r0, #20]
.Ltmp952:
	.loc	66 384 42               @ /root/Bela/projects/RNBO-KPStrong/rnbo/src/RNBO_ExternalLoader.cpp:384:42
	ldr	r0, [r0, #28]
.Ltmp953:
	.loc	66 384 20 is_stmt 0     @ /root/Bela/projects/RNBO-KPStrong/rnbo/src/RNBO_ExternalLoader.cpp:384:20
	ldr	r12, [r12, #76]
	.loc	66 384 3 discriminator 1 @ /root/Bela/projects/RNBO-KPStrong/rnbo/src/RNBO_ExternalLoader.cpp:384:3
	bx	r12
.Ltmp954:
.Lfunc_end40:
	.size	_ZN4RNBO14ExternalLoader16processMidiEventEfiPKhj, .Lfunc_end40-_ZN4RNBO14ExternalLoader16processMidiEventEfiPKhj
	.cfi_endproc
	.fnend

	.globl	_ZThn16_N4RNBO14ExternalLoader16processMidiEventEfiPKhj
	.p2align	2
	.type	_ZThn16_N4RNBO14ExternalLoader16processMidiEventEfiPKhj,%function
_ZThn16_N4RNBO14ExternalLoader16processMidiEventEfiPKhj: @ @_ZThn16_N4RNBO14ExternalLoader16processMidiEventEfiPKhj
.Lfunc_begin41:
	.loc	66 382 0 is_stmt 1      @ /root/Bela/projects/RNBO-KPStrong/rnbo/src/RNBO_ExternalLoader.cpp:382:0
	.fnstart
	.cfi_startproc
@ BB#0:
	@DEBUG_VALUE: this <- %R0
	@DEBUG_VALUE: time <- %S0
	@DEBUG_VALUE: port <- %R1
	@DEBUG_VALUE: data <- %R2
	@DEBUG_VALUE: length <- %R3
	.loc	13 1058 9 prologue_end  @ /usr/bin/../lib/gcc/arm-linux-gnueabihf/6.3.0/../../../../include/c++/6.3.0/bits/shared_ptr_base.h:1058:9
	ldr	r12, [r0, #4]
.Ltmp955:
	.loc	66 384 42               @ /root/Bela/projects/RNBO-KPStrong/rnbo/src/RNBO_ExternalLoader.cpp:384:42
	ldr	r0, [r0, #12]
.Ltmp956:
	@DEBUG_VALUE: processMidiEvent:data <- %R2
	@DEBUG_VALUE: processMidiEvent:port <- %R1
	@DEBUG_VALUE: processMidiEvent:time <- %S0
	.loc	66 384 20 is_stmt 0     @ /root/Bela/projects/RNBO-KPStrong/rnbo/src/RNBO_ExternalLoader.cpp:384:20
	ldr	r12, [r12, #76]
.Ltmp957:
	@DEBUG_VALUE: processMidiEvent:length <- %R3
	.loc	66 384 3 discriminator 1 @ /root/Bela/projects/RNBO-KPStrong/rnbo/src/RNBO_ExternalLoader.cpp:384:3
	bx	r12
.Ltmp958:
.Lfunc_end41:
	.size	_ZThn16_N4RNBO14ExternalLoader16processMidiEventEfiPKhj, .Lfunc_end41-_ZThn16_N4RNBO14ExternalLoader16processMidiEventEfiPKhj
	.cfi_endproc
	.fnend

	.globl	_ZN4RNBO14ExternalLoader17processClockEventEfibf
	.p2align	2
	.type	_ZN4RNBO14ExternalLoader17processClockEventEfibf,%function
_ZN4RNBO14ExternalLoader17processClockEventEfibf: @ @_ZN4RNBO14ExternalLoader17processClockEventEfibf
.Lfunc_begin42:
	.loc	66 388 0 is_stmt 1      @ /root/Bela/projects/RNBO-KPStrong/rnbo/src/RNBO_ExternalLoader.cpp:388:0
	.fnstart
	.cfi_startproc
@ BB#0:
	@DEBUG_VALUE: processClockEvent:this <- %R0
	@DEBUG_VALUE: processClockEvent:time <- %S0
	@DEBUG_VALUE: processClockEvent:index <- %R1
	@DEBUG_VALUE: processClockEvent:hasValue [bit_piece offset=0 size=1] <- %R2
	@DEBUG_VALUE: processClockEvent:value <- %S1
	.loc	13 1058 9 prologue_end  @ /usr/bin/../lib/gcc/arm-linux-gnueabihf/6.3.0/../../../../include/c++/6.3.0/bits/shared_ptr_base.h:1058:9
	ldr	r3, [r0, #20]
.Ltmp959:
	.loc	66 389 43               @ /root/Bela/projects/RNBO-KPStrong/rnbo/src/RNBO_ExternalLoader.cpp:389:43
	ldr	r0, [r0, #28]
.Ltmp960:
	.loc	66 389 20 is_stmt 0     @ /root/Bela/projects/RNBO-KPStrong/rnbo/src/RNBO_ExternalLoader.cpp:389:20
	ldr	r3, [r3, #80]
	.loc	66 389 3 discriminator 1 @ /root/Bela/projects/RNBO-KPStrong/rnbo/src/RNBO_ExternalLoader.cpp:389:3
	bx	r3
.Ltmp961:
.Lfunc_end42:
	.size	_ZN4RNBO14ExternalLoader17processClockEventEfibf, .Lfunc_end42-_ZN4RNBO14ExternalLoader17processClockEventEfibf
	.cfi_endproc
	.fnend

	.globl	_ZThn16_N4RNBO14ExternalLoader17processClockEventEfibf
	.p2align	2
	.type	_ZThn16_N4RNBO14ExternalLoader17processClockEventEfibf,%function
_ZThn16_N4RNBO14ExternalLoader17processClockEventEfibf: @ @_ZThn16_N4RNBO14ExternalLoader17processClockEventEfibf
.Lfunc_begin43:
	.loc	66 387 0 is_stmt 1      @ /root/Bela/projects/RNBO-KPStrong/rnbo/src/RNBO_ExternalLoader.cpp:387:0
	.fnstart
	.cfi_startproc
@ BB#0:
	@DEBUG_VALUE: this <- %R0
	@DEBUG_VALUE: time <- %S0
	@DEBUG_VALUE: index <- %R1
	@DEBUG_VALUE: hasValue [bit_piece offset=0 size=1] <- %R2
	@DEBUG_VALUE: value <- %S1
	.loc	13 1058 9 prologue_end  @ /usr/bin/../lib/gcc/arm-linux-gnueabihf/6.3.0/../../../../include/c++/6.3.0/bits/shared_ptr_base.h:1058:9
	ldr	r3, [r0, #4]
.Ltmp962:
	.loc	66 389 43               @ /root/Bela/projects/RNBO-KPStrong/rnbo/src/RNBO_ExternalLoader.cpp:389:43
	ldr	r0, [r0, #12]
.Ltmp963:
	@DEBUG_VALUE: processClockEvent:value <- %S1
	@DEBUG_VALUE: processClockEvent:index <- %R1
	@DEBUG_VALUE: processClockEvent:time <- %S0
	.loc	66 389 20 is_stmt 0     @ /root/Bela/projects/RNBO-KPStrong/rnbo/src/RNBO_ExternalLoader.cpp:389:20
	ldr	r3, [r3, #80]
	.loc	66 389 3 discriminator 1 @ /root/Bela/projects/RNBO-KPStrong/rnbo/src/RNBO_ExternalLoader.cpp:389:3
	bx	r3
.Ltmp964:
.Lfunc_end43:
	.size	_ZThn16_N4RNBO14ExternalLoader17processClockEventEfibf, .Lfunc_end43-_ZThn16_N4RNBO14ExternalLoader17processClockEventEfibf
	.cfi_endproc
	.fnend

	.section	.text._ZN4RNBO18ParameterInterface22getParameterNormalizedEj,"axG",%progbits,_ZN4RNBO18ParameterInterface22getParameterNormalizedEj,comdat
	.weak	_ZN4RNBO18ParameterInterface22getParameterNormalizedEj
	.p2align	2
	.type	_ZN4RNBO18ParameterInterface22getParameterNormalizedEj,%function
_ZN4RNBO18ParameterInterface22getParameterNormalizedEj: @ @_ZN4RNBO18ParameterInterface22getParameterNormalizedEj
.Lfunc_begin44:
	.loc	34 23 0 is_stmt 1       @ /root/Bela/projects/RNBO-KPStrong/rnbo/common/RNBO_ParameterInterface.h:23:0
	.fnstart
	.cfi_startproc
@ BB#0:
	.save	{r4, r5, r6, r10, r11, lr}
	push	{r4, r5, r6, r10, r11, lr}
.Ltmp965:
	.cfi_def_cfa_offset 24
.Ltmp966:
	.cfi_offset lr, -4
.Ltmp967:
	.cfi_offset r11, -8
.Ltmp968:
	.cfi_offset r10, -12
.Ltmp969:
	.cfi_offset r6, -16
.Ltmp970:
	.cfi_offset r5, -20
.Ltmp971:
	.cfi_offset r4, -24
	.setfp	r11, sp, #16
	add	r11, sp, #16
.Ltmp972:
	.cfi_def_cfa r11, 8
	@DEBUG_VALUE: getParameterNormalized:this <- %R0
	@DEBUG_VALUE: getParameterNormalized:index <- %R1
	mov	r5, r0
.Ltmp973:
	@DEBUG_VALUE: getParameterNormalized:this <- %R5
	mov	r4, r1
.Ltmp974:
	@DEBUG_VALUE: getParameterNormalized:index <- %R4
	.loc	34 24 11 prologue_end   @ /root/Bela/projects/RNBO-KPStrong/rnbo/common/RNBO_ParameterInterface.h:24:11
	ldr	r0, [r5]
	.loc	34 24 52 is_stmt 0      @ /root/Bela/projects/RNBO-KPStrong/rnbo/common/RNBO_ParameterInterface.h:24:52
	ldr	r2, [r0, #16]
	.loc	34 24 11                @ /root/Bela/projects/RNBO-KPStrong/rnbo/common/RNBO_ParameterInterface.h:24:11
	ldr	r6, [r0, #32]
	.loc	34 24 52                @ /root/Bela/projects/RNBO-KPStrong/rnbo/common/RNBO_ParameterInterface.h:24:52
	mov	r0, r5
	blx	r2
	.loc	34 24 11 discriminator 1 @ /root/Bela/projects/RNBO-KPStrong/rnbo/common/RNBO_ParameterInterface.h:24:11
	mov	r0, r5
	mov	r1, r4
	mov	r2, r6
	pop	{r4, r5, r6, r10, r11, lr}
.Ltmp975:
	bx	r2
.Ltmp976:
.Lfunc_end44:
	.size	_ZN4RNBO18ParameterInterface22getParameterNormalizedEj, .Lfunc_end44-_ZN4RNBO18ParameterInterface22getParameterNormalizedEj
	.cfi_endproc
	.fnend

	.section	.text._ZN4RNBO18ParameterInterface27setParameterValueNormalizedEjff,"axG",%progbits,_ZN4RNBO18ParameterInterface27setParameterValueNormalizedEjff,comdat
	.weak	_ZN4RNBO18ParameterInterface27setParameterValueNormalizedEjff
	.p2align	2
	.type	_ZN4RNBO18ParameterInterface27setParameterValueNormalizedEjff,%function
_ZN4RNBO18ParameterInterface27setParameterValueNormalizedEjff: @ @_ZN4RNBO18ParameterInterface27setParameterValueNormalizedEjff
.Lfunc_begin45:
	.loc	34 27 0 is_stmt 1       @ /root/Bela/projects/RNBO-KPStrong/rnbo/common/RNBO_ParameterInterface.h:27:0
	.fnstart
	.cfi_startproc
@ BB#0:
	.save	{r4, r5, r6, r10, r11, lr}
	push	{r4, r5, r6, r10, r11, lr}
.Ltmp977:
	.cfi_def_cfa_offset 24
.Ltmp978:
	.cfi_offset lr, -4
.Ltmp979:
	.cfi_offset r11, -8
.Ltmp980:
	.cfi_offset r10, -12
.Ltmp981:
	.cfi_offset r6, -16
.Ltmp982:
	.cfi_offset r5, -20
.Ltmp983:
	.cfi_offset r4, -24
	.setfp	r11, sp, #16
	add	r11, sp, #16
.Ltmp984:
	.cfi_def_cfa r11, 8
	.vsave	{d8}
	vpush	{d8}
.Ltmp985:
	.cfi_offset d8, -32
	@DEBUG_VALUE: setParameterValueNormalized:this <- %R0
	@DEBUG_VALUE: setParameterValueNormalized:index <- %R1
	@DEBUG_VALUE: setParameterValueNormalized:normalizedValue <- %S0
	@DEBUG_VALUE: setParameterValueNormalized:time <- %S1
	mov	r5, r0
.Ltmp986:
	@DEBUG_VALUE: setParameterValueNormalized:this <- %R5
	vmov.f32	s16, s1
.Ltmp987:
	@DEBUG_VALUE: setParameterValueNormalized:time <- %S16
	.loc	34 28 4 prologue_end    @ /root/Bela/projects/RNBO-KPStrong/rnbo/common/RNBO_ParameterInterface.h:28:4
	ldr	r0, [r5]
	mov	r4, r1
.Ltmp988:
	@DEBUG_VALUE: setParameterValueNormalized:index <- %R4
	.loc	34 28 29 is_stmt 0      @ /root/Bela/projects/RNBO-KPStrong/rnbo/common/RNBO_ParameterInterface.h:28:29
	ldr	r2, [r0, #36]
	.loc	34 28 4                 @ /root/Bela/projects/RNBO-KPStrong/rnbo/common/RNBO_ParameterInterface.h:28:4
	ldr	r6, [r0, #20]
	.loc	34 28 29                @ /root/Bela/projects/RNBO-KPStrong/rnbo/common/RNBO_ParameterInterface.h:28:29
	mov	r0, r5
	blx	r2
.Ltmp989:
	.loc	34 28 4 discriminator 1 @ /root/Bela/projects/RNBO-KPStrong/rnbo/common/RNBO_ParameterInterface.h:28:4
	mov	r0, r5
	mov	r1, r4
	vmov.f32	s1, s16
.Ltmp990:
	@DEBUG_VALUE: setParameterValueNormalized:time <- %S1
	mov	r2, r6
	vpop	{d8}
	pop	{r4, r5, r6, r10, r11, lr}
.Ltmp991:
	bx	r2
.Ltmp992:
.Lfunc_end45:
	.size	_ZN4RNBO18ParameterInterface27setParameterValueNormalizedEjff, .Lfunc_end45-_ZN4RNBO18ParameterInterface27setParameterValueNormalizedEjff
	.cfi_endproc
	.fnend

	.section	.text._ZN4RNBO14ExternalLoaderD2Ev,"axG",%progbits,_ZN4RNBO14ExternalLoaderD2Ev,comdat
	.weak	_ZN4RNBO14ExternalLoaderD2Ev
	.p2align	2
	.type	_ZN4RNBO14ExternalLoaderD2Ev,%function
_ZN4RNBO14ExternalLoaderD2Ev:           @ @_ZN4RNBO14ExternalLoaderD2Ev
.Lfunc_begin46:
	.loc	11 76 0 is_stmt 1       @ /root/Bela/projects/RNBO-KPStrong/rnbo/src/RNBO_ExternalLoader.h:76:0
	.fnstart
	.cfi_startproc
@ BB#0:
	.save	{r4, r5, r6, r7, r11, lr}
	push	{r4, r5, r6, r7, r11, lr}
.Ltmp993:
	.cfi_def_cfa_offset 24
.Ltmp994:
	.cfi_offset lr, -4
.Ltmp995:
	.cfi_offset r11, -8
.Ltmp996:
	.cfi_offset r7, -12
.Ltmp997:
	.cfi_offset r6, -16
.Ltmp998:
	.cfi_offset r5, -20
.Ltmp999:
	.cfi_offset r4, -24
	.setfp	r11, sp, #16
	add	r11, sp, #16
.Ltmp1000:
	.cfi_def_cfa r11, 8
	@DEBUG_VALUE: ~ExternalLoader:this <- %R0
	mov	r4, r0
.Ltmp1001:
	@DEBUG_VALUE: ~ExternalLoader:this <- %R4
	.loc	11 76 8 prologue_end    @ /root/Bela/projects/RNBO-KPStrong/rnbo/src/RNBO_ExternalLoader.h:76:8
	movw	r0, :lower16:_ZTVN4RNBO14ExternalLoaderE
	movt	r0, :upper16:_ZTVN4RNBO14ExternalLoaderE
	add	r1, r0, #8
	add	r2, r0, #104
	add	r0, r0, #116
	str	r0, [r4, #16]
	stm	r4, {r1, r2}
.Ltmp1002:
	.loc	13 661 6                @ /usr/bin/../lib/gcc/arm-linux-gnueabihf/6.3.0/../../../../include/c++/6.3.0/bits/shared_ptr_base.h:661:6
	ldr	r5, [r4, #24]
.Ltmp1003:
	@DEBUG_VALUE: _M_release:this <- %R5
	.loc	13 661 6 is_stmt 0      @ /usr/bin/../lib/gcc/arm-linux-gnueabihf/6.3.0/../../../../include/c++/6.3.0/bits/shared_ptr_base.h:661:6
	cmp	r5, #0
	beq	.LBB46_14
.Ltmp1004:
@ BB#1:
	@DEBUG_VALUE: _M_release:this <- %R5
	@DEBUG_VALUE: ~ExternalLoader:this <- %R4
	@DEBUG_VALUE: __exchange_and_add_dispatch:__val <- -1
	.loc	67 81 9 is_stmt 1       @ /usr/bin/../lib/gcc/arm-linux-gnueabihf/6.3.0/../../../../include/c++/6.3.0/ext/atomicity.h:81:9
	movw	r6, :lower16:__pthread_key_create
.Ltmp1005:
	.loc	13 147 46               @ /usr/bin/../lib/gcc/arm-linux-gnueabihf/6.3.0/../../../../include/c++/6.3.0/bits/shared_ptr_base.h:147:46
	add	r0, r5, #4
.Ltmp1006:
	.loc	67 81 9                 @ /usr/bin/../lib/gcc/arm-linux-gnueabihf/6.3.0/../../../../include/c++/6.3.0/ext/atomicity.h:81:9
	movt	r6, :upper16:__pthread_key_create
	cmp	r6, #0
	beq	.LBB46_5
.Ltmp1007:
@ BB#2:
	@DEBUG_VALUE: _M_release:this <- %R5
	@DEBUG_VALUE: ~ExternalLoader:this <- %R4
	@DEBUG_VALUE: __exchange_and_add:__val <- -1
	.loc	67 49 12                @ /usr/bin/../lib/gcc/arm-linux-gnueabihf/6.3.0/../../../../include/c++/6.3.0/ext/atomicity.h:49:12
	dmb	ish
.Ltmp1008:
.LBB46_3:                               @ %atomicrmw.start
                                        @ =>This Inner Loop Header: Depth=1
	ldrex	r1, [r0]
	sub	r2, r1, #1
	strex	r3, r2, [r0]
	cmp	r3, #0
	bne	.LBB46_3
@ BB#4:                                 @ %atomicrmw.end
	dmb	ish
	b	.LBB46_6
.Ltmp1009:
.LBB46_5:
	@DEBUG_VALUE: _M_release:this <- %R5
	@DEBUG_VALUE: ~ExternalLoader:this <- %R4
	@DEBUG_VALUE: __exchange_and_add_single:__val <- -1
	.loc	67 67 29                @ /usr/bin/../lib/gcc/arm-linux-gnueabihf/6.3.0/../../../../include/c++/6.3.0/ext/atomicity.h:67:29
	ldr	r1, [r0]
.Ltmp1010:
	@DEBUG_VALUE: __exchange_and_add_single:__result <- %R1
	.loc	67 68 12                @ /usr/bin/../lib/gcc/arm-linux-gnueabihf/6.3.0/../../../../include/c++/6.3.0/ext/atomicity.h:68:12
	sub	r2, r1, #1
	str	r2, [r0]
.Ltmp1011:
.LBB46_6:                               @ %_ZN9__gnu_cxxL27__exchange_and_add_dispatchEPii.exit.i.i.i
	.loc	13 147 6 discriminator 1 @ /usr/bin/../lib/gcc/arm-linux-gnueabihf/6.3.0/../../../../include/c++/6.3.0/bits/shared_ptr_base.h:147:6
	cmp	r1, #1
	bne	.LBB46_14
@ BB#7:
.Ltmp1012:
	.loc	13 150 6                @ /usr/bin/../lib/gcc/arm-linux-gnueabihf/6.3.0/../../../../include/c++/6.3.0/bits/shared_ptr_base.h:150:6
	mov	r7, r5
	ldr	r0, [r7], #8
	ldr	r1, [r0, #8]
	mov	r0, r5
	blx	r1
.Ltmp1013:
	@DEBUG_VALUE: __exchange_and_add_dispatch:__val <- -1
	.loc	67 81 9                 @ /usr/bin/../lib/gcc/arm-linux-gnueabihf/6.3.0/../../../../include/c++/6.3.0/ext/atomicity.h:81:9
	cmp	r6, #0
	beq	.LBB46_11
@ BB#8:
.Ltmp1014:
	@DEBUG_VALUE: __exchange_and_add:__val <- -1
	.loc	67 49 12                @ /usr/bin/../lib/gcc/arm-linux-gnueabihf/6.3.0/../../../../include/c++/6.3.0/ext/atomicity.h:49:12
	dmb	ish
.LBB46_9:                               @ %atomicrmw.start2
                                        @ =>This Inner Loop Header: Depth=1
	ldrex	r0, [r7]
	sub	r1, r0, #1
	strex	r2, r1, [r7]
	cmp	r2, #0
	bne	.LBB46_9
@ BB#10:                                @ %atomicrmw.end1
	dmb	ish
	b	.LBB46_12
.Ltmp1015:
.LBB46_11:
	@DEBUG_VALUE: __exchange_and_add_single:__val <- -1
	.loc	67 67 29                @ /usr/bin/../lib/gcc/arm-linux-gnueabihf/6.3.0/../../../../include/c++/6.3.0/ext/atomicity.h:67:29
	ldr	r0, [r7]
.Ltmp1016:
	@DEBUG_VALUE: __exchange_and_add_single:__result <- %R0
	.loc	67 68 12                @ /usr/bin/../lib/gcc/arm-linux-gnueabihf/6.3.0/../../../../include/c++/6.3.0/ext/atomicity.h:68:12
	sub	r1, r0, #1
	str	r1, [r7]
.Ltmp1017:
.LBB46_12:                              @ %_ZN9__gnu_cxxL27__exchange_and_add_dispatchEPii.exit2.i.i.i
	.loc	13 162 10 discriminator 1 @ /usr/bin/../lib/gcc/arm-linux-gnueabihf/6.3.0/../../../../include/c++/6.3.0/bits/shared_ptr_base.h:162:10
	cmp	r0, #1
	bne	.LBB46_14
@ BB#13:
.Ltmp1018:
	.loc	13 166 10               @ /usr/bin/../lib/gcc/arm-linux-gnueabihf/6.3.0/../../../../include/c++/6.3.0/bits/shared_ptr_base.h:166:10
	ldr	r0, [r5]
	ldr	r1, [r0, #12]
	mov	r0, r5
	blx	r1
.Ltmp1019:
.LBB46_14:                              @ %_ZNSt12__shared_ptrIN4RNBO14ExternalModuleELN9__gnu_cxx12_Lock_policyE2EED2Ev.exit
	.loc	11 76 8                 @ /root/Bela/projects/RNBO-KPStrong/rnbo/src/RNBO_ExternalLoader.h:76:8
	mov	r0, r4
	pop	{r4, r5, r6, r7, r11, pc}
.Ltmp1020:
.Lfunc_end46:
	.size	_ZN4RNBO14ExternalLoaderD2Ev, .Lfunc_end46-_ZN4RNBO14ExternalLoaderD2Ev
	.cfi_endproc
	.fnend

	.section	.text._ZN4RNBO14ExternalLoaderD0Ev,"axG",%progbits,_ZN4RNBO14ExternalLoaderD0Ev,comdat
	.weak	_ZN4RNBO14ExternalLoaderD0Ev
	.p2align	2
	.type	_ZN4RNBO14ExternalLoaderD0Ev,%function
_ZN4RNBO14ExternalLoaderD0Ev:           @ @_ZN4RNBO14ExternalLoaderD0Ev
.Lfunc_begin47:
	.loc	11 76 0                 @ /root/Bela/projects/RNBO-KPStrong/rnbo/src/RNBO_ExternalLoader.h:76:0
	.fnstart
	.cfi_startproc
@ BB#0:
	.save	{r4, r5, r6, r7, r11, lr}
	push	{r4, r5, r6, r7, r11, lr}
.Ltmp1021:
	.cfi_def_cfa_offset 24
.Ltmp1022:
	.cfi_offset lr, -4
.Ltmp1023:
	.cfi_offset r11, -8
.Ltmp1024:
	.cfi_offset r7, -12
.Ltmp1025:
	.cfi_offset r6, -16
.Ltmp1026:
	.cfi_offset r5, -20
.Ltmp1027:
	.cfi_offset r4, -24
	.setfp	r11, sp, #16
	add	r11, sp, #16
.Ltmp1028:
	.cfi_def_cfa r11, 8
	@DEBUG_VALUE: ~ExternalLoader:this <- %R0
	mov	r4, r0
.Ltmp1029:
	@DEBUG_VALUE: ~ExternalLoader:this <- %R4
	@DEBUG_VALUE: ~ExternalLoader:this <- %R4
	.loc	11 76 8 prologue_end    @ /root/Bela/projects/RNBO-KPStrong/rnbo/src/RNBO_ExternalLoader.h:76:8
	movw	r0, :lower16:_ZTVN4RNBO14ExternalLoaderE
	movt	r0, :upper16:_ZTVN4RNBO14ExternalLoaderE
	add	r1, r0, #8
	add	r2, r0, #104
	add	r0, r0, #116
	str	r0, [r4, #16]
	stm	r4, {r1, r2}
.Ltmp1030:
	.loc	13 661 6                @ /usr/bin/../lib/gcc/arm-linux-gnueabihf/6.3.0/../../../../include/c++/6.3.0/bits/shared_ptr_base.h:661:6
	ldr	r5, [r4, #24]
.Ltmp1031:
	@DEBUG_VALUE: _M_release:this <- %R5
	.loc	13 661 6 is_stmt 0      @ /usr/bin/../lib/gcc/arm-linux-gnueabihf/6.3.0/../../../../include/c++/6.3.0/bits/shared_ptr_base.h:661:6
	cmp	r5, #0
	beq	.LBB47_14
.Ltmp1032:
@ BB#1:
	@DEBUG_VALUE: _M_release:this <- %R5
	@DEBUG_VALUE: ~ExternalLoader:this <- %R4
	@DEBUG_VALUE: ~ExternalLoader:this <- %R4
	@DEBUG_VALUE: __exchange_and_add_dispatch:__val <- -1
	.loc	67 81 9 is_stmt 1       @ /usr/bin/../lib/gcc/arm-linux-gnueabihf/6.3.0/../../../../include/c++/6.3.0/ext/atomicity.h:81:9
	movw	r6, :lower16:__pthread_key_create
.Ltmp1033:
	.loc	13 147 46               @ /usr/bin/../lib/gcc/arm-linux-gnueabihf/6.3.0/../../../../include/c++/6.3.0/bits/shared_ptr_base.h:147:46
	add	r0, r5, #4
.Ltmp1034:
	.loc	67 81 9                 @ /usr/bin/../lib/gcc/arm-linux-gnueabihf/6.3.0/../../../../include/c++/6.3.0/ext/atomicity.h:81:9
	movt	r6, :upper16:__pthread_key_create
	cmp	r6, #0
	beq	.LBB47_5
.Ltmp1035:
@ BB#2:
	@DEBUG_VALUE: _M_release:this <- %R5
	@DEBUG_VALUE: ~ExternalLoader:this <- %R4
	@DEBUG_VALUE: ~ExternalLoader:this <- %R4
	@DEBUG_VALUE: __exchange_and_add:__val <- -1
	.loc	67 49 12                @ /usr/bin/../lib/gcc/arm-linux-gnueabihf/6.3.0/../../../../include/c++/6.3.0/ext/atomicity.h:49:12
	dmb	ish
.Ltmp1036:
.LBB47_3:                               @ %atomicrmw.start
                                        @ =>This Inner Loop Header: Depth=1
	ldrex	r1, [r0]
	sub	r2, r1, #1
	strex	r3, r2, [r0]
	cmp	r3, #0
	bne	.LBB47_3
@ BB#4:                                 @ %atomicrmw.end
	dmb	ish
	b	.LBB47_6
.Ltmp1037:
.LBB47_5:
	@DEBUG_VALUE: _M_release:this <- %R5
	@DEBUG_VALUE: ~ExternalLoader:this <- %R4
	@DEBUG_VALUE: ~ExternalLoader:this <- %R4
	@DEBUG_VALUE: __exchange_and_add_single:__val <- -1
	.loc	67 67 29                @ /usr/bin/../lib/gcc/arm-linux-gnueabihf/6.3.0/../../../../include/c++/6.3.0/ext/atomicity.h:67:29
	ldr	r1, [r0]
.Ltmp1038:
	@DEBUG_VALUE: __exchange_and_add_single:__result <- %R1
	.loc	67 68 12                @ /usr/bin/../lib/gcc/arm-linux-gnueabihf/6.3.0/../../../../include/c++/6.3.0/ext/atomicity.h:68:12
	sub	r2, r1, #1
	str	r2, [r0]
.Ltmp1039:
.LBB47_6:                               @ %_ZN9__gnu_cxxL27__exchange_and_add_dispatchEPii.exit.i.i.i.i
	.loc	13 147 6 discriminator 1 @ /usr/bin/../lib/gcc/arm-linux-gnueabihf/6.3.0/../../../../include/c++/6.3.0/bits/shared_ptr_base.h:147:6
	cmp	r1, #1
	bne	.LBB47_14
@ BB#7:
.Ltmp1040:
	.loc	13 150 6                @ /usr/bin/../lib/gcc/arm-linux-gnueabihf/6.3.0/../../../../include/c++/6.3.0/bits/shared_ptr_base.h:150:6
	mov	r7, r5
	ldr	r0, [r7], #8
	ldr	r1, [r0, #8]
	mov	r0, r5
	blx	r1
.Ltmp1041:
	@DEBUG_VALUE: __exchange_and_add_dispatch:__val <- -1
	.loc	67 81 9                 @ /usr/bin/../lib/gcc/arm-linux-gnueabihf/6.3.0/../../../../include/c++/6.3.0/ext/atomicity.h:81:9
	cmp	r6, #0
	beq	.LBB47_11
@ BB#8:
.Ltmp1042:
	@DEBUG_VALUE: __exchange_and_add:__val <- -1
	.loc	67 49 12                @ /usr/bin/../lib/gcc/arm-linux-gnueabihf/6.3.0/../../../../include/c++/6.3.0/ext/atomicity.h:49:12
	dmb	ish
.LBB47_9:                               @ %atomicrmw.start2
                                        @ =>This Inner Loop Header: Depth=1
	ldrex	r0, [r7]
	sub	r1, r0, #1
	strex	r2, r1, [r7]
	cmp	r2, #0
	bne	.LBB47_9
@ BB#10:                                @ %atomicrmw.end1
	dmb	ish
	b	.LBB47_12
.Ltmp1043:
.LBB47_11:
	@DEBUG_VALUE: __exchange_and_add_single:__val <- -1
	.loc	67 67 29                @ /usr/bin/../lib/gcc/arm-linux-gnueabihf/6.3.0/../../../../include/c++/6.3.0/ext/atomicity.h:67:29
	ldr	r0, [r7]
.Ltmp1044:
	@DEBUG_VALUE: __exchange_and_add_single:__result <- %R0
	.loc	67 68 12                @ /usr/bin/../lib/gcc/arm-linux-gnueabihf/6.3.0/../../../../include/c++/6.3.0/ext/atomicity.h:68:12
	sub	r1, r0, #1
	str	r1, [r7]
.Ltmp1045:
.LBB47_12:                              @ %_ZN9__gnu_cxxL27__exchange_and_add_dispatchEPii.exit2.i.i.i.i
	.loc	13 162 10 discriminator 1 @ /usr/bin/../lib/gcc/arm-linux-gnueabihf/6.3.0/../../../../include/c++/6.3.0/bits/shared_ptr_base.h:162:10
	cmp	r0, #1
	bne	.LBB47_14
@ BB#13:
.Ltmp1046:
	.loc	13 166 10               @ /usr/bin/../lib/gcc/arm-linux-gnueabihf/6.3.0/../../../../include/c++/6.3.0/bits/shared_ptr_base.h:166:10
	ldr	r0, [r5]
	ldr	r1, [r0, #12]
	mov	r0, r5
	blx	r1
.Ltmp1047:
.LBB47_14:                              @ %_ZN4RNBO14ExternalLoaderD2Ev.exit
	.loc	11 76 8 discriminator 1 @ /root/Bela/projects/RNBO-KPStrong/rnbo/src/RNBO_ExternalLoader.h:76:8
	mov	r0, r4
	pop	{r4, r5, r6, r7, r11, lr}
	b	_ZdlPv
.Ltmp1048:
.Lfunc_end47:
	.size	_ZN4RNBO14ExternalLoaderD0Ev, .Lfunc_end47-_ZN4RNBO14ExternalLoaderD0Ev
	.cfi_endproc
	.fnend

	.section	.text._ZNK4RNBO10EngineLink9getEngineEv,"axG",%progbits,_ZNK4RNBO10EngineLink9getEngineEv,comdat
	.weak	_ZNK4RNBO10EngineLink9getEngineEv
	.p2align	2
	.type	_ZNK4RNBO10EngineLink9getEngineEv,%function
_ZNK4RNBO10EngineLink9getEngineEv:      @ @_ZNK4RNBO10EngineLink9getEngineEv
.Lfunc_begin48:
	.loc	37 22 0                 @ /root/Bela/projects/RNBO-KPStrong/rnbo/common/RNBO_EngineLink.h:22:0
	.fnstart
	.cfi_startproc
@ BB#0:
	@DEBUG_VALUE: getEngine:this <- %R0
	.loc	37 23 11 prologue_end   @ /root/Bela/projects/RNBO-KPStrong/rnbo/common/RNBO_EngineLink.h:23:11
	ldr	r0, [r0, #4]
.Ltmp1049:
	.loc	37 23 4 is_stmt 0       @ /root/Bela/projects/RNBO-KPStrong/rnbo/common/RNBO_EngineLink.h:23:4
	bx	lr
.Ltmp1050:
.Lfunc_end48:
	.size	_ZNK4RNBO10EngineLink9getEngineEv, .Lfunc_end48-_ZNK4RNBO10EngineLink9getEngineEv
	.cfi_endproc
	.fnend

	.section	.text._ZNSt10_HashtableIN4RNBO6StringESt4pairIKS1_St10shared_ptrINS0_14ExternalModuleEEESaIS7_ENSt8__detail10_Select1stESt8equal_toIS1_ENS0_12StringHasherENS9_18_Mod_range_hashingENS9_20_Default_ranged_hashENS9_20_Prime_rehash_policyENS9_17_Hashtable_traitsILb1ELb0ELb1EEEED2Ev,"axG",%progbits,_ZNSt10_HashtableIN4RNBO6StringESt4pairIKS1_St10shared_ptrINS0_14ExternalModuleEEESaIS7_ENSt8__detail10_Select1stESt8equal_toIS1_ENS0_12StringHasherENS9_18_Mod_range_hashingENS9_20_Default_ranged_hashENS9_20_Prime_rehash_policyENS9_17_Hashtable_traitsILb1ELb0ELb1EEEED2Ev,comdat
	.weak	_ZNSt10_HashtableIN4RNBO6StringESt4pairIKS1_St10shared_ptrINS0_14ExternalModuleEEESaIS7_ENSt8__detail10_Select1stESt8equal_toIS1_ENS0_12StringHasherENS9_18_Mod_range_hashingENS9_20_Default_ranged_hashENS9_20_Prime_rehash_policyENS9_17_Hashtable_traitsILb1ELb0ELb1EEEED2Ev
	.p2align	2
	.type	_ZNSt10_HashtableIN4RNBO6StringESt4pairIKS1_St10shared_ptrINS0_14ExternalModuleEEESaIS7_ENSt8__detail10_Select1stESt8equal_toIS1_ENS0_12StringHasherENS9_18_Mod_range_hashingENS9_20_Default_ranged_hashENS9_20_Prime_rehash_policyENS9_17_Hashtable_traitsILb1ELb0ELb1EEEED2Ev,%function
_ZNSt10_HashtableIN4RNBO6StringESt4pairIKS1_St10shared_ptrINS0_14ExternalModuleEEESaIS7_ENSt8__detail10_Select1stESt8equal_toIS1_ENS0_12StringHasherENS9_18_Mod_range_hashingENS9_20_Default_ranged_hashENS9_20_Prime_rehash_policyENS9_17_Hashtable_traitsILb1ELb0ELb1EEEED2Ev: @ @_ZNSt10_HashtableIN4RNBO6StringESt4pairIKS1_St10shared_ptrINS0_14ExternalModuleEEESaIS7_ENSt8__detail10_Select1stESt8equal_toIS1_ENS0_12StringHasherENS9_18_Mod_range_hashingENS9_20_Default_ranged_hashENS9_20_Prime_rehash_policyENS9_17_Hashtable_traitsILb1ELb0ELb1EEEED2Ev
.Lfunc_begin49:
	.loc	23 1226 0 is_stmt 1     @ /usr/bin/../lib/gcc/arm-linux-gnueabihf/6.3.0/../../../../include/c++/6.3.0/bits/hashtable.h:1226:0
	.fnstart
	.cfi_startproc
@ BB#0:
	.save	{r4, r5, r6, r7, r8, r9, r11, lr}
	push	{r4, r5, r6, r7, r8, r9, r11, lr}
.Ltmp1051:
	.cfi_def_cfa_offset 32
.Ltmp1052:
	.cfi_offset lr, -4
.Ltmp1053:
	.cfi_offset r11, -8
.Ltmp1054:
	.cfi_offset r9, -12
.Ltmp1055:
	.cfi_offset r8, -16
.Ltmp1056:
	.cfi_offset r7, -20
.Ltmp1057:
	.cfi_offset r6, -24
.Ltmp1058:
	.cfi_offset r5, -28
.Ltmp1059:
	.cfi_offset r4, -32
	.setfp	r11, sp, #24
	add	r11, sp, #24
.Ltmp1060:
	.cfi_def_cfa r11, 8
	@DEBUG_VALUE: ~_Hashtable:this <- %R0
	mov	r8, r0
.Ltmp1061:
	@DEBUG_VALUE: _M_begin:this <- %R8
	@DEBUG_VALUE: clear:this <- %R8
	@DEBUG_VALUE: ~_Hashtable:this <- %R8
	.loc	23 369 58 prologue_end  @ /usr/bin/../lib/gcc/arm-linux-gnueabihf/6.3.0/../../../../include/c++/6.3.0/bits/hashtable.h:369:58
	ldr	r5, [r8, #8]
.Ltmp1062:
	@DEBUG_VALUE: _M_deallocate_nodes:__n <- %R5
	.loc	4 1980 7 discriminator 1 @ /usr/bin/../lib/gcc/arm-linux-gnueabihf/6.3.0/../../../../include/c++/6.3.0/bits/hashtable_policy.h:1980:7
	cmp	r5, #0
	beq	.LBB49_19
.Ltmp1063:
@ BB#1:                                 @ %.lr.ph.i.i.preheader
	@DEBUG_VALUE: _M_deallocate_nodes:__n <- %R5
	@DEBUG_VALUE: ~_Hashtable:this <- %R8
	@DEBUG_VALUE: clear:this <- %R8
	@DEBUG_VALUE: _M_begin:this <- %R8
	.loc	67 81 9                 @ /usr/bin/../lib/gcc/arm-linux-gnueabihf/6.3.0/../../../../include/c++/6.3.0/ext/atomicity.h:81:9
	movw	r9, :lower16:__pthread_key_create
	movt	r9, :upper16:__pthread_key_create
.Ltmp1064:
.LBB49_2:                               @ %.lr.ph.i.i
                                        @ =>This Loop Header: Depth=1
                                        @     Child Loop BB49_5 Depth 2
                                        @     Child Loop BB49_11 Depth 2
	@DEBUG_VALUE: _M_next:this <- %R5
	.loc	13 661 6                @ /usr/bin/../lib/gcc/arm-linux-gnueabihf/6.3.0/../../../../include/c++/6.3.0/bits/shared_ptr_base.h:661:6
	ldr	r7, [r5, #20]
.Ltmp1065:
	@DEBUG_VALUE: _M_release:this <- %R7
	.loc	4 283 47                @ /usr/bin/../lib/gcc/arm-linux-gnueabihf/6.3.0/../../../../include/c++/6.3.0/bits/hashtable_policy.h:283:47
	ldr	r4, [r5]
.Ltmp1066:
	@DEBUG_VALUE: _M_deallocate_nodes:__n <- %R4
