	.text
	.syntax unified
	.eabi_attribute	67, "2.09"	@ Tag_conformance
	.cpu	cortex-a8
	.eabi_attribute	6, 10	@ Tag_CPU_arch
	.eabi_attribute	7, 65	@ Tag_CPU_arch_profile
	.eabi_attribute	8, 1	@ Tag_ARM_ISA_use
	.eabi_attribute	9, 2	@ Tag_THUMB_ISA_use
	.fpu	neon
	.eabi_attribute	17, 1	@ Tag_ABI_PCS_GOT_use
	.eabi_attribute	20, 2	@ Tag_ABI_FP_denormal
	.eabi_attribute	23, 1	@ Tag_ABI_FP_number_model
	.eabi_attribute	34, 1	@ Tag_CPU_unaligned_access
	.eabi_attribute	24, 1	@ Tag_ABI_align_needed
	.eabi_attribute	25, 1	@ Tag_ABI_align_preserved
	.eabi_attribute	28, 1	@ Tag_ABI_VFP_args
	.eabi_attribute	38, 1	@ Tag_ABI_FP_16bit_format
	.eabi_attribute	18, 4	@ Tag_ABI_PCS_wchar_t
	.eabi_attribute	26, 2	@ Tag_ABI_enum_size
	.eabi_attribute	14, 0	@ Tag_ABI_PCS_R9_use
	.eabi_attribute	68, 1	@ Tag_Virtualization_use
	.file	"/root/Bela/projects/RNBO-KPStrong/build/rnbo/src/RNBO_PlatformInterfaceImpl.bc"
	.file	1 "/usr/bin/../lib/gcc/arm-linux-gnueabihf/6.3.0/../../../../include/arm-linux-gnueabihf/c++/6.3.0/bits" "c++config.h"
	.file	2 "/usr/bin/../lib/gcc/arm-linux-gnueabihf/6.3.0/../../../../include/arm-linux-gnueabihf/c++/6.3.0/bits" "atomic_word.h"
	.file	3 "/usr/bin/../lib/gcc/arm-linux-gnueabihf/6.3.0/../../../../include/c++/6.3.0/bits" "ios_base.h"
	.file	4 "/usr/bin/../lib/gcc/arm-linux-gnueabihf/6.3.0/../../../../include/c++/6.3.0" "iostream"
	.file	5 "/root/Bela/projects/RNBO-KPStrong/rnbo/common" "RNBO_Types.h"
	.file	6 "/root/Bela/projects/RNBO-KPStrong/rnbo/common" "RNBO_PlatformInterface.h"
	.file	7 "/usr/lib/llvm-3.9/bin/../lib/clang/3.9.1/include" "stddef.h"
	.file	8 "/root/Bela/projects/RNBO-KPStrong/rnbo/src/platforms/stdlib" "RNBO_PlatformInterfaceStdLib.h"
	.file	9 "/root/Bela/projects/RNBO-KPStrong/rnbo/src" "RNBO_PlatformInterfaceImpl.cpp"
	.file	10 "/usr/bin/../lib/gcc/arm-linux-gnueabihf/6.3.0/../../../../include/c++/6.3.0/bits" "postypes.h"
	.file	11 "/usr/include" "stdlib.h"
	.file	12 "/usr/include/arm-linux-gnueabihf/bits" "stdlib-float.h"
	.file	13 "/usr/include/arm-linux-gnueabihf/bits" "stdlib-bsearch.h"
	.file	14 "/usr/bin/../lib/gcc/arm-linux-gnueabihf/6.3.0/../../../../include/c++/6.3.0" "cstdlib"
	.file	15 "/root/Bela/projects/RNBO-KPStrong/build/rnbo/src" "RNBO_PlatformInterfaceImpl.cpp"
	.file	16 "/usr/bin/../lib/gcc/arm-linux-gnueabihf/6.3.0/../../../../include/c++/6.3.0/debug" "debug.h"
	.file	17 "/usr/bin/../lib/gcc/arm-linux-gnueabihf/6.3.0/../../../../include/c++/6.3.0/bits" "exception_ptr.h"
	.file	18 "/usr/include" "wchar.h"
	.file	19 "/usr/include" "libio.h"
	.file	20 "/usr/include/arm-linux-gnueabihf/bits" "types.h"
	.file	21 "/usr/include" "stdio.h"
	.file	22 "/usr/lib/llvm-3.9/bin/../lib/clang/3.9.1/include" "stdarg.h"
	.file	23 "/usr/include" "stdint.h"
	.file	24 "/usr/include" "locale.h"
	.file	25 "/usr/include" "ctype.h"
	.file	26 "/usr/include" "_G_config.h"
	.file	27 "/usr/include/arm-linux-gnueabihf/bits" "stdio.h"
	.file	28 "/usr/include" "wctype.h"
	.file	29 "/usr/include" "string.h"
	.section	.text._ZN4RNBO17PlatformInterfaceD2Ev,"axG",%progbits,_ZN4RNBO17PlatformInterfaceD2Ev,comdat
	.weak	_ZN4RNBO17PlatformInterfaceD2Ev
	.p2align	2
	.type	_ZN4RNBO17PlatformInterfaceD2Ev,%function
_ZN4RNBO17PlatformInterfaceD2Ev:        @ @_ZN4RNBO17PlatformInterfaceD2Ev
.Lfunc_begin0:
	.loc	6 83 0                  @ /root/Bela/projects/RNBO-KPStrong/rnbo/common/RNBO_PlatformInterface.h:83:0
	.fnstart
	.cfi_startproc
@ BB#0:
	@DEBUG_VALUE: ~PlatformInterface:this <- %R0
	.loc	6 83 40 prologue_end    @ /root/Bela/projects/RNBO-KPStrong/rnbo/common/RNBO_PlatformInterface.h:83:40
	bx	lr
.Ltmp0:
.Lfunc_end0:
	.size	_ZN4RNBO17PlatformInterfaceD2Ev, .Lfunc_end0-_ZN4RNBO17PlatformInterfaceD2Ev
	.cfi_endproc
	.fnend

	.section	.text._ZN4RNBO23PlatformInterfaceStdLibD0Ev,"axG",%progbits,_ZN4RNBO23PlatformInterfaceStdLibD0Ev,comdat
	.weak	_ZN4RNBO23PlatformInterfaceStdLibD0Ev
	.p2align	2
	.type	_ZN4RNBO23PlatformInterfaceStdLibD0Ev,%function
_ZN4RNBO23PlatformInterfaceStdLibD0Ev:  @ @_ZN4RNBO23PlatformInterfaceStdLibD0Ev
.Lfunc_begin1:
	.loc	8 21 0                  @ /root/Bela/projects/RNBO-KPStrong/rnbo/src/platforms/stdlib//RNBO_PlatformInterfaceStdLib.h:21:0
	.fnstart
	.cfi_startproc
@ BB#0:
	@DEBUG_VALUE: ~PlatformInterfaceStdLib:this <- %R0
	.loc	8 21 3 prologue_end discriminator 1 @ /root/Bela/projects/RNBO-KPStrong/rnbo/src/platforms/stdlib//RNBO_PlatformInterfaceStdLib.h:21:3
	b	_ZdlPv
.Ltmp1:
.Lfunc_end1:
	.size	_ZN4RNBO23PlatformInterfaceStdLibD0Ev, .Lfunc_end1-_ZN4RNBO23PlatformInterfaceStdLibD0Ev
	.cfi_endproc
	.fnend

	.section	.text._ZN4RNBO23PlatformInterfaceStdLib12printMessageEPKc,"axG",%progbits,_ZN4RNBO23PlatformInterfaceStdLib12printMessageEPKc,comdat
	.weak	_ZN4RNBO23PlatformInterfaceStdLib12printMessageEPKc
	.p2align	2
	.type	_ZN4RNBO23PlatformInterfaceStdLib12printMessageEPKc,%function
_ZN4RNBO23PlatformInterfaceStdLib12printMessageEPKc: @ @_ZN4RNBO23PlatformInterfaceStdLib12printMessageEPKc
.Lfunc_begin2:
	.loc	8 26 0                  @ /root/Bela/projects/RNBO-KPStrong/rnbo/src/platforms/stdlib//RNBO_PlatformInterfaceStdLib.h:26:0
	.fnstart
	.cfi_startproc
@ BB#0:
	.save	{r4, r10, r11, lr}
	push	{r4, r10, r11, lr}
.Ltmp2:
	.cfi_def_cfa_offset 16
.Ltmp3:
	.cfi_offset lr, -4
.Ltmp4:
	.cfi_offset r11, -8
.Ltmp5:
	.cfi_offset r10, -12
.Ltmp6:
	.cfi_offset r4, -16
	.setfp	r11, sp, #8
	add	r11, sp, #8
.Ltmp7:
	.cfi_def_cfa r11, 8
	@DEBUG_VALUE: printMessage:this <- %R0
	@DEBUG_VALUE: printMessage:message <- %R1
	mov	r4, r1
.Ltmp8:
	@DEBUG_VALUE: operator<<<std::char_traits<char> >:__s <- %R4
	@DEBUG_VALUE: printMessage:message <- %R4
	.file	30 "/usr/bin/../lib/gcc/arm-linux-gnueabihf/6.3.0/../../../../include/c++/6.3.0" "ostream"
	.loc	30 558 11 prologue_end  @ /usr/bin/../lib/gcc/arm-linux-gnueabihf/6.3.0/../../../../include/c++/6.3.0/ostream:558:11
	cmp	r4, #0
	beq	.LBB2_2
.Ltmp9:
@ BB#1:
	@DEBUG_VALUE: printMessage:message <- %R4
	@DEBUG_VALUE: operator<<<std::char_traits<char> >:__s <- %R4
	@DEBUG_VALUE: printMessage:this <- %R0
	@DEBUG_VALUE: length:__s <- %R4
	.file	31 "/usr/bin/../lib/gcc/arm-linux-gnueabihf/6.3.0/../../../../include/c++/6.3.0/bits" "char_traits.h"
	.loc	31 267 16               @ /usr/bin/../lib/gcc/arm-linux-gnueabihf/6.3.0/../../../../include/c++/6.3.0/bits/char_traits.h:267:16
	mov	r0, r4
.Ltmp10:
	bl	strlen
	mov	r2, r0
.Ltmp11:
	.loc	30 561 2                @ /usr/bin/../lib/gcc/arm-linux-gnueabihf/6.3.0/../../../../include/c++/6.3.0/ostream:561:2
	movw	r0, :lower16:_ZSt4cout
	movt	r0, :upper16:_ZSt4cout
.Ltmp12:
	@DEBUG_VALUE: operator<<<std::char_traits<char> >:__out <- %R0
	mov	r1, r4
	bl	_ZSt16__ostream_insertIcSt11char_traitsIcEERSt13basic_ostreamIT_T0_ES6_PKS3_i
.Ltmp13:
	b	.LBB2_3
.Ltmp14:
.LBB2_2:
	@DEBUG_VALUE: printMessage:message <- %R4
	@DEBUG_VALUE: operator<<<std::char_traits<char> >:__s <- %R4
	@DEBUG_VALUE: printMessage:this <- %R0
	.loc	30 559 2                @ /usr/bin/../lib/gcc/arm-linux-gnueabihf/6.3.0/../../../../include/c++/6.3.0/ostream:559:2
	movw	r0, :lower16:_ZSt4cout
.Ltmp15:
	movt	r0, :upper16:_ZSt4cout
	ldr	r1, [r0]
	ldr	r1, [r1, #-12]
	add	r0, r0, r1
.Ltmp16:
	@DEBUG_VALUE: rdstate:this <- %R0
	@DEBUG_VALUE: setstate:__state <- 1
	@DEBUG_VALUE: setstate:this <- %R0
	.file	32 "/usr/bin/../lib/gcc/arm-linux-gnueabihf/6.3.0/../../../../include/c++/6.3.0/bits" "basic_ios.h"
	.loc	32 138 16               @ /usr/bin/../lib/gcc/arm-linux-gnueabihf/6.3.0/../../../../include/c++/6.3.0/bits/basic_ios.h:138:16
	ldr	r1, [r0, #20]
.Ltmp17:
	@DEBUG_VALUE: operator|:__b <- 1
	@DEBUG_VALUE: operator|:__a <- %R1
	.loc	3 170 47                @ /usr/bin/../lib/gcc/arm-linux-gnueabihf/6.3.0/../../../../include/c++/6.3.0/bits/ios_base.h:170:47
	orr	r1, r1, #1
.Ltmp18:
	.loc	32 158 15 discriminator 2 @ /usr/bin/../lib/gcc/arm-linux-gnueabihf/6.3.0/../../../../include/c++/6.3.0/bits/basic_ios.h:158:15
	bl	_ZNSt9basic_iosIcSt11char_traitsIcEE5clearESt12_Ios_Iostate
.Ltmp19:
.LBB2_3:                                @ %_ZStlsISt11char_traitsIcEERSt13basic_ostreamIcT_ES5_PKc.exit
	@DEBUG_VALUE: printMessage:message <- %R4
	@DEBUG_VALUE: operator<<<std::char_traits<char> >:__s <- %R4
	.loc	30 591 29               @ /usr/bin/../lib/gcc/arm-linux-gnueabihf/6.3.0/../../../../include/c++/6.3.0/ostream:591:29
	movw	r0, :lower16:_ZSt4cout
	movt	r0, :upper16:_ZSt4cout
	ldr	r1, [r0]
	ldr	r1, [r1, #-12]
	add	r0, r0, r1
.Ltmp20:
	@DEBUG_VALUE: widen:__c <- 10
	.loc	32 450 30               @ /usr/bin/../lib/gcc/arm-linux-gnueabihf/6.3.0/../../../../include/c++/6.3.0/bits/basic_ios.h:450:30
	ldr	r4, [r0, #124]
.Ltmp21:
	@DEBUG_VALUE: __check_facet<std::ctype<char> >:__f <- %R4
	@DEBUG_VALUE: widen:this <- %R4
	.loc	32 49 11                @ /usr/bin/../lib/gcc/arm-linux-gnueabihf/6.3.0/../../../../include/c++/6.3.0/bits/basic_ios.h:49:11
	cmp	r4, #0
.Ltmp22:
	@DEBUG_VALUE: endl<char, std::char_traits<char> >:__os <- %R0
	beq	.LBB2_8
.Ltmp23:
@ BB#4:                                 @ %_ZSt13__check_facetISt5ctypeIcEERKT_PS3_.exit
	@DEBUG_VALUE: endl<char, std::char_traits<char> >:__os <- %R0
	@DEBUG_VALUE: widen:this <- %R4
	@DEBUG_VALUE: __check_facet<std::ctype<char> >:__f <- %R4
	@DEBUG_VALUE: widen:__c <- 10
	.file	33 "/usr/bin/../lib/gcc/arm-linux-gnueabihf/6.3.0/../../../../include/c++/6.3.0/bits" "locale_facets.h"
	.loc	33 874 6                @ /usr/bin/../lib/gcc/arm-linux-gnueabihf/6.3.0/../../../../include/c++/6.3.0/bits/locale_facets.h:874:6
	ldrb	r0, [r4, #28]
.Ltmp24:
	.loc	33 874 6 is_stmt 0      @ /usr/bin/../lib/gcc/arm-linux-gnueabihf/6.3.0/../../../../include/c++/6.3.0/bits/locale_facets.h:874:6
	cmp	r0, #0
	beq	.LBB2_6
.Ltmp25:
@ BB#5:
	@DEBUG_VALUE: widen:this <- %R4
	@DEBUG_VALUE: __check_facet<std::ctype<char> >:__f <- %R4
	.loc	33 875 11 is_stmt 1     @ /usr/bin/../lib/gcc/arm-linux-gnueabihf/6.3.0/../../../../include/c++/6.3.0/bits/locale_facets.h:875:11
	ldrb	r1, [r4, #39]
	b	.LBB2_7
.Ltmp26:
.LBB2_6:
	@DEBUG_VALUE: widen:this <- %R4
	@DEBUG_VALUE: __check_facet<std::ctype<char> >:__f <- %R4
	.loc	33 876 8                @ /usr/bin/../lib/gcc/arm-linux-gnueabihf/6.3.0/../../../../include/c++/6.3.0/bits/locale_facets.h:876:8
	mov	r0, r4
	bl	_ZNKSt5ctypeIcE13_M_widen_initEv
	.loc	33 877 15               @ /usr/bin/../lib/gcc/arm-linux-gnueabihf/6.3.0/../../../../include/c++/6.3.0/bits/locale_facets.h:877:15
	ldr	r0, [r4]
	mov	r1, #10
	ldr	r2, [r0, #24]
	mov	r0, r4
	blx	r2
	mov	r1, r0
.Ltmp27:
.LBB2_7:                                @ %_ZNKSt5ctypeIcE5widenEc.exit
	@DEBUG_VALUE: widen:this <- %R4
	@DEBUG_VALUE: __check_facet<std::ctype<char> >:__f <- %R4
	.loc	30 591 25 discriminator 1 @ /usr/bin/../lib/gcc/arm-linux-gnueabihf/6.3.0/../../../../include/c++/6.3.0/ostream:591:25
	movw	r0, :lower16:_ZSt4cout
	movt	r0, :upper16:_ZSt4cout
	bl	_ZNSo3putEc
.Ltmp28:
	@DEBUG_VALUE: flush<char, std::char_traits<char> >:__os <- %R0
	.loc	30 613 19               @ /usr/bin/../lib/gcc/arm-linux-gnueabihf/6.3.0/../../../../include/c++/6.3.0/ostream:613:19
	pop	{r4, r10, r11, lr}
.Ltmp29:
	b	_ZNSo5flushEv
.Ltmp30:
.LBB2_8:
	@DEBUG_VALUE: endl<char, std::char_traits<char> >:__os <- %R0
	@DEBUG_VALUE: widen:this <- %R4
	@DEBUG_VALUE: __check_facet<std::ctype<char> >:__f <- %R4
	.loc	32 50 2                 @ /usr/bin/../lib/gcc/arm-linux-gnueabihf/6.3.0/../../../../include/c++/6.3.0/bits/basic_ios.h:50:2
	mov	lr, pc
	b	_ZSt16__throw_bad_castv
.Ltmp31:
.Lfunc_end2:
	.size	_ZN4RNBO23PlatformInterfaceStdLib12printMessageEPKc, .Lfunc_end2-_ZN4RNBO23PlatformInterfaceStdLib12printMessageEPKc
	.cfi_endproc
	.fnend

	.section	.text._ZN4RNBO17PlatformInterface17printErrorMessageEPKc,"axG",%progbits,_ZN4RNBO17PlatformInterface17printErrorMessageEPKc,comdat
	.weak	_ZN4RNBO17PlatformInterface17printErrorMessageEPKc
	.p2align	2
	.type	_ZN4RNBO17PlatformInterface17printErrorMessageEPKc,%function
_ZN4RNBO17PlatformInterface17printErrorMessageEPKc: @ @_ZN4RNBO17PlatformInterface17printErrorMessageEPKc
.Lfunc_begin3:
	.loc	6 105 0                 @ /root/Bela/projects/RNBO-KPStrong/rnbo/common/RNBO_PlatformInterface.h:105:0
	.fnstart
	.cfi_startproc
@ BB#0:
	@DEBUG_VALUE: printErrorMessage:this <- %R0
	@DEBUG_VALUE: printErrorMessage:message <- %R1
	.loc	6 106 4 prologue_end    @ /root/Bela/projects/RNBO-KPStrong/rnbo/common/RNBO_PlatformInterface.h:106:4
	ldr	r2, [r0]
	ldr	r2, [r2, #8]
	bx	r2
.Ltmp32:
.Lfunc_end3:
	.size	_ZN4RNBO17PlatformInterface17printErrorMessageEPKc, .Lfunc_end3-_ZN4RNBO17PlatformInterface17printErrorMessageEPKc
	.cfi_endproc
	.fnend

	.section	.text._ZN4RNBO23PlatformInterfaceStdLib6mallocEj,"axG",%progbits,_ZN4RNBO23PlatformInterfaceStdLib6mallocEj,comdat
	.weak	_ZN4RNBO23PlatformInterfaceStdLib6mallocEj
	.p2align	2
	.type	_ZN4RNBO23PlatformInterfaceStdLib6mallocEj,%function
_ZN4RNBO23PlatformInterfaceStdLib6mallocEj: @ @_ZN4RNBO23PlatformInterfaceStdLib6mallocEj
.Lfunc_begin4:
	.loc	8 32 0                  @ /root/Bela/projects/RNBO-KPStrong/rnbo/src/platforms/stdlib//RNBO_PlatformInterfaceStdLib.h:32:0
	.fnstart
	.cfi_startproc
@ BB#0:
	@DEBUG_VALUE: malloc:this <- %R0
	@DEBUG_VALUE: malloc:bytes <- %R1
	.loc	8 33 11 prologue_end    @ /root/Bela/projects/RNBO-KPStrong/rnbo/src/platforms/stdlib//RNBO_PlatformInterfaceStdLib.h:33:11
	mov	r0, r1
.Ltmp33:
	@DEBUG_VALUE: malloc:bytes <- %R0
	b	malloc
.Ltmp34:
.Lfunc_end4:
	.size	_ZN4RNBO23PlatformInterfaceStdLib6mallocEj, .Lfunc_end4-_ZN4RNBO23PlatformInterfaceStdLib6mallocEj
	.cfi_endproc
	.fnend

	.section	.text._ZN4RNBO23PlatformInterfaceStdLib6callocEjj,"axG",%progbits,_ZN4RNBO23PlatformInterfaceStdLib6callocEjj,comdat
	.weak	_ZN4RNBO23PlatformInterfaceStdLib6callocEjj
	.p2align	2
	.type	_ZN4RNBO23PlatformInterfaceStdLib6callocEjj,%function
_ZN4RNBO23PlatformInterfaceStdLib6callocEjj: @ @_ZN4RNBO23PlatformInterfaceStdLib6callocEjj
.Lfunc_begin5:
	.loc	8 37 0                  @ /root/Bela/projects/RNBO-KPStrong/rnbo/src/platforms/stdlib//RNBO_PlatformInterfaceStdLib.h:37:0
	.fnstart
	.cfi_startproc
@ BB#0:
	@DEBUG_VALUE: calloc:this <- %R0
	@DEBUG_VALUE: calloc:num <- %R1
	@DEBUG_VALUE: calloc:size <- %R2
	.loc	8 38 11 prologue_end    @ /root/Bela/projects/RNBO-KPStrong/rnbo/src/platforms/stdlib//RNBO_PlatformInterfaceStdLib.h:38:11
	mov	r0, r1
.Ltmp35:
	@DEBUG_VALUE: calloc:num <- %R0
	mov	r1, r2
.Ltmp36:
	@DEBUG_VALUE: calloc:size <- %R1
	b	calloc
.Ltmp37:
.Lfunc_end5:
	.size	_ZN4RNBO23PlatformInterfaceStdLib6callocEjj, .Lfunc_end5-_ZN4RNBO23PlatformInterfaceStdLib6callocEjj
	.cfi_endproc
	.fnend

	.section	.text._ZN4RNBO23PlatformInterfaceStdLib7reallocEPvj,"axG",%progbits,_ZN4RNBO23PlatformInterfaceStdLib7reallocEPvj,comdat
	.weak	_ZN4RNBO23PlatformInterfaceStdLib7reallocEPvj
	.p2align	2
	.type	_ZN4RNBO23PlatformInterfaceStdLib7reallocEPvj,%function
_ZN4RNBO23PlatformInterfaceStdLib7reallocEPvj: @ @_ZN4RNBO23PlatformInterfaceStdLib7reallocEPvj
.Lfunc_begin6:
	.loc	8 42 0                  @ /root/Bela/projects/RNBO-KPStrong/rnbo/src/platforms/stdlib//RNBO_PlatformInterfaceStdLib.h:42:0
	.fnstart
	.cfi_startproc
@ BB#0:
	@DEBUG_VALUE: realloc:this <- %R0
	@DEBUG_VALUE: realloc:ptr <- %R1
	@DEBUG_VALUE: realloc:bytes <- %R2
	.loc	8 44 8 prologue_end     @ /root/Bela/projects/RNBO-KPStrong/rnbo/src/platforms/stdlib//RNBO_PlatformInterfaceStdLib.h:44:8
	cmp	r2, #0
	beq	.LBB6_2
.Ltmp38:
@ BB#1:
	@DEBUG_VALUE: realloc:bytes <- %R2
	@DEBUG_VALUE: realloc:ptr <- %R1
	@DEBUG_VALUE: realloc:this <- %R0
	.loc	8 49 11                 @ /root/Bela/projects/RNBO-KPStrong/rnbo/src/platforms/stdlib//RNBO_PlatformInterfaceStdLib.h:49:11
	mov	r0, r1
.Ltmp39:
	mov	r1, r2
.Ltmp40:
	b	realloc
.Ltmp41:
.LBB6_2:
	@DEBUG_VALUE: realloc:bytes <- %R2
	@DEBUG_VALUE: realloc:ptr <- %R1
	@DEBUG_VALUE: realloc:this <- %R0
	.loc	8 45 9                  @ /root/Bela/projects/RNBO-KPStrong/rnbo/src/platforms/stdlib//RNBO_PlatformInterfaceStdLib.h:45:9
	cmp	r1, #0
	beq	.LBB6_4
.Ltmp42:
@ BB#3:
	@DEBUG_VALUE: realloc:bytes <- %R2
	@DEBUG_VALUE: realloc:ptr <- %R1
	@DEBUG_VALUE: realloc:this <- %R0
	.save	{r11, lr}
	push	{r11, lr}
.Ltmp43:
	.cfi_def_cfa_offset 8
.Ltmp44:
	.cfi_offset lr, -4
.Ltmp45:
	.cfi_offset r11, -8
	.setfp	r11, sp
	mov	r11, sp
.Ltmp46:
	.cfi_def_cfa_register r11
.Ltmp47:
	.loc	8 46 6                  @ /root/Bela/projects/RNBO-KPStrong/rnbo/src/platforms/stdlib//RNBO_PlatformInterfaceStdLib.h:46:6
	mov	r0, r1
.Ltmp48:
	bl	free
.Ltmp49:
	pop	{r11, lr}
.Ltmp50:
.LBB6_4:
	.loc	8 50 3                  @ /root/Bela/projects/RNBO-KPStrong/rnbo/src/platforms/stdlib//RNBO_PlatformInterfaceStdLib.h:50:3
	mov	r0, #0
	bx	lr
.Ltmp51:
.Lfunc_end6:
	.size	_ZN4RNBO23PlatformInterfaceStdLib7reallocEPvj, .Lfunc_end6-_ZN4RNBO23PlatformInterfaceStdLib7reallocEPvj
	.cfi_endproc
	.fnend

	.section	.text._ZN4RNBO23PlatformInterfaceStdLib4freeEPv,"axG",%progbits,_ZN4RNBO23PlatformInterfaceStdLib4freeEPv,comdat
	.weak	_ZN4RNBO23PlatformInterfaceStdLib4freeEPv
	.p2align	2
	.type	_ZN4RNBO23PlatformInterfaceStdLib4freeEPv,%function
_ZN4RNBO23PlatformInterfaceStdLib4freeEPv: @ @_ZN4RNBO23PlatformInterfaceStdLib4freeEPv
.Lfunc_begin7:
	.loc	8 53 0                  @ /root/Bela/projects/RNBO-KPStrong/rnbo/src/platforms/stdlib//RNBO_PlatformInterfaceStdLib.h:53:0
	.fnstart
	.cfi_startproc
@ BB#0:
	@DEBUG_VALUE: free:this <- %R0
	@DEBUG_VALUE: free:ptr <- %R1
	.loc	8 54 11 prologue_end    @ /root/Bela/projects/RNBO-KPStrong/rnbo/src/platforms/stdlib//RNBO_PlatformInterfaceStdLib.h:54:11
	mov	r0, r1
.Ltmp52:
	@DEBUG_VALUE: free:ptr <- %R0
	b	free
.Ltmp53:
.Lfunc_end7:
	.size	_ZN4RNBO23PlatformInterfaceStdLib4freeEPv, .Lfunc_end7-_ZN4RNBO23PlatformInterfaceStdLib4freeEPv
	.cfi_endproc
	.fnend

	.section	.text._ZN4RNBO23PlatformInterfaceStdLib6memcpyEPvPKvj,"axG",%progbits,_ZN4RNBO23PlatformInterfaceStdLib6memcpyEPvPKvj,comdat
	.weak	_ZN4RNBO23PlatformInterfaceStdLib6memcpyEPvPKvj
	.p2align	2
	.type	_ZN4RNBO23PlatformInterfaceStdLib6memcpyEPvPKvj,%function
_ZN4RNBO23PlatformInterfaceStdLib6memcpyEPvPKvj: @ @_ZN4RNBO23PlatformInterfaceStdLib6memcpyEPvPKvj
.Lfunc_begin8:
	.loc	8 58 0                  @ /root/Bela/projects/RNBO-KPStrong/rnbo/src/platforms/stdlib//RNBO_PlatformInterfaceStdLib.h:58:0
	.fnstart
	.cfi_startproc
@ BB#0:
	.save	{r4, r10, r11, lr}
	push	{r4, r10, r11, lr}
.Ltmp54:
	.cfi_def_cfa_offset 16
.Ltmp55:
	.cfi_offset lr, -4
.Ltmp56:
	.cfi_offset r11, -8
.Ltmp57:
	.cfi_offset r10, -12
.Ltmp58:
	.cfi_offset r4, -16
	.setfp	r11, sp, #8
	add	r11, sp, #8
.Ltmp59:
	.cfi_def_cfa r11, 8
	@DEBUG_VALUE: memcpy:this <- %R0
	@DEBUG_VALUE: memcpy:dest <- %R1
	@DEBUG_VALUE: memcpy:src <- %R2
	@DEBUG_VALUE: memcpy:n <- %R3
	mov	r4, r1
.Ltmp60:
	@DEBUG_VALUE: memcpy:dest <- %R4
	.loc	8 59 11 prologue_end    @ /root/Bela/projects/RNBO-KPStrong/rnbo/src/platforms/stdlib//RNBO_PlatformInterfaceStdLib.h:59:11
	mov	r1, r2
.Ltmp61:
	@DEBUG_VALUE: memcpy:src <- %R1
	mov	r0, r4
.Ltmp62:
	mov	r2, r3
.Ltmp63:
	@DEBUG_VALUE: memcpy:n <- %R2
	bl	memcpy
.Ltmp64:
	.loc	8 59 4 is_stmt 0        @ /root/Bela/projects/RNBO-KPStrong/rnbo/src/platforms/stdlib//RNBO_PlatformInterfaceStdLib.h:59:4
	mov	r0, r4
	pop	{r4, r10, r11, pc}
.Ltmp65:
.Lfunc_end8:
	.size	_ZN4RNBO23PlatformInterfaceStdLib6memcpyEPvPKvj, .Lfunc_end8-_ZN4RNBO23PlatformInterfaceStdLib6memcpyEPvPKvj
	.cfi_endproc
	.fnend

	.section	.text._ZN4RNBO23PlatformInterfaceStdLib7memmoveEPvPKvj,"axG",%progbits,_ZN4RNBO23PlatformInterfaceStdLib7memmoveEPvPKvj,comdat
	.weak	_ZN4RNBO23PlatformInterfaceStdLib7memmoveEPvPKvj
	.p2align	2
	.type	_ZN4RNBO23PlatformInterfaceStdLib7memmoveEPvPKvj,%function
_ZN4RNBO23PlatformInterfaceStdLib7memmoveEPvPKvj: @ @_ZN4RNBO23PlatformInterfaceStdLib7memmoveEPvPKvj
.Lfunc_begin9:
	.loc	8 63 0 is_stmt 1        @ /root/Bela/projects/RNBO-KPStrong/rnbo/src/platforms/stdlib//RNBO_PlatformInterfaceStdLib.h:63:0
	.fnstart
	.cfi_startproc
@ BB#0:
	.save	{r4, r10, r11, lr}
	push	{r4, r10, r11, lr}
.Ltmp66:
	.cfi_def_cfa_offset 16
.Ltmp67:
	.cfi_offset lr, -4
.Ltmp68:
	.cfi_offset r11, -8
.Ltmp69:
	.cfi_offset r10, -12
.Ltmp70:
	.cfi_offset r4, -16
	.setfp	r11, sp, #8
	add	r11, sp, #8
.Ltmp71:
	.cfi_def_cfa r11, 8
	@DEBUG_VALUE: memmove:this <- %R0
	@DEBUG_VALUE: memmove:dest <- %R1
	@DEBUG_VALUE: memmove:src <- %R2
	@DEBUG_VALUE: memmove:n <- %R3
	mov	r4, r1
.Ltmp72:
	@DEBUG_VALUE: memmove:dest <- %R4
	.loc	8 64 11 prologue_end    @ /root/Bela/projects/RNBO-KPStrong/rnbo/src/platforms/stdlib//RNBO_PlatformInterfaceStdLib.h:64:11
	mov	r1, r2
.Ltmp73:
	@DEBUG_VALUE: memmove:src <- %R1
	mov	r0, r4
.Ltmp74:
	mov	r2, r3
.Ltmp75:
	@DEBUG_VALUE: memmove:n <- %R2
	bl	memmove
.Ltmp76:
	.loc	8 64 4 is_stmt 0        @ /root/Bela/projects/RNBO-KPStrong/rnbo/src/platforms/stdlib//RNBO_PlatformInterfaceStdLib.h:64:4
	mov	r0, r4
	pop	{r4, r10, r11, pc}
.Ltmp77:
.Lfunc_end9:
	.size	_ZN4RNBO23PlatformInterfaceStdLib7memmoveEPvPKvj, .Lfunc_end9-_ZN4RNBO23PlatformInterfaceStdLib7memmoveEPvPKvj
	.cfi_endproc
	.fnend

	.section	.text._ZN4RNBO23PlatformInterfaceStdLib6memsetEPvij,"axG",%progbits,_ZN4RNBO23PlatformInterfaceStdLib6memsetEPvij,comdat
	.weak	_ZN4RNBO23PlatformInterfaceStdLib6memsetEPvij
	.p2align	2
	.type	_ZN4RNBO23PlatformInterfaceStdLib6memsetEPvij,%function
_ZN4RNBO23PlatformInterfaceStdLib6memsetEPvij: @ @_ZN4RNBO23PlatformInterfaceStdLib6memsetEPvij
.Lfunc_begin10:
	.loc	8 68 0 is_stmt 1        @ /root/Bela/projects/RNBO-KPStrong/rnbo/src/platforms/stdlib//RNBO_PlatformInterfaceStdLib.h:68:0
	.fnstart
	.cfi_startproc
@ BB#0:
	.save	{r4, r10, r11, lr}
	push	{r4, r10, r11, lr}
.Ltmp78:
	.cfi_def_cfa_offset 16
.Ltmp79:
	.cfi_offset lr, -4
.Ltmp80:
	.cfi_offset r11, -8
.Ltmp81:
	.cfi_offset r10, -12
.Ltmp82:
	.cfi_offset r4, -16
	.setfp	r11, sp, #8
	add	r11, sp, #8
.Ltmp83:
	.cfi_def_cfa r11, 8
	@DEBUG_VALUE: memset:this <- %R0
	@DEBUG_VALUE: memset:dest <- %R1
	@DEBUG_VALUE: memset:value <- %R2
	@DEBUG_VALUE: memset:n <- %R3
	mov	r4, r1
.Ltmp84:
	@DEBUG_VALUE: memset:dest <- %R4
	.loc	8 69 11 prologue_end    @ /root/Bela/projects/RNBO-KPStrong/rnbo/src/platforms/stdlib//RNBO_PlatformInterfaceStdLib.h:69:11
	mov	r1, r2
.Ltmp85:
	@DEBUG_VALUE: memset:value <- %R1
	mov	r0, r4
.Ltmp86:
	mov	r2, r3
.Ltmp87:
	@DEBUG_VALUE: memset:n <- %R2
	bl	memset
.Ltmp88:
	.loc	8 69 4 is_stmt 0        @ /root/Bela/projects/RNBO-KPStrong/rnbo/src/platforms/stdlib//RNBO_PlatformInterfaceStdLib.h:69:4
	mov	r0, r4
	pop	{r4, r10, r11, pc}
.Ltmp89:
.Lfunc_end10:
	.size	_ZN4RNBO23PlatformInterfaceStdLib6memsetEPvij, .Lfunc_end10-_ZN4RNBO23PlatformInterfaceStdLib6memsetEPvij
	.cfi_endproc
	.fnend

	.section	.text._ZN4RNBO23PlatformInterfaceStdLib6strlenEPKc,"axG",%progbits,_ZN4RNBO23PlatformInterfaceStdLib6strlenEPKc,comdat
	.weak	_ZN4RNBO23PlatformInterfaceStdLib6strlenEPKc
	.p2align	2
	.type	_ZN4RNBO23PlatformInterfaceStdLib6strlenEPKc,%function
_ZN4RNBO23PlatformInterfaceStdLib6strlenEPKc: @ @_ZN4RNBO23PlatformInterfaceStdLib6strlenEPKc
.Lfunc_begin11:
	.loc	8 73 0 is_stmt 1        @ /root/Bela/projects/RNBO-KPStrong/rnbo/src/platforms/stdlib//RNBO_PlatformInterfaceStdLib.h:73:0
	.fnstart
	.cfi_startproc
@ BB#0:
	@DEBUG_VALUE: strlen:this <- %R0
	@DEBUG_VALUE: strlen:s <- %R1
	.loc	8 74 11 prologue_end    @ /root/Bela/projects/RNBO-KPStrong/rnbo/src/platforms/stdlib//RNBO_PlatformInterfaceStdLib.h:74:11
	mov	r0, r1
.Ltmp90:
	@DEBUG_VALUE: strlen:s <- %R0
	b	strlen
.Ltmp91:
.Lfunc_end11:
	.size	_ZN4RNBO23PlatformInterfaceStdLib6strlenEPKc, .Lfunc_end11-_ZN4RNBO23PlatformInterfaceStdLib6strlenEPKc
	.cfi_endproc
	.fnend

	.section	.text._ZN4RNBO23PlatformInterfaceStdLib6strcmpEPKcS2_,"axG",%progbits,_ZN4RNBO23PlatformInterfaceStdLib6strcmpEPKcS2_,comdat
	.weak	_ZN4RNBO23PlatformInterfaceStdLib6strcmpEPKcS2_
	.p2align	2
	.type	_ZN4RNBO23PlatformInterfaceStdLib6strcmpEPKcS2_,%function
_ZN4RNBO23PlatformInterfaceStdLib6strcmpEPKcS2_: @ @_ZN4RNBO23PlatformInterfaceStdLib6strcmpEPKcS2_
.Lfunc_begin12:
	.loc	8 78 0                  @ /root/Bela/projects/RNBO-KPStrong/rnbo/src/platforms/stdlib//RNBO_PlatformInterfaceStdLib.h:78:0
	.fnstart
	.cfi_startproc
@ BB#0:
	@DEBUG_VALUE: strcmp:this <- %R0
	@DEBUG_VALUE: strcmp:s1 <- %R1
	@DEBUG_VALUE: strcmp:s2 <- %R2
	.loc	8 79 11 prologue_end    @ /root/Bela/projects/RNBO-KPStrong/rnbo/src/platforms/stdlib//RNBO_PlatformInterfaceStdLib.h:79:11
	mov	r0, r1
.Ltmp92:
	@DEBUG_VALUE: strcmp:s1 <- %R0
	mov	r1, r2
.Ltmp93:
	@DEBUG_VALUE: strcmp:s2 <- %R1
	b	strcmp
.Ltmp94:
.Lfunc_end12:
	.size	_ZN4RNBO23PlatformInterfaceStdLib6strcmpEPKcS2_, .Lfunc_end12-_ZN4RNBO23PlatformInterfaceStdLib6strcmpEPKcS2_
	.cfi_endproc
	.fnend

	.section	.text._ZN4RNBO23PlatformInterfaceStdLib6strcpyEPcPKc,"axG",%progbits,_ZN4RNBO23PlatformInterfaceStdLib6strcpyEPcPKc,comdat
	.weak	_ZN4RNBO23PlatformInterfaceStdLib6strcpyEPcPKc
	.p2align	2
	.type	_ZN4RNBO23PlatformInterfaceStdLib6strcpyEPcPKc,%function
_ZN4RNBO23PlatformInterfaceStdLib6strcpyEPcPKc: @ @_ZN4RNBO23PlatformInterfaceStdLib6strcpyEPcPKc
.Lfunc_begin13:
	.loc	8 83 0                  @ /root/Bela/projects/RNBO-KPStrong/rnbo/src/platforms/stdlib//RNBO_PlatformInterfaceStdLib.h:83:0
	.fnstart
	.cfi_startproc
@ BB#0:
	@DEBUG_VALUE: strcpy:this <- %R0
	@DEBUG_VALUE: strcpy:dest <- %R1
	@DEBUG_VALUE: strcpy:src <- %R2
	.loc	8 84 11 prologue_end    @ /root/Bela/projects/RNBO-KPStrong/rnbo/src/platforms/stdlib//RNBO_PlatformInterfaceStdLib.h:84:11
	mov	r0, r1
.Ltmp95:
	@DEBUG_VALUE: strcpy:dest <- %R0
	mov	r1, r2
.Ltmp96:
	@DEBUG_VALUE: strcpy:src <- %R1
	b	strcpy
.Ltmp97:
.Lfunc_end13:
	.size	_ZN4RNBO23PlatformInterfaceStdLib6strcpyEPcPKc, .Lfunc_end13-_ZN4RNBO23PlatformInterfaceStdLib6strcpyEPcPKc
	.cfi_endproc
	.fnend

	.section	.text._ZN4RNBO23PlatformInterfaceStdLib8toStringEPcjf,"axG",%progbits,_ZN4RNBO23PlatformInterfaceStdLib8toStringEPcjf,comdat
	.weak	_ZN4RNBO23PlatformInterfaceStdLib8toStringEPcjf
	.p2align	2
	.type	_ZN4RNBO23PlatformInterfaceStdLib8toStringEPcjf,%function
_ZN4RNBO23PlatformInterfaceStdLib8toStringEPcjf: @ @_ZN4RNBO23PlatformInterfaceStdLib8toStringEPcjf
.Lfunc_begin14:
	.loc	8 89 0                  @ /root/Bela/projects/RNBO-KPStrong/rnbo/src/platforms/stdlib//RNBO_PlatformInterfaceStdLib.h:89:0
	.fnstart
	.cfi_startproc
@ BB#0:
	.save	{r11, lr}
	push	{r11, lr}
.Ltmp98:
	.cfi_def_cfa_offset 8
.Ltmp99:
	.cfi_offset lr, -4
.Ltmp100:
	.cfi_offset r11, -8
	.setfp	r11, sp
	mov	r11, sp
.Ltmp101:
	.cfi_def_cfa_register r11
	.pad	#8
	sub	sp, sp, #8
	@DEBUG_VALUE: toString:this <- %R0
	@DEBUG_VALUE: toString:str <- %R1
	@DEBUG_VALUE: toString:maxlen <- %R2
	@DEBUG_VALUE: toString:val <- %S0
.Ltmp102:
	.loc	8 90 39 prologue_end    @ /root/Bela/projects/RNBO-KPStrong/rnbo/src/platforms/stdlib//RNBO_PlatformInterfaceStdLib.h:90:39
	vcvt.f64.f32	d16, s0
	.loc	8 90 4 is_stmt 0        @ /root/Bela/projects/RNBO-KPStrong/rnbo/src/platforms/stdlib//RNBO_PlatformInterfaceStdLib.h:90:4
	movw	r3, :lower16:.L.str
	movt	r3, :upper16:.L.str
	mov	r0, r1
.Ltmp103:
	@DEBUG_VALUE: toString:str <- %R0
	mov	r1, r2
.Ltmp104:
	@DEBUG_VALUE: toString:maxlen <- %R1
	mov	r2, r3
	vstr	d16, [sp]
	bl	snprintf
.Ltmp105:
	.loc	8 91 3 is_stmt 1        @ /root/Bela/projects/RNBO-KPStrong/rnbo/src/platforms/stdlib//RNBO_PlatformInterfaceStdLib.h:91:3
	mov	sp, r11
	pop	{r11, pc}
.Ltmp106:
.Lfunc_end14:
	.size	_ZN4RNBO23PlatformInterfaceStdLib8toStringEPcjf, .Lfunc_end14-_ZN4RNBO23PlatformInterfaceStdLib8toStringEPcjf
	.cfi_endproc
	.fnend

	.section	.text._ZN4RNBO23PlatformInterfaceStdLib8toStringEPcji,"axG",%progbits,_ZN4RNBO23PlatformInterfaceStdLib8toStringEPcji,comdat
	.weak	_ZN4RNBO23PlatformInterfaceStdLib8toStringEPcji
	.p2align	2
	.type	_ZN4RNBO23PlatformInterfaceStdLib8toStringEPcji,%function
_ZN4RNBO23PlatformInterfaceStdLib8toStringEPcji: @ @_ZN4RNBO23PlatformInterfaceStdLib8toStringEPcji
.Lfunc_begin15:
	.loc	8 94 0                  @ /root/Bela/projects/RNBO-KPStrong/rnbo/src/platforms/stdlib//RNBO_PlatformInterfaceStdLib.h:94:0
	.fnstart
	.cfi_startproc
@ BB#0:
	.save	{r11, lr}
	push	{r11, lr}
.Ltmp107:
	.cfi_def_cfa_offset 8
.Ltmp108:
	.cfi_offset lr, -4
.Ltmp109:
	.cfi_offset r11, -8
	.setfp	r11, sp
	mov	r11, sp
.Ltmp110:
	.cfi_def_cfa_register r11
	@DEBUG_VALUE: toString:this <- %R0
	@DEBUG_VALUE: toString:str <- %R1
	@DEBUG_VALUE: toString:maxlen <- %R2
	@DEBUG_VALUE: toString:val <- %R3
.Ltmp111:
	.loc	8 95 4 prologue_end     @ /root/Bela/projects/RNBO-KPStrong/rnbo/src/platforms/stdlib//RNBO_PlatformInterfaceStdLib.h:95:4
	movw	r12, :lower16:.L.str.2
	mov	r0, r1
.Ltmp112:
	@DEBUG_VALUE: toString:str <- %R0
	movt	r12, :upper16:.L.str.2
	mov	r1, r2
.Ltmp113:
	@DEBUG_VALUE: toString:maxlen <- %R1
	mov	r2, r12
	bl	snprintf
.Ltmp114:
	.loc	8 96 3                  @ /root/Bela/projects/RNBO-KPStrong/rnbo/src/platforms/stdlib//RNBO_PlatformInterfaceStdLib.h:96:3
	pop	{r11, pc}
.Ltmp115:
.Lfunc_end15:
	.size	_ZN4RNBO23PlatformInterfaceStdLib8toStringEPcji, .Lfunc_end15-_ZN4RNBO23PlatformInterfaceStdLib8toStringEPcji
	.cfi_endproc
	.fnend

	.section	.text._ZN4RNBO23PlatformInterfaceStdLib8toStringEPcjl,"axG",%progbits,_ZN4RNBO23PlatformInterfaceStdLib8toStringEPcjl,comdat
	.weak	_ZN4RNBO23PlatformInterfaceStdLib8toStringEPcjl
	.p2align	2
	.type	_ZN4RNBO23PlatformInterfaceStdLib8toStringEPcjl,%function
_ZN4RNBO23PlatformInterfaceStdLib8toStringEPcjl: @ @_ZN4RNBO23PlatformInterfaceStdLib8toStringEPcjl
.Lfunc_begin16:
	.loc	8 99 0                  @ /root/Bela/projects/RNBO-KPStrong/rnbo/src/platforms/stdlib//RNBO_PlatformInterfaceStdLib.h:99:0
	.fnstart
	.cfi_startproc
@ BB#0:
	.save	{r11, lr}
	push	{r11, lr}
.Ltmp116:
	.cfi_def_cfa_offset 8
.Ltmp117:
	.cfi_offset lr, -4
.Ltmp118:
	.cfi_offset r11, -8
	.setfp	r11, sp
	mov	r11, sp
.Ltmp119:
	.cfi_def_cfa_register r11
	@DEBUG_VALUE: toString:this <- %R0
	@DEBUG_VALUE: toString:str <- %R1
	@DEBUG_VALUE: toString:maxlen <- %R2
	@DEBUG_VALUE: toString:val <- %R3
.Ltmp120:
	.loc	8 100 4 prologue_end    @ /root/Bela/projects/RNBO-KPStrong/rnbo/src/platforms/stdlib//RNBO_PlatformInterfaceStdLib.h:100:4
	movw	r12, :lower16:.L.str.3
	mov	r0, r1
.Ltmp121:
	@DEBUG_VALUE: toString:str <- %R0
	movt	r12, :upper16:.L.str.3
	mov	r1, r2
.Ltmp122:
	@DEBUG_VALUE: toString:maxlen <- %R1
	mov	r2, r12
	bl	snprintf
.Ltmp123:
	.loc	8 101 3                 @ /root/Bela/projects/RNBO-KPStrong/rnbo/src/platforms/stdlib//RNBO_PlatformInterfaceStdLib.h:101:3
	pop	{r11, pc}
.Ltmp124:
.Lfunc_end16:
	.size	_ZN4RNBO23PlatformInterfaceStdLib8toStringEPcjl, .Lfunc_end16-_ZN4RNBO23PlatformInterfaceStdLib8toStringEPcjl
	.cfi_endproc
	.fnend

	.section	.text._ZN4RNBO23PlatformInterfaceStdLib8toStringEPcjx,"axG",%progbits,_ZN4RNBO23PlatformInterfaceStdLib8toStringEPcjx,comdat
	.weak	_ZN4RNBO23PlatformInterfaceStdLib8toStringEPcjx
	.p2align	2
	.type	_ZN4RNBO23PlatformInterfaceStdLib8toStringEPcjx,%function
_ZN4RNBO23PlatformInterfaceStdLib8toStringEPcjx: @ @_ZN4RNBO23PlatformInterfaceStdLib8toStringEPcjx
.Lfunc_begin17:
	.loc	8 104 0                 @ /root/Bela/projects/RNBO-KPStrong/rnbo/src/platforms/stdlib//RNBO_PlatformInterfaceStdLib.h:104:0
	.fnstart
	.cfi_startproc
@ BB#0:
	.save	{r11, lr}
	push	{r11, lr}
.Ltmp125:
	.cfi_def_cfa_offset 8
.Ltmp126:
	.cfi_offset lr, -4
.Ltmp127:
	.cfi_offset r11, -8
	.setfp	r11, sp
	mov	r11, sp
.Ltmp128:
	.cfi_def_cfa_register r11
	.pad	#8
	sub	sp, sp, #8
	@DEBUG_VALUE: toString:this <- %R0
	@DEBUG_VALUE: toString:str <- %R1
	@DEBUG_VALUE: toString:maxlen <- %R2
	@DEBUG_VALUE: toString:val <- [%R11+8]
	ldr	r0, [r11, #8]
.Ltmp129:
	ldr	r3, [r11, #12]
.Ltmp130:
	.loc	8 105 4 prologue_end    @ /root/Bela/projects/RNBO-KPStrong/rnbo/src/platforms/stdlib//RNBO_PlatformInterfaceStdLib.h:105:4
	stm	sp, {r0, r3}
	movw	r3, :lower16:.L.str.4
	movt	r3, :upper16:.L.str.4
	mov	r0, r1
.Ltmp131:
	@DEBUG_VALUE: toString:str <- %R0
	mov	r1, r2
.Ltmp132:
	@DEBUG_VALUE: toString:maxlen <- %R1
	mov	r2, r3
	bl	snprintf
.Ltmp133:
	.loc	8 106 3                 @ /root/Bela/projects/RNBO-KPStrong/rnbo/src/platforms/stdlib//RNBO_PlatformInterfaceStdLib.h:106:3
	mov	sp, r11
	pop	{r11, pc}
.Ltmp134:
.Lfunc_end17:
	.size	_ZN4RNBO23PlatformInterfaceStdLib8toStringEPcjx, .Lfunc_end17-_ZN4RNBO23PlatformInterfaceStdLib8toStringEPcjx
	.cfi_endproc
	.fnend

	.section	.text._ZN4RNBO23PlatformInterfaceStdLib8toStringEPcjm,"axG",%progbits,_ZN4RNBO23PlatformInterfaceStdLib8toStringEPcjm,comdat
	.weak	_ZN4RNBO23PlatformInterfaceStdLib8toStringEPcjm
	.p2align	2
	.type	_ZN4RNBO23PlatformInterfaceStdLib8toStringEPcjm,%function
_ZN4RNBO23PlatformInterfaceStdLib8toStringEPcjm: @ @_ZN4RNBO23PlatformInterfaceStdLib8toStringEPcjm
.Lfunc_begin18:
	.loc	8 109 0                 @ /root/Bela/projects/RNBO-KPStrong/rnbo/src/platforms/stdlib//RNBO_PlatformInterfaceStdLib.h:109:0
	.fnstart
	.cfi_startproc
@ BB#0:
	.save	{r11, lr}
	push	{r11, lr}
.Ltmp135:
	.cfi_def_cfa_offset 8
.Ltmp136:
	.cfi_offset lr, -4
.Ltmp137:
	.cfi_offset r11, -8
	.setfp	r11, sp
	mov	r11, sp
.Ltmp138:
	.cfi_def_cfa_register r11
	@DEBUG_VALUE: toString:this <- %R0
	@DEBUG_VALUE: toString:str <- %R1
	@DEBUG_VALUE: toString:maxlen <- %R2
	@DEBUG_VALUE: toString:val <- %R3
.Ltmp139:
	.loc	8 110 4 prologue_end    @ /root/Bela/projects/RNBO-KPStrong/rnbo/src/platforms/stdlib//RNBO_PlatformInterfaceStdLib.h:110:4
	movw	r12, :lower16:.L.str.5
	mov	r0, r1
.Ltmp140:
	@DEBUG_VALUE: toString:str <- %R0
	movt	r12, :upper16:.L.str.5
	mov	r1, r2
.Ltmp141:
	@DEBUG_VALUE: toString:maxlen <- %R1
	mov	r2, r12
	bl	snprintf
.Ltmp142:
	.loc	8 111 3                 @ /root/Bela/projects/RNBO-KPStrong/rnbo/src/platforms/stdlib//RNBO_PlatformInterfaceStdLib.h:111:3
	pop	{r11, pc}
.Ltmp143:
.Lfunc_end18:
	.size	_ZN4RNBO23PlatformInterfaceStdLib8toStringEPcjm, .Lfunc_end18-_ZN4RNBO23PlatformInterfaceStdLib8toStringEPcjm
	.cfi_endproc
	.fnend

	.section	.text._ZN4RNBO23PlatformInterfaceStdLib8toStringEPcjy,"axG",%progbits,_ZN4RNBO23PlatformInterfaceStdLib8toStringEPcjy,comdat
	.weak	_ZN4RNBO23PlatformInterfaceStdLib8toStringEPcjy
	.p2align	2
	.type	_ZN4RNBO23PlatformInterfaceStdLib8toStringEPcjy,%function
_ZN4RNBO23PlatformInterfaceStdLib8toStringEPcjy: @ @_ZN4RNBO23PlatformInterfaceStdLib8toStringEPcjy
.Lfunc_begin19:
	.loc	8 114 0                 @ /root/Bela/projects/RNBO-KPStrong/rnbo/src/platforms/stdlib//RNBO_PlatformInterfaceStdLib.h:114:0
	.fnstart
	.cfi_startproc
@ BB#0:
	.save	{r11, lr}
	push	{r11, lr}
.Ltmp144:
	.cfi_def_cfa_offset 8
.Ltmp145:
	.cfi_offset lr, -4
.Ltmp146:
	.cfi_offset r11, -8
	.setfp	r11, sp
	mov	r11, sp
.Ltmp147:
	.cfi_def_cfa_register r11
	.pad	#8
	sub	sp, sp, #8
	@DEBUG_VALUE: toString:this <- %R0
	@DEBUG_VALUE: toString:str <- %R1
	@DEBUG_VALUE: toString:maxlen <- %R2
	@DEBUG_VALUE: toString:val <- [%R11+8]
	ldr	r0, [r11, #8]
.Ltmp148:
	ldr	r3, [r11, #12]
.Ltmp149:
	.loc	8 115 4 prologue_end    @ /root/Bela/projects/RNBO-KPStrong/rnbo/src/platforms/stdlib//RNBO_PlatformInterfaceStdLib.h:115:4
	stm	sp, {r0, r3}
	movw	r3, :lower16:.L.str.6
	movt	r3, :upper16:.L.str.6
	mov	r0, r1
.Ltmp150:
	@DEBUG_VALUE: toString:str <- %R0
	mov	r1, r2
.Ltmp151:
	@DEBUG_VALUE: toString:maxlen <- %R1
	mov	r2, r3
	bl	snprintf
.Ltmp152:
	.loc	8 116 3                 @ /root/Bela/projects/RNBO-KPStrong/rnbo/src/platforms/stdlib//RNBO_PlatformInterfaceStdLib.h:116:3
	mov	sp, r11
	pop	{r11, pc}
.Ltmp153:
.Lfunc_end19:
	.size	_ZN4RNBO23PlatformInterfaceStdLib8toStringEPcjy, .Lfunc_end19-_ZN4RNBO23PlatformInterfaceStdLib8toStringEPcjy
	.cfi_endproc
	.fnend

	.section	.text._ZN4RNBO23PlatformInterfaceStdLib8toStringEPcjPv,"axG",%progbits,_ZN4RNBO23PlatformInterfaceStdLib8toStringEPcjPv,comdat
	.weak	_ZN4RNBO23PlatformInterfaceStdLib8toStringEPcjPv
	.p2align	2
	.type	_ZN4RNBO23PlatformInterfaceStdLib8toStringEPcjPv,%function
_ZN4RNBO23PlatformInterfaceStdLib8toStringEPcjPv: @ @_ZN4RNBO23PlatformInterfaceStdLib8toStringEPcjPv
.Lfunc_begin20:
	.loc	8 119 0                 @ /root/Bela/projects/RNBO-KPStrong/rnbo/src/platforms/stdlib//RNBO_PlatformInterfaceStdLib.h:119:0
	.fnstart
	.cfi_startproc
@ BB#0:
	.save	{r11, lr}
	push	{r11, lr}
.Ltmp154:
	.cfi_def_cfa_offset 8
.Ltmp155:
	.cfi_offset lr, -4
.Ltmp156:
	.cfi_offset r11, -8
	.setfp	r11, sp
	mov	r11, sp
.Ltmp157:
	.cfi_def_cfa_register r11
	@DEBUG_VALUE: toString:this <- %R0
	@DEBUG_VALUE: toString:str <- %R1
	@DEBUG_VALUE: toString:maxlen <- %R2
	@DEBUG_VALUE: toString:val <- %R3
.Ltmp158:
	.loc	8 120 4 prologue_end    @ /root/Bela/projects/RNBO-KPStrong/rnbo/src/platforms/stdlib//RNBO_PlatformInterfaceStdLib.h:120:4
	movw	r12, :lower16:.L.str.7
	mov	r0, r1
.Ltmp159:
	@DEBUG_VALUE: toString:str <- %R0
	movt	r12, :upper16:.L.str.7
	mov	r1, r2
.Ltmp160:
	@DEBUG_VALUE: toString:maxlen <- %R1
	mov	r2, r12
	bl	snprintf
.Ltmp161:
	.loc	8 121 3                 @ /root/Bela/projects/RNBO-KPStrong/rnbo/src/platforms/stdlib//RNBO_PlatformInterfaceStdLib.h:121:3
	pop	{r11, pc}
.Ltmp162:
.Lfunc_end20:
	.size	_ZN4RNBO23PlatformInterfaceStdLib8toStringEPcjPv, .Lfunc_end20-_ZN4RNBO23PlatformInterfaceStdLib8toStringEPcjPv
	.cfi_endproc
	.fnend

	.section	.text._ZN4RNBO23PlatformInterfaceStdLib5abortEv,"axG",%progbits,_ZN4RNBO23PlatformInterfaceStdLib5abortEv,comdat
	.weak	_ZN4RNBO23PlatformInterfaceStdLib5abortEv
	.p2align	2
	.type	_ZN4RNBO23PlatformInterfaceStdLib5abortEv,%function
_ZN4RNBO23PlatformInterfaceStdLib5abortEv: @ @_ZN4RNBO23PlatformInterfaceStdLib5abortEv
.Lfunc_begin21:
	.loc	8 123 0                 @ /root/Bela/projects/RNBO-KPStrong/rnbo/src/platforms/stdlib//RNBO_PlatformInterfaceStdLib.h:123:0
	.fnstart
	.cfi_startproc
@ BB#0:
	.save	{r11, lr}
	push	{r11, lr}
.Ltmp163:
	.cfi_def_cfa_offset 8
.Ltmp164:
	.cfi_offset lr, -4
.Ltmp165:
	.cfi_offset r11, -8
	.setfp	r11, sp
	mov	r11, sp
.Ltmp166:
	.cfi_def_cfa_register r11
	@DEBUG_VALUE: abort:this <- %R0
.Ltmp167:
	.loc	8 124 4 prologue_end    @ /root/Bela/projects/RNBO-KPStrong/rnbo/src/platforms/stdlib//RNBO_PlatformInterfaceStdLib.h:124:4
	mov	lr, pc
	b	abort
.Ltmp168:
.Lfunc_end21:
	.size	_ZN4RNBO23PlatformInterfaceStdLib5abortEv, .Lfunc_end21-_ZN4RNBO23PlatformInterfaceStdLib5abortEv
	.cfi_endproc
	.fnend

	.section	.text._ZN4RNBO23PlatformInterfaceStdLib5errorENS_12RuntimeErrorEPKc,"axG",%progbits,_ZN4RNBO23PlatformInterfaceStdLib5errorENS_12RuntimeErrorEPKc,comdat
	.weak	_ZN4RNBO23PlatformInterfaceStdLib5errorENS_12RuntimeErrorEPKc
	.p2align	2
	.type	_ZN4RNBO23PlatformInterfaceStdLib5errorENS_12RuntimeErrorEPKc,%function
_ZN4RNBO23PlatformInterfaceStdLib5errorENS_12RuntimeErrorEPKc: @ @_ZN4RNBO23PlatformInterfaceStdLib5errorENS_12RuntimeErrorEPKc
.Lfunc_begin22:
	.loc	8 127 0                 @ /root/Bela/projects/RNBO-KPStrong/rnbo/src/platforms/stdlib//RNBO_PlatformInterfaceStdLib.h:127:0
	.fnstart
	.cfi_startproc
@ BB#0:
	.save	{r4, r5, r6, r10, r11, lr}
	push	{r4, r5, r6, r10, r11, lr}
.Ltmp175:
	.cfi_def_cfa_offset 24
.Ltmp176:
	.cfi_offset lr, -4
.Ltmp177:
	.cfi_offset r11, -8
.Ltmp178:
	.cfi_offset r10, -12
.Ltmp179:
	.cfi_offset r6, -16
.Ltmp180:
	.cfi_offset r5, -20
.Ltmp181:
	.cfi_offset r4, -24
	.setfp	r11, sp, #16
	add	r11, sp, #16
.Ltmp182:
	.cfi_def_cfa r11, 8
	@DEBUG_VALUE: error:this <- %R0
	@DEBUG_VALUE: error:e <- %R1
	@DEBUG_VALUE: error:msg <- %R2
.Ltmp183:
	.loc	8 130 6 prologue_end    @ /root/Bela/projects/RNBO-KPStrong/rnbo/src/platforms/stdlib//RNBO_PlatformInterfaceStdLib.h:130:6
	mov	r0, #8
.Ltmp184:
	mov	r5, r2
.Ltmp185:
	@DEBUG_VALUE: error:msg <- %R5
	mov	r6, r1
.Ltmp186:
	@DEBUG_VALUE: error:e <- %R6
	bl	__cxa_allocate_exception
	mov	r4, r0
.Ltmp187:
	.loc	8 128 4                 @ /root/Bela/projects/RNBO-KPStrong/rnbo/src/platforms/stdlib//RNBO_PlatformInterfaceStdLib.h:128:4
	cmp	r6, #0
	bne	.LBB22_3
.Ltmp188:
@ BB#1:
	@DEBUG_VALUE: error:e <- %R6
	@DEBUG_VALUE: error:msg <- %R5
	.loc	8 130 12                @ /root/Bela/projects/RNBO-KPStrong/rnbo/src/platforms/stdlib//RNBO_PlatformInterfaceStdLib.h:130:12
.Ltmp172:
	mov	r0, r4
	mov	r1, r5
	bl	_ZNSt12out_of_rangeC1EPKc
.Ltmp173:
.Ltmp189:
@ BB#2:
	@DEBUG_VALUE: error:e <- %R6
	@DEBUG_VALUE: error:msg <- %R5
	.loc	8 130 6 is_stmt 0 discriminator 1 @ /root/Bela/projects/RNBO-KPStrong/rnbo/src/platforms/stdlib//RNBO_PlatformInterfaceStdLib.h:130:6
	movw	r1, :lower16:_ZTISt12out_of_range
	movw	r2, :lower16:_ZNSt12out_of_rangeD1Ev
	movt	r1, :upper16:_ZTISt12out_of_range
	movt	r2, :upper16:_ZNSt12out_of_rangeD1Ev
	mov	r0, r4
	mov	lr, pc
	b	__cxa_throw
.Ltmp190:
.LBB22_3:
	@DEBUG_VALUE: error:e <- %R6
	@DEBUG_VALUE: error:msg <- %R5
	.loc	8 132 12 is_stmt 1      @ /root/Bela/projects/RNBO-KPStrong/rnbo/src/platforms/stdlib//RNBO_PlatformInterfaceStdLib.h:132:12
.Ltmp169:
	mov	r0, r4
	mov	r1, r5
	bl	_ZNSt13runtime_errorC1EPKc
.Ltmp170:
.Ltmp191:
@ BB#4:
	@DEBUG_VALUE: error:e <- %R6
	@DEBUG_VALUE: error:msg <- %R5
	.loc	8 132 6 is_stmt 0 discriminator 1 @ /root/Bela/projects/RNBO-KPStrong/rnbo/src/platforms/stdlib//RNBO_PlatformInterfaceStdLib.h:132:6
	movw	r1, :lower16:_ZTISt13runtime_error
	movw	r2, :lower16:_ZNSt13runtime_errorD1Ev
	movt	r1, :upper16:_ZTISt13runtime_error
	movt	r2, :upper16:_ZNSt13runtime_errorD1Ev
	mov	r0, r4
	mov	lr, pc
	b	__cxa_throw
.Ltmp192:
.LBB22_5:
	@DEBUG_VALUE: error:e <- %R6
	@DEBUG_VALUE: error:msg <- %R5
.Ltmp171:
	b	.LBB22_7
.Ltmp193:
.LBB22_6:
	@DEBUG_VALUE: error:e <- %R6
	@DEBUG_VALUE: error:msg <- %R5
.Ltmp174:
.Ltmp194:
.LBB22_7:
	@DEBUG_VALUE: error:e <- %R6
	@DEBUG_VALUE: error:msg <- %R5
	mov	r5, r0
.Ltmp195:
	.loc	8 132 6 discriminator 2 @ /root/Bela/projects/RNBO-KPStrong/rnbo/src/platforms/stdlib//RNBO_PlatformInterfaceStdLib.h:132:6
	mov	r0, r4
	bl	__cxa_free_exception
	mov	r0, r5
	mov	lr, pc
	b	_Unwind_Resume
.Ltmp196:
.Lfunc_end22:
	.size	_ZN4RNBO23PlatformInterfaceStdLib5errorENS_12RuntimeErrorEPKc, .Lfunc_end22-_ZN4RNBO23PlatformInterfaceStdLib5errorENS_12RuntimeErrorEPKc
	.cfi_endproc
	.globl	__gxx_personality_v0
	.personality __gxx_personality_v0
	.handlerdata
	.p2align	2
GCC_except_table22:
.Lexception0:
	.byte	255                     @ @LPStart Encoding = omit
	.byte	0                       @ @TType Encoding = absptr
	.asciz	"\303\200"              @ @TType base offset
	.byte	3                       @ Call site Encoding = udata4
	.byte	65                      @ Call site table length
	.long	.Lfunc_begin22-.Lfunc_begin22 @ >> Call Site 1 <<
	.long	.Ltmp172-.Lfunc_begin22 @   Call between .Lfunc_begin22 and .Ltmp172
	.long	0                       @     has no landing pad
	.byte	0                       @   On action: cleanup
	.long	.Ltmp172-.Lfunc_begin22 @ >> Call Site 2 <<
	.long	.Ltmp173-.Ltmp172       @   Call between .Ltmp172 and .Ltmp173
	.long	.Ltmp174-.Lfunc_begin22 @     jumps to .Ltmp174
	.byte	0                       @   On action: cleanup
	.long	.Ltmp173-.Lfunc_begin22 @ >> Call Site 3 <<
	.long	.Ltmp169-.Ltmp173       @   Call between .Ltmp173 and .Ltmp169
	.long	0                       @     has no landing pad
	.byte	0                       @   On action: cleanup
	.long	.Ltmp169-.Lfunc_begin22 @ >> Call Site 4 <<
	.long	.Ltmp170-.Ltmp169       @   Call between .Ltmp169 and .Ltmp170
	.long	.Ltmp171-.Lfunc_begin22 @     jumps to .Ltmp171
	.byte	0                       @   On action: cleanup
	.long	.Ltmp170-.Lfunc_begin22 @ >> Call Site 5 <<
	.long	.Lfunc_end22-.Ltmp170   @   Call between .Ltmp170 and .Lfunc_end22
	.long	0                       @     has no landing pad
	.byte	0                       @   On action: cleanup
	.p2align	2
	.fnend

	.section	.text._ZN4RNBO23PlatformInterfaceStdLib10assertTrueEbPKc,"axG",%progbits,_ZN4RNBO23PlatformInterfaceStdLib10assertTrueEbPKc,comdat
	.weak	_ZN4RNBO23PlatformInterfaceStdLib10assertTrueEbPKc
	.p2align	2
	.type	_ZN4RNBO23PlatformInterfaceStdLib10assertTrueEbPKc,%function
_ZN4RNBO23PlatformInterfaceStdLib10assertTrueEbPKc: @ @_ZN4RNBO23PlatformInterfaceStdLib10assertTrueEbPKc
.Lfunc_begin23:
	.loc	8 136 0 is_stmt 1       @ /root/Bela/projects/RNBO-KPStrong/rnbo/src/platforms/stdlib//RNBO_PlatformInterfaceStdLib.h:136:0
	.fnstart
	.cfi_startproc
@ BB#0:
	.save	{r4, r5, r11, lr}
	push	{r4, r5, r11, lr}
.Ltmp200:
	.cfi_def_cfa_offset 16
.Ltmp201:
	.cfi_offset lr, -4
.Ltmp202:
	.cfi_offset r11, -8
.Ltmp203:
	.cfi_offset r5, -12
.Ltmp204:
	.cfi_offset r4, -16
	.setfp	r11, sp, #8
	add	r11, sp, #8
.Ltmp205:
	.cfi_def_cfa r11, 8
	@DEBUG_VALUE: assertTrue:this <- %R0
	@DEBUG_VALUE: assertTrue:v [bit_piece offset=0 size=1] <- %R1
	@DEBUG_VALUE: assertTrue:msg <- %R2
	mov	r5, r2
.Ltmp206:
	@DEBUG_VALUE: assertTrue:msg <- %R5
	.loc	8 137 8 prologue_end    @ /root/Bela/projects/RNBO-KPStrong/rnbo/src/platforms/stdlib//RNBO_PlatformInterfaceStdLib.h:137:8
	cmp	r1, #0
	.loc	8 140 3 discriminator 1 @ /root/Bela/projects/RNBO-KPStrong/rnbo/src/platforms/stdlib//RNBO_PlatformInterfaceStdLib.h:140:3
	popne	{r4, r5, r11, pc}
.Ltmp207:
	.loc	8 138 5                 @ /root/Bela/projects/RNBO-KPStrong/rnbo/src/platforms/stdlib//RNBO_PlatformInterfaceStdLib.h:138:5
	mov	r0, #8
.Ltmp208:
	bl	__cxa_allocate_exception
.Ltmp209:
	mov	r4, r0
	.loc	8 138 11 is_stmt 0      @ /root/Bela/projects/RNBO-KPStrong/rnbo/src/platforms/stdlib//RNBO_PlatformInterfaceStdLib.h:138:11
.Ltmp197:
	mov	r1, r5
	bl	_ZNSt13runtime_errorC1EPKc
.Ltmp198:
@ BB#1:
.Ltmp210:
	@DEBUG_VALUE: assertTrue:v [bit_piece offset=0 size=1] <- %R1
	@DEBUG_VALUE: assertTrue:this <- %R0
	.loc	8 138 5 discriminator 1 @ /root/Bela/projects/RNBO-KPStrong/rnbo/src/platforms/stdlib//RNBO_PlatformInterfaceStdLib.h:138:5
	movw	r1, :lower16:_ZTISt13runtime_error
.Ltmp211:
	movw	r2, :lower16:_ZNSt13runtime_errorD1Ev
	movt	r1, :upper16:_ZTISt13runtime_error
	movt	r2, :upper16:_ZNSt13runtime_errorD1Ev
	mov	r0, r4
.Ltmp212:
	mov	lr, pc
	b	__cxa_throw
.LBB23_2:
.Ltmp213:
	@DEBUG_VALUE: assertTrue:v [bit_piece offset=0 size=1] <- %R1
	@DEBUG_VALUE: assertTrue:this <- %R0
.Ltmp199:
	mov	r5, r0
	.loc	8 138 5 discriminator 2 @ /root/Bela/projects/RNBO-KPStrong/rnbo/src/platforms/stdlib//RNBO_PlatformInterfaceStdLib.h:138:5
	mov	r0, r4
.Ltmp214:
	bl	__cxa_free_exception
.Ltmp215:
	mov	r0, r5
	mov	lr, pc
	b	_Unwind_Resume
.Ltmp216:
.Lfunc_end23:
	.size	_ZN4RNBO23PlatformInterfaceStdLib10assertTrueEbPKc, .Lfunc_end23-_ZN4RNBO23PlatformInterfaceStdLib10assertTrueEbPKc
	.cfi_endproc
	.globl	__gxx_personality_v0
	.personality __gxx_personality_v0
	.handlerdata
	.p2align	2
GCC_except_table23:
.Lexception1:
	.byte	255                     @ @LPStart Encoding = omit
	.byte	0                       @ @TType Encoding = absptr
	.byte	41                      @ @TType base offset
	.byte	3                       @ Call site Encoding = udata4
	.byte	39                      @ Call site table length
	.long	.Lfunc_begin23-.Lfunc_begin23 @ >> Call Site 1 <<
	.long	.Ltmp197-.Lfunc_begin23 @   Call between .Lfunc_begin23 and .Ltmp197
	.long	0                       @     has no landing pad
	.byte	0                       @   On action: cleanup
	.long	.Ltmp197-.Lfunc_begin23 @ >> Call Site 2 <<
	.long	.Ltmp198-.Ltmp197       @   Call between .Ltmp197 and .Ltmp198
	.long	.Ltmp199-.Lfunc_begin23 @     jumps to .Ltmp199
	.byte	0                       @   On action: cleanup
	.long	.Ltmp198-.Lfunc_begin23 @ >> Call Site 3 <<
	.long	.Lfunc_end23-.Ltmp198   @   Call between .Ltmp198 and .Lfunc_end23
	.long	0                       @     has no landing pad
	.byte	0                       @   On action: cleanup
	.p2align	2
	.fnend

	.section	.text.startup,"ax",%progbits
	.p2align	2
	.type	_GLOBAL__sub_I_RNBO_PlatformInterfaceImpl.ii,%function
_GLOBAL__sub_I_RNBO_PlatformInterfaceImpl.ii: @ @_GLOBAL__sub_I_RNBO_PlatformInterfaceImpl.ii
.Lfunc_begin24:
	.loc	15 0 0 is_stmt 1        @ /root/Bela/projects/RNBO-KPStrong/build/rnbo/src/RNBO_PlatformInterfaceImpl.cpp:0:0
	.fnstart
	.cfi_startproc
@ BB#0:
	.save	{r4, r10, r11, lr}
	push	{r4, r10, r11, lr}
.Ltmp217:
	.cfi_def_cfa_offset 16
.Ltmp218:
	.cfi_offset lr, -4
.Ltmp219:
	.cfi_offset r11, -8
.Ltmp220:
	.cfi_offset r10, -12
.Ltmp221:
	.cfi_offset r4, -16
	.setfp	r11, sp, #8
	add	r11, sp, #8
.Ltmp222:
	.cfi_def_cfa r11, 8
.Ltmp223:
	.loc	4 74 25 prologue_end    @ /usr/bin/../lib/gcc/arm-linux-gnueabihf/6.3.0/../../../../include/c++/6.3.0/iostream:74:25
	movw	r4, :lower16:_ZStL8__ioinit
	movt	r4, :upper16:_ZStL8__ioinit
	mov	r0, r4
	bl	_ZNSt8ios_base4InitC1Ev
	.loc	4 74 25 is_stmt 0 discriminator 1 @ /usr/bin/../lib/gcc/arm-linux-gnueabihf/6.3.0/../../../../include/c++/6.3.0/iostream:74:25
	movw	r0, :lower16:_ZNSt8ios_base4InitD1Ev
	movw	r2, :lower16:__dso_handle
	movt	r0, :upper16:_ZNSt8ios_base4InitD1Ev
	movt	r2, :upper16:__dso_handle
	mov	r1, r4
	bl	__cxa_atexit
.Ltmp224:
	.loc	6 275 8 is_stmt 1       @ /root/Bela/projects/RNBO-KPStrong/rnbo/common/RNBO_PlatformInterface.h:275:8
	movw	r0, :lower16:_ZN4RNBOL16platformInstanceE
	mov	r1, #0
	movt	r0, :upper16:_ZN4RNBOL16platformInstanceE
	strb	r1, [r0, #4]
	.loc	6 278 8                 @ /root/Bela/projects/RNBO-KPStrong/rnbo/common/RNBO_PlatformInterface.h:278:8
	strb	r1, [r0, #5]
.Ltmp225:
	.loc	8 16 3                  @ /root/Bela/projects/RNBO-KPStrong/rnbo/src/platforms/stdlib//RNBO_PlatformInterfaceStdLib.h:16:3
	movw	r1, :lower16:_ZTVN4RNBO23PlatformInterfaceStdLibE
	movt	r1, :upper16:_ZTVN4RNBO23PlatformInterfaceStdLibE
	add	r1, r1, #8
	str	r1, [r0]
.Ltmp226:
	@DEBUG_VALUE: set:theInstance <- %R1
	.loc	6 69 16                 @ /root/Bela/projects/RNBO-KPStrong/rnbo/common/RNBO_PlatformInterface.h:69:16
	movw	r1, :lower16:_ZZN4RNBO8Platform8instanceEvE9pInstance
.Ltmp227:
	movt	r1, :upper16:_ZZN4RNBO8Platform8instanceEvE9pInstance
	str	r0, [r1]
.Ltmp228:
	@DEBUG_VALUE: PlatformInterfaceStdLib:this <- %R0
	pop	{r4, r10, r11, pc}
.Ltmp229:
.Lfunc_end24:
	.size	_GLOBAL__sub_I_RNBO_PlatformInterfaceImpl.ii, .Lfunc_end24-_GLOBAL__sub_I_RNBO_PlatformInterfaceImpl.ii
	.cfi_endproc
	.fnend

	.type	_ZStL8__ioinit,%object  @ @_ZStL8__ioinit
	.local	_ZStL8__ioinit
	.comm	_ZStL8__ioinit,1,1
	.type	_ZN4RNBOL16platformInstanceE,%object @ @_ZN4RNBOL16platformInstanceE
	.local	_ZN4RNBOL16platformInstanceE
	.comm	_ZN4RNBOL16platformInstanceE,8,4
	.type	_ZTVN4RNBO23PlatformInterfaceStdLibE,%object @ @_ZTVN4RNBO23PlatformInterfaceStdLibE
	.section	.rodata._ZTVN4RNBO23PlatformInterfaceStdLibE,"aG",%progbits,_ZTVN4RNBO23PlatformInterfaceStdLibE,comdat
	.weak	_ZTVN4RNBO23PlatformInterfaceStdLibE
	.p2align	2
_ZTVN4RNBO23PlatformInterfaceStdLibE:
	.long	0
	.long	_ZTIN4RNBO23PlatformInterfaceStdLibE
	.long	_ZN4RNBO17PlatformInterfaceD2Ev
	.long	_ZN4RNBO23PlatformInterfaceStdLibD0Ev
	.long	_ZN4RNBO23PlatformInterfaceStdLib12printMessageEPKc
	.long	_ZN4RNBO17PlatformInterface17printErrorMessageEPKc
	.long	_ZN4RNBO23PlatformInterfaceStdLib6mallocEj
	.long	_ZN4RNBO23PlatformInterfaceStdLib6callocEjj
	.long	_ZN4RNBO23PlatformInterfaceStdLib7reallocEPvj
	.long	_ZN4RNBO23PlatformInterfaceStdLib4freeEPv
	.long	_ZN4RNBO23PlatformInterfaceStdLib6memcpyEPvPKvj
	.long	_ZN4RNBO23PlatformInterfaceStdLib7memmoveEPvPKvj
	.long	_ZN4RNBO23PlatformInterfaceStdLib6memsetEPvij
	.long	_ZN4RNBO23PlatformInterfaceStdLib6strlenEPKc
	.long	_ZN4RNBO23PlatformInterfaceStdLib6strcmpEPKcS2_
	.long	_ZN4RNBO23PlatformInterfaceStdLib6strcpyEPcPKc
	.long	_ZN4RNBO23PlatformInterfaceStdLib8toStringEPcjf
	.long	_ZN4RNBO23PlatformInterfaceStdLib8toStringEPcji
	.long	_ZN4RNBO23PlatformInterfaceStdLib8toStringEPcjl
	.long	_ZN4RNBO23PlatformInterfaceStdLib8toStringEPcjx
	.long	_ZN4RNBO23PlatformInterfaceStdLib8toStringEPcjm
	.long	_ZN4RNBO23PlatformInterfaceStdLib8toStringEPcjy
	.long	_ZN4RNBO23PlatformInterfaceStdLib8toStringEPcjPv
	.long	_ZN4RNBO23PlatformInterfaceStdLib5abortEv
	.long	_ZN4RNBO23PlatformInterfaceStdLib5errorENS_12RuntimeErrorEPKc
	.long	_ZN4RNBO23PlatformInterfaceStdLib10assertTrueEbPKc
	.size	_ZTVN4RNBO23PlatformInterfaceStdLibE, 104

	.type	_ZTSN4RNBO23PlatformInterfaceStdLibE,%object @ @_ZTSN4RNBO23PlatformInterfaceStdLibE
	.section	.rodata._ZTSN4RNBO23PlatformInterfaceStdLibE,"aG",%progbits,_ZTSN4RNBO23PlatformInterfaceStdLibE,comdat
	.weak	_ZTSN4RNBO23PlatformInterfaceStdLibE
	.p2align	4
_ZTSN4RNBO23PlatformInterfaceStdLibE:
	.asciz	"N4RNBO23PlatformInterfaceStdLibE"
	.size	_ZTSN4RNBO23PlatformInterfaceStdLibE, 33

	.type	_ZTSN4RNBO17PlatformInterfaceE,%object @ @_ZTSN4RNBO17PlatformInterfaceE
	.section	.rodata._ZTSN4RNBO17PlatformInterfaceE,"aG",%progbits,_ZTSN4RNBO17PlatformInterfaceE,comdat
	.weak	_ZTSN4RNBO17PlatformInterfaceE
	.p2align	4
_ZTSN4RNBO17PlatformInterfaceE:
	.asciz	"N4RNBO17PlatformInterfaceE"
	.size	_ZTSN4RNBO17PlatformInterfaceE, 27

	.type	_ZTIN4RNBO17PlatformInterfaceE,%object @ @_ZTIN4RNBO17PlatformInterfaceE
	.section	.rodata._ZTIN4RNBO17PlatformInterfaceE,"aG",%progbits,_ZTIN4RNBO17PlatformInterfaceE,comdat
	.weak	_ZTIN4RNBO17PlatformInterfaceE
	.p2align	2
_ZTIN4RNBO17PlatformInterfaceE:
	.long	_ZTVN10__cxxabiv117__class_type_infoE+8
	.long	_ZTSN4RNBO17PlatformInterfaceE
	.size	_ZTIN4RNBO17PlatformInterfaceE, 8

	.type	_ZTIN4RNBO23PlatformInterfaceStdLibE,%object @ @_ZTIN4RNBO23PlatformInterfaceStdLibE
	.section	.rodata._ZTIN4RNBO23PlatformInterfaceStdLibE,"aG",%progbits,_ZTIN4RNBO23PlatformInterfaceStdLibE,comdat
	.weak	_ZTIN4RNBO23PlatformInterfaceStdLibE
	.p2align	2
_ZTIN4RNBO23PlatformInterfaceStdLibE:
	.long	_ZTVN10__cxxabiv120__si_class_type_infoE+8
	.long	_ZTSN4RNBO23PlatformInterfaceStdLibE
	.long	_ZTIN4RNBO17PlatformInterfaceE
	.size	_ZTIN4RNBO23PlatformInterfaceStdLibE, 12

	.type	_ZZN4RNBO8Platform8instanceEvE9pInstance,%object @ @_ZZN4RNBO8Platform8instanceEvE9pInstance
	.section	.bss._ZZN4RNBO8Platform8instanceEvE9pInstance,"aGw",%nobits,_ZZN4RNBO8Platform8instanceEvE9pInstance,comdat
	.weak	_ZZN4RNBO8Platform8instanceEvE9pInstance
	.p2align	2
_ZZN4RNBO8Platform8instanceEvE9pInstance:
	.long	0
	.size	_ZZN4RNBO8Platform8instanceEvE9pInstance, 4

	.type	.L.str,%object          @ @.str
	.section	.rodata.str1.1,"aMS",%progbits,1
.L.str:
	.asciz	"%f"
	.size	.L.str, 3

	.type	.L.str.2,%object        @ @.str.2
.L.str.2:
	.asciz	"%d"
	.size	.L.str.2, 3

	.type	.L.str.3,%object        @ @.str.3
.L.str.3:
	.asciz	"%ld"
	.size	.L.str.3, 4

	.type	.L.str.4,%object        @ @.str.4
.L.str.4:
	.asciz	"%lld"
	.size	.L.str.4, 5

	.type	.L.str.5,%object        @ @.str.5
.L.str.5:
	.asciz	"%lu"
	.size	.L.str.5, 4

	.type	.L.str.6,%object        @ @.str.6
.L.str.6:
	.asciz	"%llu"
	.size	.L.str.6, 5

	.type	.L.str.7,%object        @ @.str.7
.L.str.7:
	.asciz	"%p"
	.size	.L.str.7, 3

	.section	.init_array,"aw",%init_array
	.p2align	2
	.long	_GLOBAL__sub_I_RNBO_PlatformInterfaceImpl.ii(target1)
	.section	".note.GNU-stack","",%progbits
	.eabi_attribute	30, 2	@ Tag_ABI_optimization_goals