	.text
	.syntax unified
	.eabi_attribute	67, "2.09"	@ Tag_conformance
	.cpu	cortex-a8
	.eabi_attribute	6, 10	@ Tag_CPU_arch
	.eabi_attribute	7, 65	@ Tag_CPU_arch_profile
	.eabi_attribute	8, 1	@ Tag_ARM_ISA_use
	.eabi_attribute	9, 2	@ Tag_THUMB_ISA_use
	.fpu	neon
	.eabi_attribute	17, 1	@ Tag_ABI_PCS_GOT_use
	.eabi_attribute	20, 2	@ Tag_ABI_FP_denormal
	.eabi_attribute	23, 1	@ Tag_ABI_FP_number_model
	.eabi_attribute	34, 1	@ Tag_CPU_unaligned_access
	.eabi_attribute	24, 1	@ Tag_ABI_align_needed
	.eabi_attribute	25, 1	@ Tag_ABI_align_preserved
	.eabi_attribute	28, 1	@ Tag_ABI_VFP_args
	.eabi_attribute	38, 1	@ Tag_ABI_FP_16bit_format
	.eabi_attribute	18, 4	@ Tag_ABI_PCS_wchar_t
	.eabi_attribute	26, 2	@ Tag_ABI_enum_size
	.eabi_attribute	14, 0	@ Tag_ABI_PCS_R9_use
	.eabi_attribute	68, 1	@ Tag_Virtualization_use
	.file	"/root/Bela/projects/RNBO-KPStrong/build/rnbo/src/RNBO_CoreObject.bc"
	.file	1 "/root/Bela/projects/RNBO-KPStrong/rnbo/src/3rdparty/readerwriterqueue" "atomicops.h"
	.file	2 "/root/Bela/projects/RNBO-KPStrong/rnbo/src/3rdparty/concurrentqueue" "concurrentqueue.h"
	.file	3 "/usr/bin/../lib/gcc/arm-linux-gnueabihf/6.3.0/../../../../include/arm-linux-gnueabihf/c++/6.3.0/bits" "c++config.h"
	.file	4 "/usr/include/arm-linux-gnueabihf/bits" "pthreadtypes.h"
	.file	5 "/usr/bin/../lib/gcc/arm-linux-gnueabihf/6.3.0/../../../../include/arm-linux-gnueabihf/c++/6.3.0/bits" "gthr-default.h"
	.file	6 "/usr/bin/../lib/gcc/arm-linux-gnueabihf/6.3.0/../../../../include/c++/6.3.0" "thread"
	.file	7 "/usr/bin/../lib/gcc/arm-linux-gnueabihf/6.3.0/../../../../include/c++/6.3.0/bits" "unique_ptr.h"
	.file	8 "/usr/bin/../lib/gcc/arm-linux-gnueabihf/6.3.0/../../../../include/c++/6.3.0" "tuple"
	.file	9 "/usr/bin/../lib/gcc/arm-linux-gnueabihf/6.3.0/../../../../include/c++/6.3.0/bits" "uses_allocator.h"
	.file	10 "/usr/bin/../lib/gcc/arm-linux-gnueabihf/6.3.0/../../../../include/c++/6.3.0" "type_traits"
	.file	11 "/root/Bela/projects/RNBO-KPStrong/rnbo/common" "RNBO_Types.h"
	.file	12 "/root/Bela/projects/RNBO-KPStrong/rnbo/src/3rdparty/MPark_variant" "variant.hpp"
	.file	13 "/root/Bela/projects/RNBO-KPStrong/rnbo/src" "RNBO_EmptyEvent.h"
	.file	14 "/usr/include" "stdint.h"
	.file	15 "/root/Bela/projects/RNBO-KPStrong/rnbo/src" "RNBO_ClockEvent.h"
	.file	16 "/root/Bela/projects/RNBO-KPStrong/rnbo/src" "RNBO_DataRefEvent.h"
	.file	17 "/root/Bela/projects/RNBO-KPStrong/rnbo/src" "RNBO_MidiEvent.h"
	.file	18 "/usr/lib/llvm-3.9/bin/../lib/clang/3.9.1/include" "stddef.h"
	.file	19 "/root/Bela/projects/RNBO-KPStrong/rnbo/src" "RNBO_OutletEvent.h"
	.file	20 "/root/Bela/projects/RNBO-KPStrong/rnbo/src" "RNBO_ParameterEvent.h"
	.file	21 "/root/Bela/projects/RNBO-KPStrong/rnbo/src" "RNBO_UniversalEvent.h"
	.file	22 "/root/Bela/projects/RNBO-KPStrong/rnbo/common" "RNBO_String.h"
	.file	23 "/root/Bela/projects/RNBO-KPStrong/rnbo/src" "RNBO_MessageEvent.h"
	.file	24 "/root/Bela/projects/RNBO-KPStrong/rnbo/common" "RNBO_List.h"
	.file	25 "/usr/bin/../lib/gcc/arm-linux-gnueabihf/6.3.0/../../../../include/c++/6.3.0/bits" "shared_ptr_base.h"
	.file	26 "/usr/bin/../lib/gcc/arm-linux-gnueabihf/6.3.0/../../../../include/c++/6.3.0/ext" "concurrence.h"
	.file	27 "/usr/bin/../lib/gcc/arm-linux-gnueabihf/6.3.0/../../../../include/arm-linux-gnueabihf/c++/6.3.0/bits" "atomic_word.h"
	.file	28 "/usr/bin/../lib/gcc/arm-linux-gnueabihf/6.3.0/../../../../include/c++/6.3.0" "new"
	.file	29 "/usr/bin/../lib/gcc/arm-linux-gnueabihf/6.3.0/../../../../include/c++/6.3.0/bits" "shared_ptr.h"
	.file	30 "/root/Bela/projects/RNBO-KPStrong/rnbo/src" "RNBO_PresetEvent.h"
	.file	31 "/root/Bela/projects/RNBO-KPStrong/rnbo/src" "RNBO_Presets.h"
	.file	32 "/usr/bin/../lib/gcc/arm-linux-gnueabihf/6.3.0/../../../../include/c++/6.3.0/bits" "stl_function.h"
	.file	33 "/usr/bin/../lib/gcc/arm-linux-gnueabihf/6.3.0/../../../../include/c++/6.3.0" "functional"
	.file	34 "/root/Bela/projects/RNBO-KPStrong/rnbo/src" "RNBO_TempoEvent.h"
	.file	35 "/root/Bela/projects/RNBO-KPStrong/rnbo/src" "RNBO_TransportEvent.h"
	.file	36 "/root/Bela/projects/RNBO-KPStrong/rnbo/src" "RNBO_BeatTimeEvent.h"
	.file	37 "/root/Bela/projects/RNBO-KPStrong/rnbo/src" "RNBO_TimeSignatureEvent.h"
	.file	38 "/root/Bela/projects/RNBO-KPStrong/rnbo/src" "RNBO_StartupEvent.h"
	.file	39 "/root/Bela/projects/RNBO-KPStrong/rnbo/common" "RNBO_PlatformInterface.h"
	.file	40 "/root/Bela/projects/RNBO-KPStrong/rnbo/src" "RNBO_ParameterEventInterface.h"
	.file	41 "/root/Bela/projects/RNBO-KPStrong/rnbo/src" "RNBO_EventVariant.h"
	.file	42 "/root/Bela/projects/RNBO-KPStrong/rnbo/common" "RNBO_DataRef.h"
	.file	43 "/root/Bela/projects/RNBO-KPStrong/rnbo/common" "RNBO_UniquePtr.h"
	.file	44 "/usr/bin/../lib/gcc/arm-linux-gnueabihf/6.3.0/../../../../include/c++/6.3.0/bits" "allocator.h"
	.file	45 "/usr/bin/../lib/gcc/arm-linux-gnueabihf/6.3.0/../../../../include/c++/6.3.0/ext" "new_allocator.h"
	.file	46 "/usr/bin/../lib/gcc/arm-linux-gnueabihf/6.3.0/../../../../include/arm-linux-gnueabihf/c++/6.3.0/bits" "c++allocator.h"
	.file	47 "/usr/include" "stdlib.h"
	.file	48 "/usr/include/arm-linux-gnueabihf/bits" "stdlib-float.h"
	.file	49 "/usr/include/arm-linux-gnueabihf/bits" "stdlib-bsearch.h"
	.file	50 "/usr/bin/../lib/gcc/arm-linux-gnueabihf/6.3.0/../../../../include/c++/6.3.0" "cstdlib"
	.file	51 "/root/Bela/projects/RNBO-KPStrong/build/rnbo/src" "RNBO_CoreObject.cpp"
	.file	52 "/usr/include/arm-linux-gnueabihf/bits" "math-finite.h"
	.file	53 "/usr/include/arm-linux-gnueabihf/bits" "mathcalls.h"
	.file	54 "/usr/include/arm-linux-gnueabihf/bits" "mathdef.h"
	.file	55 "/root/Bela/projects/RNBO-KPStrong/rnbo/common" "RNBO_Math.h"
	.file	56 "/usr/bin/../lib/gcc/arm-linux-gnueabihf/6.3.0/../../../../include/c++/6.3.0/debug" "debug.h"
	.file	57 "/usr/bin/../lib/gcc/arm-linux-gnueabihf/6.3.0/../../../../include/c++/6.3.0/bits" "exception_ptr.h"
	.file	58 "/usr/include" "wchar.h"
	.file	59 "/usr/include" "libio.h"
	.file	60 "/usr/include/arm-linux-gnueabihf/bits" "types.h"
	.file	61 "/usr/include" "stdio.h"
	.file	62 "/usr/lib/llvm-3.9/bin/../lib/clang/3.9.1/include" "stdarg.h"
	.file	63 "/usr/include" "time.h"
	.file	64 "/usr/include" "locale.h"
	.file	65 "/usr/include" "ctype.h"
	.file	66 "/usr/include" "_G_config.h"
	.file	67 "/usr/include/arm-linux-gnueabihf/bits" "stdio.h"
	.file	68 "/usr/lib/llvm-3.9/bin/../lib/clang/3.9.1/include" "__stddef_max_align_t.h"
	.file	69 "/usr/include" "wctype.h"
	.file	70 "/usr/include" "string.h"
	.globl	_ZN4RNBO10CoreObjectC2EPNS_12EventHandlerE
	.p2align	2
	.type	_ZN4RNBO10CoreObjectC2EPNS_12EventHandlerE,%function
_ZN4RNBO10CoreObjectC2EPNS_12EventHandlerE: @ @_ZN4RNBO10CoreObjectC2EPNS_12EventHandlerE
.Lfunc_begin0:
	.file	71 "/root/Bela/projects/RNBO-KPStrong/rnbo/src" "RNBO_CoreObject.cpp"
	.loc	71 24 0                 @ /root/Bela/projects/RNBO-KPStrong/rnbo/src/RNBO_CoreObject.cpp:24:0
	.fnstart
	.cfi_startproc
@ BB#0:
	.save	{r4, r5, r6, r7, r11, lr}
	push	{r4, r5, r6, r7, r11, lr}
.Ltmp5:
	.cfi_def_cfa_offset 24
.Ltmp6:
	.cfi_offset lr, -4
.Ltmp7:
	.cfi_offset r11, -8
.Ltmp8:
	.cfi_offset r7, -12
.Ltmp9:
	.cfi_offset r6, -16
.Ltmp10:
	.cfi_offset r5, -20
.Ltmp11:
	.cfi_offset r4, -24
	.setfp	r11, sp, #16
	add	r11, sp, #16
.Ltmp12:
	.cfi_def_cfa r11, 8
	@DEBUG_VALUE: CoreObject:this <- %R0
	@DEBUG_VALUE: CoreObject:handler <- %R1
	mov	r4, r0
.Ltmp13:
	@DEBUG_VALUE: CoreObject:this <- %R4
	.loc	71 24 2 prologue_end    @ /root/Bela/projects/RNBO-KPStrong/rnbo/src/RNBO_CoreObject.cpp:24:2
	movw	r0, :lower16:_ZTVN4RNBO10CoreObjectE
	movt	r0, :upper16:_ZTVN4RNBO10CoreObjectE
	add	r2, r0, #8
.Ltmp14:
	.loc	43 59 5                 @ /root/Bela/projects/RNBO-KPStrong/rnbo/common/RNBO_UniquePtr.h:59:5
	vmov.i32	q8, #0x0
.Ltmp15:
	.loc	71 24 2                 @ /root/Bela/projects/RNBO-KPStrong/rnbo/src/RNBO_CoreObject.cpp:24:2
	add	r0, r0, #96
	str	r2, [r4]
.Ltmp16:
	.loc	43 59 5                 @ /root/Bela/projects/RNBO-KPStrong/rnbo/common/RNBO_UniquePtr.h:59:5
	add	r6, r4, #8
.Ltmp17:
	.loc	71 24 2                 @ /root/Bela/projects/RNBO-KPStrong/rnbo/src/RNBO_CoreObject.cpp:24:2
	str	r0, [r4, #4]
.Ltmp18:
	.loc	43 59 5                 @ /root/Bela/projects/RNBO-KPStrong/rnbo/common/RNBO_UniquePtr.h:59:5
	add	r0, r4, #24
	vst1.32	{d16, d17}, [r0]
	vst1.32	{d16, d17}, [r6]
.Ltmp19:
	.loc	71 25 3                 @ /root/Bela/projects/RNBO-KPStrong/rnbo/src/RNBO_CoreObject.cpp:25:3
.Ltmp0:
	mov	r0, r4
	bl	_ZN4RNBO10CoreObject16initializeEngineEPNS_12EventHandlerE
.Ltmp20:
.Ltmp1:
.Ltmp21:
@ BB#1:
	@DEBUG_VALUE: CoreObject:this <- %R4
	.loc	71 26 3                 @ /root/Bela/projects/RNBO-KPStrong/rnbo/src/RNBO_CoreObject.cpp:26:3
.Ltmp2:
	mov	r0, r4
	bl	_ZN4RNBO10CoreObject10setPatcherEv
.Ltmp3:
.Ltmp22:
@ BB#2:
	@DEBUG_VALUE: CoreObject:this <- %R4
	.loc	71 27 2                 @ /root/Bela/projects/RNBO-KPStrong/rnbo/src/RNBO_CoreObject.cpp:27:2
	mov	r0, r4
	pop	{r4, r5, r6, r7, r11, pc}
.Ltmp23:
.LBB0_3:
	@DEBUG_VALUE: CoreObject:this <- %R4
.Ltmp4:
	mov	r5, r0
.Ltmp24:
	.file	72 "/root/Bela/projects/RNBO-KPStrong/rnbo/src" "RNBO_AudioBufferConverter.h"
	.loc	72 54 8                 @ /root/Bela/projects/RNBO-KPStrong/rnbo/src/RNBO_AudioBufferConverter.h:54:8
	ldr	r0, [r4, #36]
.Ltmp25:
	.loc	72 54 8 is_stmt 0       @ /root/Bela/projects/RNBO-KPStrong/rnbo/src/RNBO_AudioBufferConverter.h:54:8
	cmp	r0, #0
	beq	.LBB0_12
.Ltmp26:
@ BB#4:                                 @ %.preheader.i.i3
	@DEBUG_VALUE: CoreObject:this <- %R4
	.loc	72 55 28 is_stmt 1 discriminator 1 @ /root/Bela/projects/RNBO-KPStrong/rnbo/src/RNBO_AudioBufferConverter.h:55:28
	ldr	r2, [r4, #28]
	.loc	72 55 5 is_stmt 0 discriminator 1 @ /root/Bela/projects/RNBO-KPStrong/rnbo/src/RNBO_AudioBufferConverter.h:55:5
	cmp	r2, #0
	beq	.LBB0_10
.Ltmp27:
@ BB#5:                                 @ %.lr.ph.i.i6.preheader
	@DEBUG_VALUE: CoreObject:this <- %R4
	mov	r7, #0
.Ltmp28:
.LBB0_6:                                @ %.lr.ph.i.i6
                                        @ =>This Inner Loop Header: Depth=1
	.loc	72 56 13 is_stmt 1      @ /root/Bela/projects/RNBO-KPStrong/rnbo/src/RNBO_AudioBufferConverter.h:56:13
	ldr	r1, [r0, r7, lsl #2]
	.loc	72 56 6 is_stmt 0       @ /root/Bela/projects/RNBO-KPStrong/rnbo/src/RNBO_AudioBufferConverter.h:56:6
	cmp	r1, #0
	beq	.LBB0_8
@ BB#7:                                 @   in Loop: Header=BB0_6 Depth=1
	.loc	72 56 6 discriminator 1 @ /root/Bela/projects/RNBO-KPStrong/rnbo/src/RNBO_AudioBufferConverter.h:56:6
	mov	r0, r1
	bl	_ZdlPv
.Ltmp29:
	.loc	72 55 28 is_stmt 1 discriminator 1 @ /root/Bela/projects/RNBO-KPStrong/rnbo/src/RNBO_AudioBufferConverter.h:55:28
	ldr	r2, [r4, #28]
.Ltmp30:
	.loc	72 56 13                @ /root/Bela/projects/RNBO-KPStrong/rnbo/src/RNBO_AudioBufferConverter.h:56:13
	ldr	r0, [r4, #36]
.Ltmp31:
.LBB0_8:                                @   in Loop: Header=BB0_6 Depth=1
	.loc	72 55 43 discriminator 3 @ /root/Bela/projects/RNBO-KPStrong/rnbo/src/RNBO_AudioBufferConverter.h:55:43
	add	r7, r7, #1
.Ltmp32:
	@DEBUG_VALUE: i <- %R7
	.loc	72 55 5 is_stmt 0 discriminator 1 @ /root/Bela/projects/RNBO-KPStrong/rnbo/src/RNBO_AudioBufferConverter.h:55:5
	cmp	r7, r2
	blo	.LBB0_6
.Ltmp33:
@ BB#9:                                 @ %._crit_edge.i.i4
	@DEBUG_VALUE: i <- %R7
	.loc	72 58 5 is_stmt 1       @ /root/Bela/projects/RNBO-KPStrong/rnbo/src/RNBO_AudioBufferConverter.h:58:5
	cmp	r0, #0
	beq	.LBB0_11
.Ltmp34:
.LBB0_10:                               @ %._crit_edge.thread.i.i11
	.loc	72 58 5 is_stmt 0 discriminator 1 @ /root/Bela/projects/RNBO-KPStrong/rnbo/src/RNBO_AudioBufferConverter.h:58:5
	bl	_ZdlPv
.LBB0_11:
	.loc	72 59 23 is_stmt 1      @ /root/Bela/projects/RNBO-KPStrong/rnbo/src/RNBO_AudioBufferConverter.h:59:23
	mov	r0, #0
	str	r0, [r4, #36]
.Ltmp35:
.LBB0_12:                               @ %_ZN4RNBO24AudioBufferConverterDataD2Ev.exit12
	.loc	72 54 8                 @ /root/Bela/projects/RNBO-KPStrong/rnbo/src/RNBO_AudioBufferConverter.h:54:8
	ldr	r0, [r4, #24]
.Ltmp36:
	.loc	72 54 8 is_stmt 0       @ /root/Bela/projects/RNBO-KPStrong/rnbo/src/RNBO_AudioBufferConverter.h:54:8
	cmp	r0, #0
	beq	.LBB0_21
@ BB#13:                                @ %.preheader.i.i
.Ltmp37:
	.loc	72 55 28 is_stmt 1 discriminator 1 @ /root/Bela/projects/RNBO-KPStrong/rnbo/src/RNBO_AudioBufferConverter.h:55:28
	ldr	r2, [r4, #16]
	.loc	72 55 5 is_stmt 0 discriminator 1 @ /root/Bela/projects/RNBO-KPStrong/rnbo/src/RNBO_AudioBufferConverter.h:55:5
	cmp	r2, #0
	beq	.LBB0_19
@ BB#14:                                @ %.lr.ph.i.i.preheader
	mov	r7, #0
.LBB0_15:                               @ %.lr.ph.i.i
                                        @ =>This Inner Loop Header: Depth=1
.Ltmp38:
	.loc	72 56 13 is_stmt 1      @ /root/Bela/projects/RNBO-KPStrong/rnbo/src/RNBO_AudioBufferConverter.h:56:13
	ldr	r1, [r0, r7, lsl #2]
	.loc	72 56 6 is_stmt 0       @ /root/Bela/projects/RNBO-KPStrong/rnbo/src/RNBO_AudioBufferConverter.h:56:6
	cmp	r1, #0
	beq	.LBB0_17
@ BB#16:                                @   in Loop: Header=BB0_15 Depth=1
	.loc	72 56 6 discriminator 1 @ /root/Bela/projects/RNBO-KPStrong/rnbo/src/RNBO_AudioBufferConverter.h:56:6
	mov	r0, r1
	bl	_ZdlPv
.Ltmp39:
	.loc	72 55 28 is_stmt 1 discriminator 1 @ /root/Bela/projects/RNBO-KPStrong/rnbo/src/RNBO_AudioBufferConverter.h:55:28
	ldr	r2, [r4, #16]
.Ltmp40:
	.loc	72 56 13                @ /root/Bela/projects/RNBO-KPStrong/rnbo/src/RNBO_AudioBufferConverter.h:56:13
	ldr	r0, [r4, #24]
.Ltmp41:
.LBB0_17:                               @   in Loop: Header=BB0_15 Depth=1
	.loc	72 55 43 discriminator 3 @ /root/Bela/projects/RNBO-KPStrong/rnbo/src/RNBO_AudioBufferConverter.h:55:43
	add	r7, r7, #1
.Ltmp42:
	@DEBUG_VALUE: i <- %R7
	.loc	72 55 5 is_stmt 0 discriminator 1 @ /root/Bela/projects/RNBO-KPStrong/rnbo/src/RNBO_AudioBufferConverter.h:55:5
	cmp	r7, r2
	blo	.LBB0_15
.Ltmp43:
@ BB#18:                                @ %._crit_edge.i.i
	@DEBUG_VALUE: i <- %R7
	.loc	72 58 5 is_stmt 1       @ /root/Bela/projects/RNBO-KPStrong/rnbo/src/RNBO_AudioBufferConverter.h:58:5
	cmp	r0, #0
	beq	.LBB0_20
.Ltmp44:
.LBB0_19:                               @ %._crit_edge.thread.i.i
	.loc	72 58 5 is_stmt 0 discriminator 1 @ /root/Bela/projects/RNBO-KPStrong/rnbo/src/RNBO_AudioBufferConverter.h:58:5
	bl	_ZdlPv
.LBB0_20:
	.loc	72 59 23 is_stmt 1      @ /root/Bela/projects/RNBO-KPStrong/rnbo/src/RNBO_AudioBufferConverter.h:59:23
	mov	r0, #0
	str	r0, [r4, #24]
.Ltmp45:
.LBB0_21:                               @ %_ZN4RNBO24AudioBufferConverterDataD2Ev.exit
	.loc	43 102 15               @ /root/Bela/projects/RNBO-KPStrong/rnbo/common/RNBO_UniquePtr.h:102:15
	ldr	r0, [r4, #12]
.Ltmp46:
	@DEBUG_VALUE: reset:old <- %R0
	@DEBUG_VALUE: operator():p <- %R0
	.loc	43 102 8 is_stmt 0      @ /root/Bela/projects/RNBO-KPStrong/rnbo/common/RNBO_UniquePtr.h:102:8
	cmp	r0, #0
	beq	.LBB0_23
.Ltmp47:
@ BB#22:                                @ %_ZNK4RNBO14default_deleteINS_23ParameterEventInterfaceEEclEPS1_.exit.i.i
	@DEBUG_VALUE: operator():p <- %R0
	@DEBUG_VALUE: reset:old <- %R0
	mov	r1, #0
	.loc	43 105 9 is_stmt 1      @ /root/Bela/projects/RNBO-KPStrong/rnbo/common/RNBO_UniquePtr.h:105:9
	str	r1, [r4, #12]
.Ltmp48:
	.loc	43 28 4 discriminator 1 @ /root/Bela/projects/RNBO-KPStrong/rnbo/common/RNBO_UniquePtr.h:28:4
	ldr	r1, [r0]
	ldr	r1, [r1, #48]
	blx	r1
.Ltmp49:
.LBB0_23:                               @ %_ZN4RNBO9UniquePtrINS_23ParameterEventInterfaceENS_14default_deleteIS1_EEED2Ev.exit
	.loc	43 102 15               @ /root/Bela/projects/RNBO-KPStrong/rnbo/common/RNBO_UniquePtr.h:102:15
	ldr	r0, [r6]
.Ltmp50:
	@DEBUG_VALUE: reset:old <- %R0
	@DEBUG_VALUE: operator():p <- %R0
	.loc	43 102 8 is_stmt 0      @ /root/Bela/projects/RNBO-KPStrong/rnbo/common/RNBO_UniquePtr.h:102:8
	cmp	r0, #0
	beq	.LBB0_25
.Ltmp51:
@ BB#24:                                @ %_ZNK4RNBO14default_deleteINS_6EngineEEclEPS1_.exit.i.i
	@DEBUG_VALUE: operator():p <- %R0
	@DEBUG_VALUE: reset:old <- %R0
	mov	r1, #0
	.loc	43 105 9 is_stmt 1      @ /root/Bela/projects/RNBO-KPStrong/rnbo/common/RNBO_UniquePtr.h:105:9
	str	r1, [r6]
.Ltmp52:
	.loc	43 28 4 discriminator 1 @ /root/Bela/projects/RNBO-KPStrong/rnbo/common/RNBO_UniquePtr.h:28:4
	ldr	r1, [r0]
	ldr	r1, [r1, #88]
	blx	r1
.Ltmp53:
.LBB0_25:                               @ %_ZN4RNBO9UniquePtrINS_6EngineENS_14default_deleteIS1_EEED2Ev.exit
	mov	r0, r5
	mov	lr, pc
	b	_Unwind_Resume
.Lfunc_end0:
	.size	_ZN4RNBO10CoreObjectC2EPNS_12EventHandlerE, .Lfunc_end0-_ZN4RNBO10CoreObjectC2EPNS_12EventHandlerE
	.cfi_endproc
	.file	73 "/root/Bela/projects/RNBO-KPStrong/rnbo/common" "RNBO_ParameterInterface.h"
	.file	74 "/root/Bela/projects/RNBO-KPStrong/rnbo/common" "RNBO_BaseInterface.h"
	.file	75 "/root/Bela/projects/RNBO-KPStrong/rnbo/common" "RNBO_ProbingInterface.h"
	.file	76 "/root/Bela/projects/RNBO-KPStrong/rnbo/src" "RNBO_CoreObject.h"
	.file	77 "/root/Bela/projects/RNBO-KPStrong/rnbo/common" "RNBO_PatcherInterface.h"
	.file	78 "/root/Bela/projects/RNBO-KPStrong/rnbo/src" "RNBO_ExternalData.h"
	.file	79 "/usr/bin/../lib/gcc/arm-linux-gnueabihf/6.3.0/../../../../include/c++/6.3.0/bits" "alloc_traits.h"
	.file	80 "/usr/bin/../lib/gcc/arm-linux-gnueabihf/6.3.0/../../../../include/c++/6.3.0/ext" "alloc_traits.h"
	.file	81 "/usr/bin/../lib/gcc/arm-linux-gnueabihf/6.3.0/../../../../include/c++/6.3.0/bits" "stl_vector.h"
	.file	82 "/usr/bin/../lib/gcc/arm-linux-gnueabihf/6.3.0/../../../../include/c++/6.3.0/bits" "stl_iterator.h"
	.file	83 "/usr/bin/../lib/gcc/arm-linux-gnueabihf/6.3.0/../../../../include/c++/6.3.0/bits" "stl_iterator_base_types.h"
	.file	84 "/root/Bela/projects/RNBO-KPStrong/rnbo/src" "RNBO_EventList.h"
	.globl	__gxx_personality_v0
	.personality __gxx_personality_v0
	.handlerdata
	.p2align	2
GCC_except_table0:
.Lexception0:
	.byte	255                     @ @LPStart Encoding = omit
	.byte	0                       @ @TType Encoding = absptr
	.asciz	"\234"                  @ @TType base offset
	.byte	3                       @ Call site Encoding = udata4
	.byte	26                      @ Call site table length
	.long	.Ltmp0-.Lfunc_begin0    @ >> Call Site 1 <<
	.long	.Ltmp3-.Ltmp0           @   Call between .Ltmp0 and .Ltmp3
	.long	.Ltmp4-.Lfunc_begin0    @     jumps to .Ltmp4
	.byte	0                       @   On action: cleanup
	.long	.Ltmp3-.Lfunc_begin0    @ >> Call Site 2 <<
	.long	.Lfunc_end0-.Ltmp3      @   Call between .Ltmp3 and .Lfunc_end0
	.long	0                       @     has no landing pad
	.byte	0                       @   On action: cleanup
	.p2align	2
	.fnend

	.globl	_ZN4RNBO10CoreObject16initializeEngineEPNS_12EventHandlerE
	.p2align	2
	.type	_ZN4RNBO10CoreObject16initializeEngineEPNS_12EventHandlerE,%function
_ZN4RNBO10CoreObject16initializeEngineEPNS_12EventHandlerE: @ @_ZN4RNBO10CoreObject16initializeEngineEPNS_12EventHandlerE
.Lfunc_begin1:
	.loc	71 268 0                @ /root/Bela/projects/RNBO-KPStrong/rnbo/src/RNBO_CoreObject.cpp:268:0
	.fnstart
	.cfi_startproc
@ BB#0:
	.save	{r4, r5, r6, r7, r11, lr}
	push	{r4, r5, r6, r7, r11, lr}
.Ltmp57:
	.cfi_def_cfa_offset 24
.Ltmp58:
	.cfi_offset lr, -4
.Ltmp59:
	.cfi_offset r11, -8
.Ltmp60:
	.cfi_offset r7, -12
.Ltmp61:
	.cfi_offset r6, -16
.Ltmp62:
	.cfi_offset r5, -20
.Ltmp63:
	.cfi_offset r4, -24
	.setfp	r11, sp, #16
	add	r11, sp, #16
.Ltmp64:
	.cfi_def_cfa r11, 8
	.pad	#8
	sub	sp, sp, #8
	@DEBUG_VALUE: initializeEngine:this <- %R0
	@DEBUG_VALUE: initializeEngine:handler <- %R1
	mov	r4, r0
.Ltmp65:
	@DEBUG_VALUE: initializeEngine:this <- %R4
	.loc	71 273 31 prologue_end discriminator 7 @ /root/Bela/projects/RNBO-KPStrong/rnbo/src/RNBO_CoreObject.cpp:273:31
	mov	r0, #436
	mov	r7, r1
.Ltmp66:
	@DEBUG_VALUE: initializeEngine:handler <- %R7
	bl	_Znwj
	mov	r6, r0
.Ltmp67:
	@DEBUG_VALUE: reset:ptr <- %R6
	.loc	71 273 35 is_stmt 0     @ /root/Bela/projects/RNBO-KPStrong/rnbo/src/RNBO_CoreObject.cpp:273:35
.Ltmp54:
	bl	_ZN4RNBO6EngineC1Ev
.Ltmp55:
.Ltmp68:
@ BB#1:
	@DEBUG_VALUE: reset:ptr <- %R6
	@DEBUG_VALUE: initializeEngine:handler <- %R7
	@DEBUG_VALUE: initializeEngine:this <- %R4
	.loc	43 102 15 is_stmt 1     @ /root/Bela/projects/RNBO-KPStrong/rnbo/common/RNBO_UniquePtr.h:102:15
	ldr	r0, [r4, #8]
.Ltmp69:
	@DEBUG_VALUE: reset:old <- %R0
	@DEBUG_VALUE: operator():p <- %R0
	.loc	43 102 8 is_stmt 0      @ /root/Bela/projects/RNBO-KPStrong/rnbo/common/RNBO_UniquePtr.h:102:8
	cmp	r0, r6
	.loc	43 105 9 is_stmt 1      @ /root/Bela/projects/RNBO-KPStrong/rnbo/common/RNBO_UniquePtr.h:105:9
	strne	r6, [r4, #8]
	.loc	43 106 8                @ /root/Bela/projects/RNBO-KPStrong/rnbo/common/RNBO_UniquePtr.h:106:8
	cmpne	r0, #0
	beq	.LBB1_3
.Ltmp70:
@ BB#2:                                 @ %_ZNK4RNBO14default_deleteINS_6EngineEEclEPS1_.exit.i.i
	@DEBUG_VALUE: operator():p <- %R0
	@DEBUG_VALUE: reset:old <- %R0
	@DEBUG_VALUE: reset:ptr <- %R6
	@DEBUG_VALUE: initializeEngine:handler <- %R7
	@DEBUG_VALUE: initializeEngine:this <- %R4
	.loc	43 28 4 discriminator 1 @ /root/Bela/projects/RNBO-KPStrong/rnbo/common/RNBO_UniquePtr.h:28:4
	ldr	r1, [r0]
	ldr	r1, [r1, #88]
	blx	r1
.Ltmp71:
	.loc	43 126 34               @ /root/Bela/projects/RNBO-KPStrong/rnbo/common/RNBO_UniquePtr.h:126:34
	ldr	r6, [r4, #8]
.Ltmp72:
.LBB1_3:                                @ %_ZN4RNBO9UniquePtrINS_6EngineENS_14default_deleteIS1_EEED2Ev.exit
	@DEBUG_VALUE: initializeEngine:handler <- %R7
	@DEBUG_VALUE: initializeEngine:this <- %R4
	.loc	71 274 34               @ /root/Bela/projects/RNBO-KPStrong/rnbo/src/RNBO_CoreObject.cpp:274:34
	ldr	r0, [r6]
	.loc	71 274 34 is_stmt 0 discriminator 4 @ /root/Bela/projects/RNBO-KPStrong/rnbo/src/RNBO_CoreObject.cpp:274:34
	mov	r1, r6
	mov	r2, #1
	mov	r3, r7
	.loc	71 274 34               @ /root/Bela/projects/RNBO-KPStrong/rnbo/src/RNBO_CoreObject.cpp:274:34
	ldr	r5, [r0, #144]
	add	r0, sp, #4
.Ltmp73:
	@DEBUG_VALUE: release:this <- %R0
	@DEBUG_VALUE: operator=:other <- %R0
	.loc	71 274 34 discriminator 4 @ /root/Bela/projects/RNBO-KPStrong/rnbo/src/RNBO_CoreObject.cpp:274:34
	blx	r5
.Ltmp74:
	mov	r0, #0
.Ltmp75:
	.loc	43 121 26 is_stmt 1     @ /root/Bela/projects/RNBO-KPStrong/rnbo/common/RNBO_UniquePtr.h:121:26
	ldr	r1, [sp, #4]
.Ltmp76:
	@DEBUG_VALUE: release:rv <- %R1
	@DEBUG_VALUE: reset:ptr <- %R1
	.loc	43 121 37 is_stmt 0     @ /root/Bela/projects/RNBO-KPStrong/rnbo/common/RNBO_UniquePtr.h:121:37
	str	r0, [sp, #4]
.Ltmp77:
	.loc	43 102 15 is_stmt 1     @ /root/Bela/projects/RNBO-KPStrong/rnbo/common/RNBO_UniquePtr.h:102:15
	ldr	r0, [r4, #12]
.Ltmp78:
	@DEBUG_VALUE: reset:old <- %R0
	@DEBUG_VALUE: operator():p <- %R0
	.loc	43 102 8 is_stmt 0      @ /root/Bela/projects/RNBO-KPStrong/rnbo/common/RNBO_UniquePtr.h:102:8
	cmp	r0, r1
	.loc	43 105 9 is_stmt 1      @ /root/Bela/projects/RNBO-KPStrong/rnbo/common/RNBO_UniquePtr.h:105:9
	strne	r1, [r4, #12]
	.loc	43 106 8                @ /root/Bela/projects/RNBO-KPStrong/rnbo/common/RNBO_UniquePtr.h:106:8
	cmpne	r0, #0
	beq	.LBB1_6
.Ltmp79:
@ BB#4:                                 @ %_ZN4RNBO9UniquePtrINS_23ParameterEventInterfaceENS_14default_deleteIS1_EEEaSEOS4_.exit
	@DEBUG_VALUE: operator():p <- %R0
	@DEBUG_VALUE: reset:old <- %R0
	@DEBUG_VALUE: reset:ptr <- %R1
	@DEBUG_VALUE: release:rv <- %R1
	@DEBUG_VALUE: initializeEngine:handler <- %R7
	@DEBUG_VALUE: initializeEngine:this <- %R4
	.loc	43 28 4 discriminator 1 @ /root/Bela/projects/RNBO-KPStrong/rnbo/common/RNBO_UniquePtr.h:28:4
	ldr	r1, [r0]
.Ltmp80:
	ldr	r1, [r1, #48]
	blx	r1
.Ltmp81:
	.loc	43 102 15               @ /root/Bela/projects/RNBO-KPStrong/rnbo/common/RNBO_UniquePtr.h:102:15
	ldr	r0, [sp, #4]
.Ltmp82:
	@DEBUG_VALUE: reset:old <- %R0
	@DEBUG_VALUE: operator():p <- %R0
	.loc	43 102 8 is_stmt 0      @ /root/Bela/projects/RNBO-KPStrong/rnbo/common/RNBO_UniquePtr.h:102:8
	cmp	r0, #0
	beq	.LBB1_6
.Ltmp83:
@ BB#5:                                 @ %_ZNK4RNBO14default_deleteINS_23ParameterEventInterfaceEEclEPS1_.exit.i.i
	@DEBUG_VALUE: operator():p <- %R0
	@DEBUG_VALUE: reset:old <- %R0
	@DEBUG_VALUE: initializeEngine:handler <- %R7
	@DEBUG_VALUE: initializeEngine:this <- %R4
	mov	r1, #0
	.loc	43 105 9 is_stmt 1      @ /root/Bela/projects/RNBO-KPStrong/rnbo/common/RNBO_UniquePtr.h:105:9
	str	r1, [sp, #4]
.Ltmp84:
	.loc	43 28 4 discriminator 1 @ /root/Bela/projects/RNBO-KPStrong/rnbo/common/RNBO_UniquePtr.h:28:4
	ldr	r1, [r0]
	ldr	r1, [r1, #48]
	blx	r1
.Ltmp85:
.LBB1_6:                                @ %_ZN4RNBO9UniquePtrINS_23ParameterEventInterfaceENS_14default_deleteIS1_EEED2Ev.exit
	@DEBUG_VALUE: initializeEngine:handler <- %R7
	@DEBUG_VALUE: initializeEngine:this <- %R4
	.loc	71 276 2                @ /root/Bela/projects/RNBO-KPStrong/rnbo/src/RNBO_CoreObject.cpp:276:2
	sub	sp, r11, #16
	pop	{r4, r5, r6, r7, r11, pc}
.Ltmp86:
.LBB1_7:
	@DEBUG_VALUE: reset:ptr <- %R6
	@DEBUG_VALUE: initializeEngine:handler <- %R7
	@DEBUG_VALUE: initializeEngine:this <- %R4
.Ltmp56:
	mov	r4, r0
.Ltmp87:
	.loc	71 273 31 discriminator 3 @ /root/Bela/projects/RNBO-KPStrong/rnbo/src/RNBO_CoreObject.cpp:273:31
	mov	r0, r6
	bl	_ZdlPv
	mov	r0, r4
	mov	lr, pc
	b	_Unwind_Resume
.Ltmp88:
.Lfunc_end1:
	.size	_ZN4RNBO10CoreObject16initializeEngineEPNS_12EventHandlerE, .Lfunc_end1-_ZN4RNBO10CoreObject16initializeEngineEPNS_12EventHandlerE
	.cfi_endproc
	.globl	__gxx_personality_v0
	.personality __gxx_personality_v0
	.handlerdata
	.p2align	2
GCC_except_table1:
.Lexception1:
	.byte	255                     @ @LPStart Encoding = omit
	.byte	0                       @ @TType Encoding = absptr
	.byte	41                      @ @TType base offset
	.byte	3                       @ Call site Encoding = udata4
	.byte	39                      @ Call site table length
	.long	.Lfunc_begin1-.Lfunc_begin1 @ >> Call Site 1 <<
	.long	.Ltmp54-.Lfunc_begin1   @   Call between .Lfunc_begin1 and .Ltmp54
	.long	0                       @     has no landing pad
	.byte	0                       @   On action: cleanup
	.long	.Ltmp54-.Lfunc_begin1   @ >> Call Site 2 <<
	.long	.Ltmp55-.Ltmp54         @   Call between .Ltmp54 and .Ltmp55
	.long	.Ltmp56-.Lfunc_begin1   @     jumps to .Ltmp56
	.byte	0                       @   On action: cleanup
	.long	.Ltmp55-.Lfunc_begin1   @ >> Call Site 3 <<
	.long	.Lfunc_end1-.Ltmp55     @   Call between .Ltmp55 and .Lfunc_end1
	.long	0                       @     has no landing pad
	.byte	0                       @   On action: cleanup
	.p2align	2
	.fnend

	.globl	_ZN4RNBO10CoreObject10setPatcherEv
	.p2align	2
	.type	_ZN4RNBO10CoreObject10setPatcherEv,%function
_ZN4RNBO10CoreObject10setPatcherEv:     @ @_ZN4RNBO10CoreObject10setPatcherEv
.Lfunc_begin2:
	.loc	71 293 0                @ /root/Bela/projects/RNBO-KPStrong/rnbo/src/RNBO_CoreObject.cpp:293:0
	.fnstart
	.cfi_startproc
@ BB#0:
	.save	{r4, r10, r11, lr}
	push	{r4, r10, r11, lr}
.Ltmp104:
	.cfi_def_cfa_offset 16
.Ltmp105:
	.cfi_offset lr, -4
.Ltmp106:
	.cfi_offset r11, -8
.Ltmp107:
	.cfi_offset r10, -12
.Ltmp108:
	.cfi_offset r4, -16
	.setfp	r11, sp, #8
	add	r11, sp, #8
.Ltmp109:
	.cfi_def_cfa r11, 8
	.pad	#8
	sub	sp, sp, #8
	@DEBUG_VALUE: setPatcher:this <- %R0
	mov	r4, r0
.Ltmp110:
	@DEBUG_VALUE: setPatcher:this <- %R4
	.loc	39 63 11 prologue_end   @ /root/Bela/projects/RNBO-KPStrong/rnbo/common/RNBO_PlatformInterface.h:63:11
	movw	r0, :lower16:_ZZN4RNBO8Platform8instanceEvE9pInstance
	movt	r0, :upper16:_ZZN4RNBO8Platform8instanceEvE9pInstance
	ldr	r0, [r0]
.Ltmp111:
	.loc	71 307 39 discriminator 1 @ /root/Bela/projects/RNBO-KPStrong/rnbo/src/RNBO_CoreObject.cpp:307:39
.Ltmp89:
	bl	GetPatcherFactoryFunction
	mov	r1, r0
.Ltmp90:
.Ltmp112:
@ BB#1:
	@DEBUG_VALUE: setPatcher:this <- %R4
	mov	r0, #0
.Ltmp113:
	@DEBUG_VALUE: setPatcher:factory <- %R1
	.loc	71 308 23               @ /root/Bela/projects/RNBO-KPStrong/rnbo/src/RNBO_CoreObject.cpp:308:23
	cmp	r1, #0
	beq	.LBB2_3
.Ltmp114:
@ BB#2:
	@DEBUG_VALUE: setPatcher:factory <- %R1
	@DEBUG_VALUE: setPatcher:this <- %R4
	.loc	71 308 33 is_stmt 0 discriminator 1 @ /root/Bela/projects/RNBO-KPStrong/rnbo/src/RNBO_CoreObject.cpp:308:33
.Ltmp92:
	blx	r1
.Ltmp115:
.Ltmp93:
.Ltmp116:
.LBB2_3:                                @ %_ZN4RNBO9UniquePtrINS_16PatcherInterfaceENS_14default_deleteIS1_EEEaSEPS1_.exit
	@DEBUG_VALUE: setPatcher:this <- %R4
	@DEBUG_VALUE: reset:ptr <- %R0
	@DEBUG_VALUE: setPatcher:patcher <- [%R0+0]
	@DEBUG_VALUE: setPatcher:this <- %R4
	.loc	43 126 34 is_stmt 1     @ /root/Bela/projects/RNBO-KPStrong/rnbo/common/RNBO_UniquePtr.h:126:34
	ldr	r2, [r4, #8]
.Ltmp117:
	.loc	71 319 19               @ /root/Bela/projects/RNBO-KPStrong/rnbo/src/RNBO_CoreObject.cpp:319:19
	ldr	r1, [r2]
	ldr	r3, [r1, #136]
.Ltmp118:
	.loc	43 79 9                 @ /root/Bela/projects/RNBO-KPStrong/rnbo/common/RNBO_UniquePtr.h:79:9
	str	r0, [sp, #4]
.Ltmp119:
	@DEBUG_VALUE: setPatcher:patcher <- 0+0]
	.loc	71 319 19               @ /root/Bela/projects/RNBO-KPStrong/rnbo/src/RNBO_CoreObject.cpp:319:19
.Ltmp95:
	add	r1, sp, #4
.Ltmp120:
	@DEBUG_VALUE: UniquePtr:this <- %R1
	mov	r0, r2
.Ltmp121:
	blx	r3
.Ltmp122:
	mov	r4, r0
.Ltmp123:
.Ltmp96:
@ BB#4:
.Ltmp124:
	.loc	43 102 15               @ /root/Bela/projects/RNBO-KPStrong/rnbo/common/RNBO_UniquePtr.h:102:15
	ldr	r0, [sp, #4]
.Ltmp125:
	@DEBUG_VALUE: reset:old <- %R0
	@DEBUG_VALUE: operator():pi <- %R0
	.loc	43 102 8 is_stmt 0      @ /root/Bela/projects/RNBO-KPStrong/rnbo/common/RNBO_UniquePtr.h:102:8
	cmp	r0, #0
	beq	.LBB2_6
.Ltmp126:
@ BB#5:
	@DEBUG_VALUE: operator():pi <- %R0
	@DEBUG_VALUE: reset:old <- %R0
	mov	r1, #0
	.loc	43 105 9 is_stmt 1      @ /root/Bela/projects/RNBO-KPStrong/rnbo/common/RNBO_UniquePtr.h:105:9
	str	r1, [sp, #4]
.Ltmp127:
	.loc	77 97 8                 @ /root/Bela/projects/RNBO-KPStrong/rnbo/common/RNBO_PatcherInterface.h:97:8
	ldr	r1, [r0]
	ldr	r1, [r1, #80]
.Ltmp101:
	blx	r1
.Ltmp128:
.Ltmp102:
.Ltmp129:
.LBB2_6:                                @ %_ZN4RNBO9UniquePtrINS_16PatcherInterfaceENS_14default_deleteIS1_EEED2Ev.exit9
	.loc	71 314 2                @ /root/Bela/projects/RNBO-KPStrong/rnbo/src/RNBO_CoreObject.cpp:314:2
	mov	r0, r4
	sub	sp, r11, #8
	pop	{r4, r10, r11, pc}
.LBB2_7:
.Ltmp103:
.Ltmp130:
	.loc	43 96 18 discriminator 2 @ /root/Bela/projects/RNBO-KPStrong/rnbo/common/RNBO_UniquePtr.h:96:18
	mov	lr, pc
	b	__clang_call_terminate
.Ltmp131:
.LBB2_8:
	@DEBUG_VALUE: setPatcher:this <- %R4
.Ltmp94:
	b	.LBB2_13
.Ltmp132:
.LBB2_9:
.Ltmp97:
	mov	r4, r0
.Ltmp133:
	.loc	43 102 15               @ /root/Bela/projects/RNBO-KPStrong/rnbo/common/RNBO_UniquePtr.h:102:15
	ldr	r0, [sp, #4]
.Ltmp134:
	@DEBUG_VALUE: reset:old <- %R0
	@DEBUG_VALUE: operator():pi <- %R0
	.loc	43 102 8 is_stmt 0      @ /root/Bela/projects/RNBO-KPStrong/rnbo/common/RNBO_UniquePtr.h:102:8
	cmp	r0, #0
	beq	.LBB2_14
.Ltmp135:
@ BB#10:
	@DEBUG_VALUE: operator():pi <- %R0
	@DEBUG_VALUE: reset:old <- %R0
	mov	r1, #0
	.loc	43 105 9 is_stmt 1      @ /root/Bela/projects/RNBO-KPStrong/rnbo/common/RNBO_UniquePtr.h:105:9
	str	r1, [sp, #4]
.Ltmp136:
	.loc	77 97 8                 @ /root/Bela/projects/RNBO-KPStrong/rnbo/common/RNBO_PatcherInterface.h:97:8
	ldr	r1, [r0]
	ldr	r1, [r1, #80]
.Ltmp98:
	blx	r1
.Ltmp137:
.Ltmp99:
	b	.LBB2_14
.Ltmp138:
.LBB2_11:
.Ltmp100:
	.loc	43 96 18 discriminator 2 @ /root/Bela/projects/RNBO-KPStrong/rnbo/common/RNBO_UniquePtr.h:96:18
	mov	lr, pc
	b	__clang_call_terminate
.Ltmp139:
.LBB2_12:
	@DEBUG_VALUE: setPatcher:this <- %R4
.Ltmp91:
.Ltmp140:
.LBB2_13:                               @ %_ZN4RNBO9UniquePtrINS_16PatcherInterfaceENS_14default_deleteIS1_EEED2Ev.exit
	@DEBUG_VALUE: setPatcher:this <- %R4
	mov	r4, r0
.Ltmp141:
.LBB2_14:                               @ %_ZN4RNBO9UniquePtrINS_16PatcherInterfaceENS_14default_deleteIS1_EEED2Ev.exit
	mov	r0, r4
	mov	lr, pc
	b	_Unwind_Resume
.Lfunc_end2:
	.size	_ZN4RNBO10CoreObject10setPatcherEv, .Lfunc_end2-_ZN4RNBO10CoreObject10setPatcherEv
	.cfi_endproc
	.globl	__gxx_personality_v0
	.personality __gxx_personality_v0
	.handlerdata
	.p2align	2
GCC_except_table2:
.Lexception2:
	.byte	255                     @ @LPStart Encoding = omit
	.byte	0                       @ @TType Encoding = absptr
	.asciz	"\326\200\200"          @ @TType base offset
	.byte	3                       @ Call site Encoding = udata4
	.byte	78                      @ Call site table length
	.long	.Ltmp89-.Lfunc_begin2   @ >> Call Site 1 <<
	.long	.Ltmp90-.Ltmp89         @   Call between .Ltmp89 and .Ltmp90
	.long	.Ltmp91-.Lfunc_begin2   @     jumps to .Ltmp91
	.byte	0                       @   On action: cleanup
	.long	.Ltmp92-.Lfunc_begin2   @ >> Call Site 2 <<
	.long	.Ltmp93-.Ltmp92         @   Call between .Ltmp92 and .Ltmp93
	.long	.Ltmp94-.Lfunc_begin2   @     jumps to .Ltmp94
	.byte	0                       @   On action: cleanup
	.long	.Ltmp95-.Lfunc_begin2   @ >> Call Site 3 <<
	.long	.Ltmp96-.Ltmp95         @   Call between .Ltmp95 and .Ltmp96
	.long	.Ltmp97-.Lfunc_begin2   @     jumps to .Ltmp97
	.byte	0                       @   On action: cleanup
	.long	.Ltmp101-.Lfunc_begin2  @ >> Call Site 4 <<
	.long	.Ltmp102-.Ltmp101       @   Call between .Ltmp101 and .Ltmp102
	.long	.Ltmp103-.Lfunc_begin2  @     jumps to .Ltmp103
	.byte	1                       @   On action: 1
	.long	.Ltmp98-.Lfunc_begin2   @ >> Call Site 5 <<
	.long	.Ltmp99-.Ltmp98         @   Call between .Ltmp98 and .Ltmp99
	.long	.Ltmp100-.Lfunc_begin2  @     jumps to .Ltmp100
	.byte	1                       @   On action: 1
	.long	.Ltmp99-.Lfunc_begin2   @ >> Call Site 6 <<
	.long	.Lfunc_end2-.Ltmp99     @   Call between .Ltmp99 and .Lfunc_end2
	.long	0                       @     has no landing pad
	.byte	0                       @   On action: cleanup
	.byte	1                       @ >> Action Record 1 <<
                                        @   Catch TypeInfo 1
	.byte	0                       @   No further actions
                                        @ >> Catch TypeInfos <<
	.long	0                       @ TypeInfo 1
	.p2align	2
	.fnend

	.globl	_ZN4RNBO10CoreObjectC2ENS_9UniquePtrINS_16PatcherInterfaceENS_14default_deleteIS2_EEEEPNS_12EventHandlerE
	.p2align	2
	.type	_ZN4RNBO10CoreObjectC2ENS_9UniquePtrINS_16PatcherInterfaceENS_14default_deleteIS2_EEEEPNS_12EventHandlerE,%function
_ZN4RNBO10CoreObjectC2ENS_9UniquePtrINS_16PatcherInterfaceENS_14default_deleteIS2_EEEEPNS_12EventHandlerE: @ @_ZN4RNBO10CoreObjectC2ENS_9UniquePtrINS_16PatcherInterfaceENS_14default_deleteIS2_EEEEPNS_12EventHandlerE
.Lfunc_begin3:
	.loc	71 30 0                 @ /root/Bela/projects/RNBO-KPStrong/rnbo/src/RNBO_CoreObject.cpp:30:0
	.fnstart
	.cfi_startproc
@ BB#0:
	.save	{r4, r5, r6, r7, r11, lr}
	push	{r4, r5, r6, r7, r11, lr}
.Ltmp154:
	.cfi_def_cfa_offset 24
.Ltmp155:
	.cfi_offset lr, -4
.Ltmp156:
	.cfi_offset r11, -8
.Ltmp157:
	.cfi_offset r7, -12
.Ltmp158:
	.cfi_offset r6, -16
.Ltmp159:
	.cfi_offset r5, -20
.Ltmp160:
	.cfi_offset r4, -24
	.setfp	r11, sp, #16
	add	r11, sp, #16
.Ltmp161:
	.cfi_def_cfa r11, 8
	.pad	#8
	sub	sp, sp, #8
	@DEBUG_VALUE: CoreObject:this <- %R0
	@DEBUG_VALUE: CoreObject:patcher <- [%R1+0]
	@DEBUG_VALUE: CoreObject:handler <- %R2
	mov	r4, r0
.Ltmp162:
	@DEBUG_VALUE: CoreObject:this <- %R4
	.loc	71 30 2 prologue_end    @ /root/Bela/projects/RNBO-KPStrong/rnbo/src/RNBO_CoreObject.cpp:30:2
	movw	r0, :lower16:_ZTVN4RNBO10CoreObjectE
	movt	r0, :upper16:_ZTVN4RNBO10CoreObjectE
	mov	r5, r1
.Ltmp163:
	@DEBUG_VALUE: CoreObject:patcher <- [%R5+0]
	add	r1, r0, #8
.Ltmp164:
	.loc	43 59 5                 @ /root/Bela/projects/RNBO-KPStrong/rnbo/common/RNBO_UniquePtr.h:59:5
	vmov.i32	q8, #0x0
.Ltmp165:
	.loc	71 30 2                 @ /root/Bela/projects/RNBO-KPStrong/rnbo/src/RNBO_CoreObject.cpp:30:2
	add	r0, r0, #96
	str	r1, [r4]
	str	r0, [r4, #4]
.Ltmp166:
	.loc	43 59 5                 @ /root/Bela/projects/RNBO-KPStrong/rnbo/common/RNBO_UniquePtr.h:59:5
	add	r0, r4, #24
.Ltmp167:
	.loc	43 59 5 is_stmt 0       @ /root/Bela/projects/RNBO-KPStrong/rnbo/common/RNBO_UniquePtr.h:59:5
	add	r6, r4, #8
.Ltmp168:
	.loc	43 59 5                 @ /root/Bela/projects/RNBO-KPStrong/rnbo/common/RNBO_UniquePtr.h:59:5
	vst1.32	{d16, d17}, [r0]
	vst1.32	{d16, d17}, [r6]
.Ltmp169:
	.loc	71 31 3 is_stmt 1       @ /root/Bela/projects/RNBO-KPStrong/rnbo/src/RNBO_CoreObject.cpp:31:3
.Ltmp142:
	mov	r0, r4
	mov	r1, r2
.Ltmp170:
	@DEBUG_VALUE: CoreObject:handler <- %R1
	bl	_ZN4RNBO10CoreObject16initializeEngineEPNS_12EventHandlerE
.Ltmp171:
.Ltmp143:
.Ltmp172:
@ BB#1:
	@DEBUG_VALUE: CoreObject:patcher <- [%R5+0]
	@DEBUG_VALUE: CoreObject:this <- %R4
	@DEBUG_VALUE: UniquePtr:other <- %R5
	mov	r0, #0
.Ltmp173:
	.loc	43 79 17                @ /root/Bela/projects/RNBO-KPStrong/rnbo/common/RNBO_UniquePtr.h:79:17
	ldr	r1, [r5]
.Ltmp174:
	@DEBUG_VALUE: setPatcher:patcher <- [%R1+0]
	.loc	43 80 15                @ /root/Bela/projects/RNBO-KPStrong/rnbo/common/RNBO_UniquePtr.h:80:15
	str	r0, [r5]
.Ltmp175:
	.loc	43 126 34               @ /root/Bela/projects/RNBO-KPStrong/rnbo/common/RNBO_UniquePtr.h:126:34
	ldr	r0, [r6]
.Ltmp176:
	.loc	71 319 19               @ /root/Bela/projects/RNBO-KPStrong/rnbo/src/RNBO_CoreObject.cpp:319:19
	ldr	r2, [r0]
	ldr	r2, [r2, #136]
.Ltmp177:
	.loc	43 79 9                 @ /root/Bela/projects/RNBO-KPStrong/rnbo/common/RNBO_UniquePtr.h:79:9
	str	r1, [sp, #4]
.Ltmp178:
	@DEBUG_VALUE: setPatcher:patcher <- 0+0]
	.loc	71 319 19               @ /root/Bela/projects/RNBO-KPStrong/rnbo/src/RNBO_CoreObject.cpp:319:19
.Ltmp145:
	add	r1, sp, #4
.Ltmp179:
	@DEBUG_VALUE: UniquePtr:this <- %R1
	blx	r2
.Ltmp180:
.Ltmp146:
.Ltmp181:
@ BB#2:
	@DEBUG_VALUE: UniquePtr:other <- %R5
	@DEBUG_VALUE: CoreObject:patcher <- [%R5+0]
	@DEBUG_VALUE: CoreObject:this <- %R4
	.loc	43 102 15               @ /root/Bela/projects/RNBO-KPStrong/rnbo/common/RNBO_UniquePtr.h:102:15
	ldr	r0, [sp, #4]
.Ltmp182:
	@DEBUG_VALUE: reset:old <- %R0
	@DEBUG_VALUE: operator():pi <- %R0
	.loc	43 102 8 is_stmt 0      @ /root/Bela/projects/RNBO-KPStrong/rnbo/common/RNBO_UniquePtr.h:102:8
	cmp	r0, #0
	beq	.LBB3_4
.Ltmp183:
@ BB#3:
	@DEBUG_VALUE: operator():pi <- %R0
	@DEBUG_VALUE: reset:old <- %R0
	@DEBUG_VALUE: UniquePtr:other <- %R5
	@DEBUG_VALUE: CoreObject:patcher <- [%R5+0]
	@DEBUG_VALUE: CoreObject:this <- %R4
	mov	r1, #0
	.loc	43 105 9 is_stmt 1      @ /root/Bela/projects/RNBO-KPStrong/rnbo/common/RNBO_UniquePtr.h:105:9
	str	r1, [sp, #4]
.Ltmp184:
	.loc	77 97 8                 @ /root/Bela/projects/RNBO-KPStrong/rnbo/common/RNBO_PatcherInterface.h:97:8
	ldr	r1, [r0]
	ldr	r1, [r1, #80]
.Ltmp151:
	blx	r1
.Ltmp185:
.Ltmp152:
.Ltmp186:
.LBB3_4:                                @ %_ZN4RNBO9UniquePtrINS_16PatcherInterfaceENS_14default_deleteIS1_EEED2Ev.exit14
	@DEBUG_VALUE: UniquePtr:other <- %R5
	@DEBUG_VALUE: CoreObject:patcher <- [%R5+0]
	@DEBUG_VALUE: CoreObject:this <- %R4
	.loc	71 33 2                 @ /root/Bela/projects/RNBO-KPStrong/rnbo/src/RNBO_CoreObject.cpp:33:2
	mov	r0, r4
	sub	sp, r11, #16
	pop	{r4, r5, r6, r7, r11, pc}
.Ltmp187:
.LBB3_5:
	@DEBUG_VALUE: UniquePtr:other <- %R5
	@DEBUG_VALUE: CoreObject:patcher <- [%R5+0]
	@DEBUG_VALUE: CoreObject:this <- %R4
.Ltmp153:
.Ltmp188:
	.loc	43 96 18 discriminator 2 @ /root/Bela/projects/RNBO-KPStrong/rnbo/common/RNBO_UniquePtr.h:96:18
	mov	lr, pc
	b	__clang_call_terminate
.Ltmp189:
.LBB3_6:
	@DEBUG_VALUE: UniquePtr:other <- %R5
	@DEBUG_VALUE: CoreObject:patcher <- [%R5+0]
	@DEBUG_VALUE: CoreObject:this <- %R4
.Ltmp147:
	mov	r5, r0
.Ltmp190:
	.loc	43 102 15               @ /root/Bela/projects/RNBO-KPStrong/rnbo/common/RNBO_UniquePtr.h:102:15
	ldr	r0, [sp, #4]
.Ltmp191:
	@DEBUG_VALUE: reset:old <- %R0
	@DEBUG_VALUE: operator():pi <- %R0
	.loc	43 102 8 is_stmt 0      @ /root/Bela/projects/RNBO-KPStrong/rnbo/common/RNBO_UniquePtr.h:102:8
	cmp	r0, #0
	beq	.LBB3_10
.Ltmp192:
@ BB#7:
	@DEBUG_VALUE: operator():pi <- %R0
	@DEBUG_VALUE: reset:old <- %R0
	@DEBUG_VALUE: CoreObject:this <- %R4
	mov	r1, #0
	.loc	43 105 9 is_stmt 1      @ /root/Bela/projects/RNBO-KPStrong/rnbo/common/RNBO_UniquePtr.h:105:9
	str	r1, [sp, #4]
.Ltmp193:
	.loc	77 97 8                 @ /root/Bela/projects/RNBO-KPStrong/rnbo/common/RNBO_PatcherInterface.h:97:8
	ldr	r1, [r0]
	ldr	r1, [r1, #80]
.Ltmp148:
	blx	r1
.Ltmp194:
.Ltmp149:
	b	.LBB3_10
.Ltmp195:
.LBB3_8:
	@DEBUG_VALUE: CoreObject:this <- %R4
.Ltmp150:
	.loc	43 96 18 discriminator 2 @ /root/Bela/projects/RNBO-KPStrong/rnbo/common/RNBO_UniquePtr.h:96:18
	mov	lr, pc
	b	__clang_call_terminate
.Ltmp196:
.LBB3_9:
	@DEBUG_VALUE: CoreObject:patcher <- [%R5+0]
	@DEBUG_VALUE: CoreObject:this <- %R4
.Ltmp144:
	mov	r5, r0
.Ltmp197:
.LBB3_10:                               @ %_ZN4RNBO9UniquePtrINS_16PatcherInterfaceENS_14default_deleteIS1_EEED2Ev.exit
	@DEBUG_VALUE: CoreObject:this <- %R4
	.loc	72 54 8                 @ /root/Bela/projects/RNBO-KPStrong/rnbo/src/RNBO_AudioBufferConverter.h:54:8
	ldr	r0, [r4, #36]
.Ltmp198:
	.loc	72 54 8 is_stmt 0       @ /root/Bela/projects/RNBO-KPStrong/rnbo/src/RNBO_AudioBufferConverter.h:54:8
	cmp	r0, #0
.Ltmp199:
	@DEBUG_VALUE: setPatcher:this <- %R4
	beq	.LBB3_19
.Ltmp200:
@ BB#11:                                @ %.preheader.i.i4
	@DEBUG_VALUE: setPatcher:this <- %R4
	@DEBUG_VALUE: CoreObject:this <- %R4
	.loc	72 55 28 is_stmt 1 discriminator 1 @ /root/Bela/projects/RNBO-KPStrong/rnbo/src/RNBO_AudioBufferConverter.h:55:28
	ldr	r2, [r4, #28]
	.loc	72 55 5 is_stmt 0 discriminator 1 @ /root/Bela/projects/RNBO-KPStrong/rnbo/src/RNBO_AudioBufferConverter.h:55:5
	cmp	r2, #0
	beq	.LBB3_17
.Ltmp201:
@ BB#12:                                @ %.lr.ph.i.i7.preheader
	@DEBUG_VALUE: setPatcher:this <- %R4
	@DEBUG_VALUE: CoreObject:this <- %R4
	mov	r7, #0
.Ltmp202:
.LBB3_13:                               @ %.lr.ph.i.i7
                                        @ =>This Inner Loop Header: Depth=1
	.loc	72 56 13 is_stmt 1      @ /root/Bela/projects/RNBO-KPStrong/rnbo/src/RNBO_AudioBufferConverter.h:56:13
	ldr	r1, [r0, r7, lsl #2]
	.loc	72 56 6 is_stmt 0       @ /root/Bela/projects/RNBO-KPStrong/rnbo/src/RNBO_AudioBufferConverter.h:56:6
	cmp	r1, #0
	beq	.LBB3_15
@ BB#14:                                @   in Loop: Header=BB3_13 Depth=1
	.loc	72 56 6 discriminator 1 @ /root/Bela/projects/RNBO-KPStrong/rnbo/src/RNBO_AudioBufferConverter.h:56:6
	mov	r0, r1
	bl	_ZdlPv
.Ltmp203:
	.loc	72 55 28 is_stmt 1 discriminator 1 @ /root/Bela/projects/RNBO-KPStrong/rnbo/src/RNBO_AudioBufferConverter.h:55:28
	ldr	r2, [r4, #28]
.Ltmp204:
	.loc	72 56 13                @ /root/Bela/projects/RNBO-KPStrong/rnbo/src/RNBO_AudioBufferConverter.h:56:13
	ldr	r0, [r4, #36]
.Ltmp205:
.LBB3_15:                               @   in Loop: Header=BB3_13 Depth=1
	.loc	72 55 43 discriminator 3 @ /root/Bela/projects/RNBO-KPStrong/rnbo/src/RNBO_AudioBufferConverter.h:55:43
	add	r7, r7, #1
.Ltmp206:
	@DEBUG_VALUE: i <- %R7
	.loc	72 55 5 is_stmt 0 discriminator 1 @ /root/Bela/projects/RNBO-KPStrong/rnbo/src/RNBO_AudioBufferConverter.h:55:5
	cmp	r7, r2
	blo	.LBB3_13
.Ltmp207:
@ BB#16:                                @ %._crit_edge.i.i5
	@DEBUG_VALUE: i <- %R7
	.loc	72 58 5 is_stmt 1       @ /root/Bela/projects/RNBO-KPStrong/rnbo/src/RNBO_AudioBufferConverter.h:58:5
	cmp	r0, #0
	beq	.LBB3_18
.Ltmp208:
.LBB3_17:                               @ %._crit_edge.thread.i.i12
	.loc	72 58 5 is_stmt 0 discriminator 1 @ /root/Bela/projects/RNBO-KPStrong/rnbo/src/RNBO_AudioBufferConverter.h:58:5
	bl	_ZdlPv
.LBB3_18:
	.loc	72 59 23 is_stmt 1      @ /root/Bela/projects/RNBO-KPStrong/rnbo/src/RNBO_AudioBufferConverter.h:59:23
	mov	r0, #0
	str	r0, [r4, #36]
.Ltmp209:
.LBB3_19:                               @ %_ZN4RNBO24AudioBufferConverterDataD2Ev.exit13
	.loc	72 54 8                 @ /root/Bela/projects/RNBO-KPStrong/rnbo/src/RNBO_AudioBufferConverter.h:54:8
	ldr	r0, [r4, #24]
.Ltmp210:
	.loc	72 54 8 is_stmt 0       @ /root/Bela/projects/RNBO-KPStrong/rnbo/src/RNBO_AudioBufferConverter.h:54:8
	cmp	r0, #0
	beq	.LBB3_28
@ BB#20:                                @ %.preheader.i.i
.Ltmp211:
	.loc	72 55 28 is_stmt 1 discriminator 1 @ /root/Bela/projects/RNBO-KPStrong/rnbo/src/RNBO_AudioBufferConverter.h:55:28
	ldr	r2, [r4, #16]
	.loc	72 55 5 is_stmt 0 discriminator 1 @ /root/Bela/projects/RNBO-KPStrong/rnbo/src/RNBO_AudioBufferConverter.h:55:5
	cmp	r2, #0
	beq	.LBB3_26
@ BB#21:                                @ %.lr.ph.i.i.preheader
	mov	r7, #0
.LBB3_22:                               @ %.lr.ph.i.i
                                        @ =>This Inner Loop Header: Depth=1
.Ltmp212:
	.loc	72 56 13 is_stmt 1      @ /root/Bela/projects/RNBO-KPStrong/rnbo/src/RNBO_AudioBufferConverter.h:56:13
	ldr	r1, [r0, r7, lsl #2]
	.loc	72 56 6 is_stmt 0       @ /root/Bela/projects/RNBO-KPStrong/rnbo/src/RNBO_AudioBufferConverter.h:56:6
	cmp	r1, #0
	beq	.LBB3_24
@ BB#23:                                @   in Loop: Header=BB3_22 Depth=1
	.loc	72 56 6 discriminator 1 @ /root/Bela/projects/RNBO-KPStrong/rnbo/src/RNBO_AudioBufferConverter.h:56:6
	mov	r0, r1
	bl	_ZdlPv
.Ltmp213:
	.loc	72 55 28 is_stmt 1 discriminator 1 @ /root/Bela/projects/RNBO-KPStrong/rnbo/src/RNBO_AudioBufferConverter.h:55:28
	ldr	r2, [r4, #16]
.Ltmp214:
	.loc	72 56 13                @ /root/Bela/projects/RNBO-KPStrong/rnbo/src/RNBO_AudioBufferConverter.h:56:13
	ldr	r0, [r4, #24]
.Ltmp215:
.LBB3_24:                               @   in Loop: Header=BB3_22 Depth=1
	.loc	72 55 43 discriminator 3 @ /root/Bela/projects/RNBO-KPStrong/rnbo/src/RNBO_AudioBufferConverter.h:55:43
	add	r7, r7, #1
.Ltmp216:
	@DEBUG_VALUE: i <- %R7
	.loc	72 55 5 is_stmt 0 discriminator 1 @ /root/Bela/projects/RNBO-KPStrong/rnbo/src/RNBO_AudioBufferConverter.h:55:5
	cmp	r7, r2
	blo	.LBB3_22
.Ltmp217:
@ BB#25:                                @ %._crit_edge.i.i
	@DEBUG_VALUE: i <- %R7
	.loc	72 58 5 is_stmt 1       @ /root/Bela/projects/RNBO-KPStrong/rnbo/src/RNBO_AudioBufferConverter.h:58:5
	cmp	r0, #0
	beq	.LBB3_27
.Ltmp218:
.LBB3_26:                               @ %._crit_edge.thread.i.i
	.loc	72 58 5 is_stmt 0 discriminator 1 @ /root/Bela/projects/RNBO-KPStrong/rnbo/src/RNBO_AudioBufferConverter.h:58:5
	bl	_ZdlPv
.LBB3_27:
	.loc	72 59 23 is_stmt 1      @ /root/Bela/projects/RNBO-KPStrong/rnbo/src/RNBO_AudioBufferConverter.h:59:23
	mov	r0, #0
	str	r0, [r4, #24]
.Ltmp219:
.LBB3_28:                               @ %_ZN4RNBO24AudioBufferConverterDataD2Ev.exit
	.loc	43 102 15               @ /root/Bela/projects/RNBO-KPStrong/rnbo/common/RNBO_UniquePtr.h:102:15
	ldr	r0, [r4, #12]
.Ltmp220:
	@DEBUG_VALUE: reset:old <- %R0
	@DEBUG_VALUE: operator():p <- %R0
	.loc	43 102 8 is_stmt 0      @ /root/Bela/projects/RNBO-KPStrong/rnbo/common/RNBO_UniquePtr.h:102:8
	cmp	r0, #0
	beq	.LBB3_30
.Ltmp221:
@ BB#29:                                @ %_ZNK4RNBO14default_deleteINS_23ParameterEventInterfaceEEclEPS1_.exit.i.i
	@DEBUG_VALUE: operator():p <- %R0
	@DEBUG_VALUE: reset:old <- %R0
	mov	r1, #0
	.loc	43 105 9 is_stmt 1      @ /root/Bela/projects/RNBO-KPStrong/rnbo/common/RNBO_UniquePtr.h:105:9
	str	r1, [r4, #12]
.Ltmp222:
	.loc	43 28 4 discriminator 1 @ /root/Bela/projects/RNBO-KPStrong/rnbo/common/RNBO_UniquePtr.h:28:4
	ldr	r1, [r0]
	ldr	r1, [r1, #48]
	blx	r1
.Ltmp223:
.LBB3_30:                               @ %_ZN4RNBO9UniquePtrINS_23ParameterEventInterfaceENS_14default_deleteIS1_EEED2Ev.exit
	.loc	43 102 15               @ /root/Bela/projects/RNBO-KPStrong/rnbo/common/RNBO_UniquePtr.h:102:15
	ldr	r0, [r6]
.Ltmp224:
	@DEBUG_VALUE: reset:old <- %R0
	@DEBUG_VALUE: operator():p <- %R0
	.loc	43 102 8 is_stmt 0      @ /root/Bela/projects/RNBO-KPStrong/rnbo/common/RNBO_UniquePtr.h:102:8
	cmp	r0, #0
	beq	.LBB3_32
.Ltmp225:
@ BB#31:                                @ %_ZNK4RNBO14default_deleteINS_6EngineEEclEPS1_.exit.i.i
	@DEBUG_VALUE: operator():p <- %R0
	@DEBUG_VALUE: reset:old <- %R0
	mov	r1, #0
	.loc	43 105 9 is_stmt 1      @ /root/Bela/projects/RNBO-KPStrong/rnbo/common/RNBO_UniquePtr.h:105:9
	str	r1, [r6]
.Ltmp226:
	.loc	43 28 4 discriminator 1 @ /root/Bela/projects/RNBO-KPStrong/rnbo/common/RNBO_UniquePtr.h:28:4
	ldr	r1, [r0]
	ldr	r1, [r1, #88]
	blx	r1
.Ltmp227:
.LBB3_32:                               @ %_ZN4RNBO9UniquePtrINS_6EngineENS_14default_deleteIS1_EEED2Ev.exit
	mov	r0, r5
	mov	lr, pc
	b	_Unwind_Resume
.Lfunc_end3:
	.size	_ZN4RNBO10CoreObjectC2ENS_9UniquePtrINS_16PatcherInterfaceENS_14default_deleteIS2_EEEEPNS_12EventHandlerE, .Lfunc_end3-_ZN4RNBO10CoreObjectC2ENS_9UniquePtrINS_16PatcherInterfaceENS_14default_deleteIS2_EEEEPNS_12EventHandlerE
	.cfi_endproc
	.globl	__gxx_personality_v0
	.personality __gxx_personality_v0
	.handlerdata
	.p2align	2
GCC_except_table3:
.Lexception3:
	.byte	255                     @ @LPStart Encoding = omit
	.byte	0                       @ @TType Encoding = absptr
	.byte	73                      @ @TType base offset
	.byte	3                       @ Call site Encoding = udata4
	.byte	65                      @ Call site table length
	.long	.Ltmp142-.Lfunc_begin3  @ >> Call Site 1 <<
	.long	.Ltmp143-.Ltmp142       @   Call between .Ltmp142 and .Ltmp143
	.long	.Ltmp144-.Lfunc_begin3  @     jumps to .Ltmp144
	.byte	0                       @   On action: cleanup
	.long	.Ltmp145-.Lfunc_begin3  @ >> Call Site 2 <<
	.long	.Ltmp146-.Ltmp145       @   Call between .Ltmp145 and .Ltmp146
	.long	.Ltmp147-.Lfunc_begin3  @     jumps to .Ltmp147
	.byte	0                       @   On action: cleanup
	.long	.Ltmp151-.Lfunc_begin3  @ >> Call Site 3 <<
	.long	.Ltmp152-.Ltmp151       @   Call between .Ltmp151 and .Ltmp152
	.long	.Ltmp153-.Lfunc_begin3  @     jumps to .Ltmp153
	.byte	1                       @   On action: 1
	.long	.Ltmp148-.Lfunc_begin3  @ >> Call Site 4 <<
	.long	.Ltmp149-.Ltmp148       @   Call between .Ltmp148 and .Ltmp149
	.long	.Ltmp150-.Lfunc_begin3  @     jumps to .Ltmp150
	.byte	1                       @   On action: 1
	.long	.Ltmp149-.Lfunc_begin3  @ >> Call Site 5 <<
	.long	.Lfunc_end3-.Ltmp149    @   Call between .Ltmp149 and .Lfunc_end3
	.long	0                       @     has no landing pad
	.byte	0                       @   On action: cleanup
	.byte	1                       @ >> Action Record 1 <<
                                        @   Catch TypeInfo 1
	.byte	0                       @   No further actions
                                        @ >> Catch TypeInfos <<
	.long	0                       @ TypeInfo 1
	.p2align	2
	.fnend

	.globl	_ZN4RNBO10CoreObject10setPatcherENS_9UniquePtrINS_16PatcherInterfaceENS_14default_deleteIS2_EEEE
	.p2align	2
	.type	_ZN4RNBO10CoreObject10setPatcherENS_9UniquePtrINS_16PatcherInterfaceENS_14default_deleteIS2_EEEE,%function
_ZN4RNBO10CoreObject10setPatcherENS_9UniquePtrINS_16PatcherInterfaceENS_14default_deleteIS2_EEEE: @ @_ZN4RNBO10CoreObject10setPatcherENS_9UniquePtrINS_16PatcherInterfaceENS_14default_deleteIS2_EEEE
.Lfunc_begin4:
	.loc	71 318 0                @ /root/Bela/projects/RNBO-KPStrong/rnbo/src/RNBO_CoreObject.cpp:318:0
	.fnstart
	.cfi_startproc
@ BB#0:
	.save	{r4, r10, r11, lr}
	push	{r4, r10, r11, lr}
.Ltmp237:
	.cfi_def_cfa_offset 16
.Ltmp238:
	.cfi_offset lr, -4
.Ltmp239:
	.cfi_offset r11, -8
.Ltmp240:
	.cfi_offset r10, -12
.Ltmp241:
	.cfi_offset r4, -16
	.setfp	r11, sp, #8
	add	r11, sp, #8
.Ltmp242:
	.cfi_def_cfa r11, 8
	.pad	#8
	sub	sp, sp, #8
	@DEBUG_VALUE: setPatcher:this <- %R0
	@DEBUG_VALUE: setPatcher:patcher <- [%R1+0]
.Ltmp243:
	.loc	43 126 34 prologue_end  @ /root/Bela/projects/RNBO-KPStrong/rnbo/common/RNBO_UniquePtr.h:126:34
	ldr	r0, [r0, #8]
.Ltmp244:
	.loc	43 79 17                @ /root/Bela/projects/RNBO-KPStrong/rnbo/common/RNBO_UniquePtr.h:79:17
	ldr	r3, [r1]
.Ltmp245:
	.loc	71 319 19               @ /root/Bela/projects/RNBO-KPStrong/rnbo/src/RNBO_CoreObject.cpp:319:19
	ldr	r2, [r0]
.Ltmp246:
	@DEBUG_VALUE: UniquePtr:other <- %R1
	ldr	r2, [r2, #136]
.Ltmp247:
	.loc	43 79 9                 @ /root/Bela/projects/RNBO-KPStrong/rnbo/common/RNBO_UniquePtr.h:79:9
	str	r3, [sp, #4]
	mov	r3, #0
	.loc	43 80 15                @ /root/Bela/projects/RNBO-KPStrong/rnbo/common/RNBO_UniquePtr.h:80:15
	str	r3, [r1]
.Ltmp248:
	.loc	71 319 19               @ /root/Bela/projects/RNBO-KPStrong/rnbo/src/RNBO_CoreObject.cpp:319:19
.Ltmp228:
	add	r1, sp, #4
.Ltmp249:
	@DEBUG_VALUE: UniquePtr:this <- %R1
	blx	r2
.Ltmp250:
	mov	r4, r0
.Ltmp229:
@ BB#1:
.Ltmp251:
	.loc	43 102 15               @ /root/Bela/projects/RNBO-KPStrong/rnbo/common/RNBO_UniquePtr.h:102:15
	ldr	r0, [sp, #4]
.Ltmp252:
	@DEBUG_VALUE: reset:old <- %R0
	@DEBUG_VALUE: operator():pi <- %R0
	.loc	43 102 8 is_stmt 0      @ /root/Bela/projects/RNBO-KPStrong/rnbo/common/RNBO_UniquePtr.h:102:8
	cmp	r0, #0
	beq	.LBB4_3
.Ltmp253:
@ BB#2:
	@DEBUG_VALUE: operator():pi <- %R0
	@DEBUG_VALUE: reset:old <- %R0
	mov	r1, #0
	.loc	43 105 9 is_stmt 1      @ /root/Bela/projects/RNBO-KPStrong/rnbo/common/RNBO_UniquePtr.h:105:9
	str	r1, [sp, #4]
.Ltmp254:
	.loc	77 97 8                 @ /root/Bela/projects/RNBO-KPStrong/rnbo/common/RNBO_PatcherInterface.h:97:8
	ldr	r1, [r0]
	ldr	r1, [r1, #80]
.Ltmp234:
	blx	r1
.Ltmp255:
.Ltmp235:
.Ltmp256:
.LBB4_3:                                @ %_ZN4RNBO9UniquePtrINS_16PatcherInterfaceENS_14default_deleteIS1_EEED2Ev.exit2
	.loc	71 319 3 discriminator 1 @ /root/Bela/projects/RNBO-KPStrong/rnbo/src/RNBO_CoreObject.cpp:319:3
	mov	r0, r4
	sub	sp, r11, #8
	pop	{r4, r10, r11, pc}
.LBB4_4:
.Ltmp236:
.Ltmp257:
	.loc	43 96 18 discriminator 2 @ /root/Bela/projects/RNBO-KPStrong/rnbo/common/RNBO_UniquePtr.h:96:18
	mov	lr, pc
	b	__clang_call_terminate
.Ltmp258:
.LBB4_5:
.Ltmp230:
	mov	r4, r0
.Ltmp259:
	.loc	43 102 15               @ /root/Bela/projects/RNBO-KPStrong/rnbo/common/RNBO_UniquePtr.h:102:15
	ldr	r0, [sp, #4]
.Ltmp260:
	@DEBUG_VALUE: reset:old <- %R0
	@DEBUG_VALUE: operator():pi <- %R0
	.loc	43 102 8 is_stmt 0      @ /root/Bela/projects/RNBO-KPStrong/rnbo/common/RNBO_UniquePtr.h:102:8
	cmp	r0, #0
	beq	.LBB4_7
.Ltmp261:
@ BB#6:
	@DEBUG_VALUE: operator():pi <- %R0
	@DEBUG_VALUE: reset:old <- %R0
	mov	r1, #0
	.loc	43 105 9 is_stmt 1      @ /root/Bela/projects/RNBO-KPStrong/rnbo/common/RNBO_UniquePtr.h:105:9
	str	r1, [sp, #4]
.Ltmp262:
	.loc	77 97 8                 @ /root/Bela/projects/RNBO-KPStrong/rnbo/common/RNBO_PatcherInterface.h:97:8
	ldr	r1, [r0]
	ldr	r1, [r1, #80]
.Ltmp231:
	blx	r1
.Ltmp263:
.Ltmp232:
.Ltmp264:
.LBB4_7:                                @ %_ZN4RNBO9UniquePtrINS_16PatcherInterfaceENS_14default_deleteIS1_EEED2Ev.exit
	mov	r0, r4
	mov	lr, pc
	b	_Unwind_Resume
.LBB4_8:
.Ltmp233:
	.loc	43 96 18 discriminator 2 @ /root/Bela/projects/RNBO-KPStrong/rnbo/common/RNBO_UniquePtr.h:96:18
	mov	lr, pc
	b	__clang_call_terminate
.Ltmp265:
.Lfunc_end4:
	.size	_ZN4RNBO10CoreObject10setPatcherENS_9UniquePtrINS_16PatcherInterfaceENS_14default_deleteIS2_EEEE, .Lfunc_end4-_ZN4RNBO10CoreObject10setPatcherENS_9UniquePtrINS_16PatcherInterfaceENS_14default_deleteIS2_EEEE
	.cfi_endproc
	.globl	__gxx_personality_v0
	.personality __gxx_personality_v0
	.handlerdata
	.p2align	2
GCC_except_table4:
.Lexception4:
	.byte	255                     @ @LPStart Encoding = omit
	.byte	0                       @ @TType Encoding = absptr
	.asciz	"\274"                  @ @TType base offset
	.byte	3                       @ Call site Encoding = udata4
	.byte	52                      @ Call site table length
	.long	.Ltmp228-.Lfunc_begin4  @ >> Call Site 1 <<
	.long	.Ltmp229-.Ltmp228       @   Call between .Ltmp228 and .Ltmp229
	.long	.Ltmp230-.Lfunc_begin4  @     jumps to .Ltmp230
	.byte	0                       @   On action: cleanup
	.long	.Ltmp234-.Lfunc_begin4  @ >> Call Site 2 <<
	.long	.Ltmp235-.Ltmp234       @   Call between .Ltmp234 and .Ltmp235
	.long	.Ltmp236-.Lfunc_begin4  @     jumps to .Ltmp236
	.byte	1                       @   On action: 1
	.long	.Ltmp231-.Lfunc_begin4  @ >> Call Site 3 <<
	.long	.Ltmp232-.Ltmp231       @   Call between .Ltmp231 and .Ltmp232
	.long	.Ltmp233-.Lfunc_begin4  @     jumps to .Ltmp233
	.byte	1                       @   On action: 1
	.long	.Ltmp232-.Lfunc_begin4  @ >> Call Site 4 <<
	.long	.Lfunc_end4-.Ltmp232    @   Call between .Ltmp232 and .Lfunc_end4
	.long	0                       @     has no landing pad
	.byte	0                       @   On action: cleanup
	.byte	1                       @ >> Action Record 1 <<
                                        @   Catch TypeInfo 1
	.byte	0                       @   No further actions
                                        @ >> Catch TypeInfos <<
	.long	0                       @ TypeInfo 1
	.p2align	2
	.fnend

	.globl	_ZN4RNBO10CoreObjectD2Ev
	.p2align	2
	.type	_ZN4RNBO10CoreObjectD2Ev,%function
_ZN4RNBO10CoreObjectD2Ev:               @ @_ZN4RNBO10CoreObjectD2Ev
.Lfunc_begin5:
	.loc	71 36 0                 @ /root/Bela/projects/RNBO-KPStrong/rnbo/src/RNBO_CoreObject.cpp:36:0
	.fnstart
	.cfi_startproc
@ BB#0:
	.save	{r4, r5, r11, lr}
	push	{r4, r5, r11, lr}
.Ltmp266:
	.cfi_def_cfa_offset 16
.Ltmp267:
	.cfi_offset lr, -4
.Ltmp268:
	.cfi_offset r11, -8
.Ltmp269:
	.cfi_offset r5, -12
.Ltmp270:
	.cfi_offset r4, -16
	.setfp	r11, sp, #8
	add	r11, sp, #8
.Ltmp271:
	.cfi_def_cfa r11, 8
	@DEBUG_VALUE: ~CoreObject:this <- %R0
	mov	r4, r0
.Ltmp272:
	@DEBUG_VALUE: ~CoreObject:this <- %R4
	.loc	71 36 2 prologue_end    @ /root/Bela/projects/RNBO-KPStrong/rnbo/src/RNBO_CoreObject.cpp:36:2
	movw	r0, :lower16:_ZTVN4RNBO10CoreObjectE
	movt	r0, :upper16:_ZTVN4RNBO10CoreObjectE
	add	r1, r0, #8
	add	r0, r0, #96
	str	r1, [r4]
	str	r0, [r4, #4]
.Ltmp273:
	.loc	72 54 8                 @ /root/Bela/projects/RNBO-KPStrong/rnbo/src/RNBO_AudioBufferConverter.h:54:8
	ldr	r0, [r4, #36]
.Ltmp274:
	.loc	72 54 8 is_stmt 0       @ /root/Bela/projects/RNBO-KPStrong/rnbo/src/RNBO_AudioBufferConverter.h:54:8
	cmp	r0, #0
	beq	.LBB5_9
.Ltmp275:
@ BB#1:                                 @ %.preheader.i.i
	@DEBUG_VALUE: ~CoreObject:this <- %R4
	.loc	72 55 28 is_stmt 1 discriminator 1 @ /root/Bela/projects/RNBO-KPStrong/rnbo/src/RNBO_AudioBufferConverter.h:55:28
	ldr	r2, [r4, #28]
	.loc	72 55 5 is_stmt 0 discriminator 1 @ /root/Bela/projects/RNBO-KPStrong/rnbo/src/RNBO_AudioBufferConverter.h:55:5
	cmp	r2, #0
	beq	.LBB5_7
.Ltmp276:
@ BB#2:                                 @ %.lr.ph.i.i.preheader
	@DEBUG_VALUE: ~CoreObject:this <- %R4
	mov	r5, #0
.Ltmp277:
.LBB5_3:                                @ %.lr.ph.i.i
                                        @ =>This Inner Loop Header: Depth=1
	.loc	72 56 13 is_stmt 1      @ /root/Bela/projects/RNBO-KPStrong/rnbo/src/RNBO_AudioBufferConverter.h:56:13
	ldr	r1, [r0, r5, lsl #2]
	.loc	72 56 6 is_stmt 0       @ /root/Bela/projects/RNBO-KPStrong/rnbo/src/RNBO_AudioBufferConverter.h:56:6
	cmp	r1, #0
	beq	.LBB5_5
@ BB#4:                                 @   in Loop: Header=BB5_3 Depth=1
	.loc	72 56 6 discriminator 1 @ /root/Bela/projects/RNBO-KPStrong/rnbo/src/RNBO_AudioBufferConverter.h:56:6
	mov	r0, r1
	bl	_ZdlPv
.Ltmp278:
	.loc	72 55 28 is_stmt 1 discriminator 1 @ /root/Bela/projects/RNBO-KPStrong/rnbo/src/RNBO_AudioBufferConverter.h:55:28
	ldr	r2, [r4, #28]
.Ltmp279:
	.loc	72 56 13                @ /root/Bela/projects/RNBO-KPStrong/rnbo/src/RNBO_AudioBufferConverter.h:56:13
	ldr	r0, [r4, #36]
.Ltmp280:
.LBB5_5:                                @   in Loop: Header=BB5_3 Depth=1
	.loc	72 55 43 discriminator 3 @ /root/Bela/projects/RNBO-KPStrong/rnbo/src/RNBO_AudioBufferConverter.h:55:43
	add	r5, r5, #1
.Ltmp281:
	@DEBUG_VALUE: i <- %R5
	.loc	72 55 5 is_stmt 0 discriminator 1 @ /root/Bela/projects/RNBO-KPStrong/rnbo/src/RNBO_AudioBufferConverter.h:55:5
	cmp	r5, r2
	blo	.LBB5_3
.Ltmp282:
@ BB#6:                                 @ %._crit_edge.i.i
	@DEBUG_VALUE: i <- %R5
	.loc	72 58 5 is_stmt 1       @ /root/Bela/projects/RNBO-KPStrong/rnbo/src/RNBO_AudioBufferConverter.h:58:5
	cmp	r0, #0
	beq	.LBB5_8
.Ltmp283:
.LBB5_7:                                @ %._crit_edge.thread.i.i
	.loc	72 58 5 is_stmt 0 discriminator 1 @ /root/Bela/projects/RNBO-KPStrong/rnbo/src/RNBO_AudioBufferConverter.h:58:5
	bl	_ZdlPv
.LBB5_8:
	.loc	72 59 23 is_stmt 1      @ /root/Bela/projects/RNBO-KPStrong/rnbo/src/RNBO_AudioBufferConverter.h:59:23
	mov	r0, #0
	str	r0, [r4, #36]
.Ltmp284:
.LBB5_9:                                @ %_ZN4RNBO24AudioBufferConverterDataD2Ev.exit
	.loc	72 54 8                 @ /root/Bela/projects/RNBO-KPStrong/rnbo/src/RNBO_AudioBufferConverter.h:54:8
	ldr	r0, [r4, #24]
.Ltmp285:
	.loc	72 54 8 is_stmt 0       @ /root/Bela/projects/RNBO-KPStrong/rnbo/src/RNBO_AudioBufferConverter.h:54:8
	cmp	r0, #0
	beq	.LBB5_18
@ BB#10:                                @ %.preheader.i.i1
.Ltmp286:
	.loc	72 55 28 is_stmt 1 discriminator 1 @ /root/Bela/projects/RNBO-KPStrong/rnbo/src/RNBO_AudioBufferConverter.h:55:28
	ldr	r2, [r4, #16]
	.loc	72 55 5 is_stmt 0 discriminator 1 @ /root/Bela/projects/RNBO-KPStrong/rnbo/src/RNBO_AudioBufferConverter.h:55:5
	cmp	r2, #0
	beq	.LBB5_16
@ BB#11:                                @ %.lr.ph.i.i4.preheader
	mov	r5, #0
.LBB5_12:                               @ %.lr.ph.i.i4
                                        @ =>This Inner Loop Header: Depth=1
.Ltmp287:
	.loc	72 56 13 is_stmt 1      @ /root/Bela/projects/RNBO-KPStrong/rnbo/src/RNBO_AudioBufferConverter.h:56:13
	ldr	r1, [r0, r5, lsl #2]
	.loc	72 56 6 is_stmt 0       @ /root/Bela/projects/RNBO-KPStrong/rnbo/src/RNBO_AudioBufferConverter.h:56:6
	cmp	r1, #0
	beq	.LBB5_14
@ BB#13:                                @   in Loop: Header=BB5_12 Depth=1
	.loc	72 56 6 discriminator 1 @ /root/Bela/projects/RNBO-KPStrong/rnbo/src/RNBO_AudioBufferConverter.h:56:6
	mov	r0, r1
	bl	_ZdlPv
.Ltmp288:
	.loc	72 55 28 is_stmt 1 discriminator 1 @ /root/Bela/projects/RNBO-KPStrong/rnbo/src/RNBO_AudioBufferConverter.h:55:28
	ldr	r2, [r4, #16]
.Ltmp289:
	.loc	72 56 13                @ /root/Bela/projects/RNBO-KPStrong/rnbo/src/RNBO_AudioBufferConverter.h:56:13
	ldr	r0, [r4, #24]
.Ltmp290:
.LBB5_14:                               @   in Loop: Header=BB5_12 Depth=1
	.loc	72 55 43 discriminator 3 @ /root/Bela/projects/RNBO-KPStrong/rnbo/src/RNBO_AudioBufferConverter.h:55:43
	add	r5, r5, #1
.Ltmp291:
	@DEBUG_VALUE: i <- %R5
	.loc	72 55 5 is_stmt 0 discriminator 1 @ /root/Bela/projects/RNBO-KPStrong/rnbo/src/RNBO_AudioBufferConverter.h:55:5
	cmp	r5, r2
	blo	.LBB5_12
.Ltmp292:
@ BB#15:                                @ %._crit_edge.i.i2
	@DEBUG_VALUE: i <- %R5
	.loc	72 58 5 is_stmt 1       @ /root/Bela/projects/RNBO-KPStrong/rnbo/src/RNBO_AudioBufferConverter.h:58:5
	cmp	r0, #0
	beq	.LBB5_17
.Ltmp293:
.LBB5_16:                               @ %._crit_edge.thread.i.i9
	.loc	72 58 5 is_stmt 0 discriminator 1 @ /root/Bela/projects/RNBO-KPStrong/rnbo/src/RNBO_AudioBufferConverter.h:58:5
	bl	_ZdlPv
.LBB5_17:
	.loc	72 59 23 is_stmt 1      @ /root/Bela/projects/RNBO-KPStrong/rnbo/src/RNBO_AudioBufferConverter.h:59:23
	mov	r0, #0
	str	r0, [r4, #24]
.Ltmp294:
.LBB5_18:                               @ %_ZN4RNBO24AudioBufferConverterDataD2Ev.exit10
	.loc	43 102 15               @ /root/Bela/projects/RNBO-KPStrong/rnbo/common/RNBO_UniquePtr.h:102:15
	ldr	r0, [r4, #12]
.Ltmp295:
	@DEBUG_VALUE: reset:old <- %R0
	@DEBUG_VALUE: operator():p <- %R0
	.loc	43 102 8 is_stmt 0      @ /root/Bela/projects/RNBO-KPStrong/rnbo/common/RNBO_UniquePtr.h:102:8
	cmp	r0, #0
	beq	.LBB5_20
.Ltmp296:
@ BB#19:                                @ %_ZNK4RNBO14default_deleteINS_23ParameterEventInterfaceEEclEPS1_.exit.i.i
	@DEBUG_VALUE: operator():p <- %R0
	@DEBUG_VALUE: reset:old <- %R0
	mov	r1, #0
	.loc	43 105 9 is_stmt 1      @ /root/Bela/projects/RNBO-KPStrong/rnbo/common/RNBO_UniquePtr.h:105:9
	str	r1, [r4, #12]
.Ltmp297:
	.loc	43 28 4 discriminator 1 @ /root/Bela/projects/RNBO-KPStrong/rnbo/common/RNBO_UniquePtr.h:28:4
	ldr	r1, [r0]
	ldr	r1, [r1, #48]
	blx	r1
.Ltmp298:
.LBB5_20:                               @ %_ZN4RNBO9UniquePtrINS_23ParameterEventInterfaceENS_14default_deleteIS1_EEED2Ev.exit
	.loc	43 102 15               @ /root/Bela/projects/RNBO-KPStrong/rnbo/common/RNBO_UniquePtr.h:102:15
	ldr	r0, [r4, #8]
.Ltmp299:
	@DEBUG_VALUE: reset:old <- %R0
	@DEBUG_VALUE: operator():p <- %R0
	.loc	43 102 8 is_stmt 0      @ /root/Bela/projects/RNBO-KPStrong/rnbo/common/RNBO_UniquePtr.h:102:8
	cmp	r0, #0
	beq	.LBB5_22
.Ltmp300:
@ BB#21:                                @ %_ZNK4RNBO14default_deleteINS_6EngineEEclEPS1_.exit.i.i
	@DEBUG_VALUE: operator():p <- %R0
	@DEBUG_VALUE: reset:old <- %R0
	mov	r1, #0
	.loc	43 105 9 is_stmt 1      @ /root/Bela/projects/RNBO-KPStrong/rnbo/common/RNBO_UniquePtr.h:105:9
	str	r1, [r4, #8]
.Ltmp301:
	.loc	43 28 4 discriminator 1 @ /root/Bela/projects/RNBO-KPStrong/rnbo/common/RNBO_UniquePtr.h:28:4
	ldr	r1, [r0]
	ldr	r1, [r1, #88]
	blx	r1
.Ltmp302:
.LBB5_22:                               @ %_ZN4RNBO9UniquePtrINS_6EngineENS_14default_deleteIS1_EEED2Ev.exit
	.loc	71 38 2                 @ /root/Bela/projects/RNBO-KPStrong/rnbo/src/RNBO_CoreObject.cpp:38:2
	mov	r0, r4
	pop	{r4, r5, r11, pc}
.Ltmp303:
.Lfunc_end5:
	.size	_ZN4RNBO10CoreObjectD2Ev, .Lfunc_end5-_ZN4RNBO10CoreObjectD2Ev
	.cfi_endproc
	.fnend

	.globl	_ZN4RNBO10CoreObjectD0Ev
	.p2align	2
	.type	_ZN4RNBO10CoreObjectD0Ev,%function
_ZN4RNBO10CoreObjectD0Ev:               @ @_ZN4RNBO10CoreObjectD0Ev
.Lfunc_begin6:
	.loc	71 36 0                 @ /root/Bela/projects/RNBO-KPStrong/rnbo/src/RNBO_CoreObject.cpp:36:0
	.fnstart
	.cfi_startproc
@ BB#0:
	.save	{r4, r10, r11, lr}
	push	{r4, r10, r11, lr}
.Ltmp304:
	.cfi_def_cfa_offset 16
.Ltmp305:
	.cfi_offset lr, -4
.Ltmp306:
	.cfi_offset r11, -8
.Ltmp307:
	.cfi_offset r10, -12
.Ltmp308:
	.cfi_offset r4, -16
	.setfp	r11, sp, #8
	add	r11, sp, #8
.Ltmp309:
	.cfi_def_cfa r11, 8
	@DEBUG_VALUE: ~CoreObject:this <- %R0
	mov	r4, r0
.Ltmp310:
	@DEBUG_VALUE: ~CoreObject:this <- %R4
	.loc	71 36 2 prologue_end    @ /root/Bela/projects/RNBO-KPStrong/rnbo/src/RNBO_CoreObject.cpp:36:2
	bl	_ZN4RNBO10CoreObjectD2Ev
	.loc	71 36 2 is_stmt 0 discriminator 1 @ /root/Bela/projects/RNBO-KPStrong/rnbo/src/RNBO_CoreObject.cpp:36:2
	mov	r0, r4
	pop	{r4, r10, r11, lr}
.Ltmp311:
	b	_ZdlPv
.Ltmp312:
.Lfunc_end6:
	.size	_ZN4RNBO10CoreObjectD0Ev, .Lfunc_end6-_ZN4RNBO10CoreObjectD0Ev
	.cfi_endproc
	.fnend

	.globl	_ZNK4RNBO10CoreObject16getNumParametersEv
	.p2align	2
	.type	_ZNK4RNBO10CoreObject16getNumParametersEv,%function
_ZNK4RNBO10CoreObject16getNumParametersEv: @ @_ZNK4RNBO10CoreObject16getNumParametersEv
.Lfunc_begin7:
	.loc	71 41 0 is_stmt 1       @ /root/Bela/projects/RNBO-KPStrong/rnbo/src/RNBO_CoreObject.cpp:41:0
	.fnstart
	.cfi_startproc
@ BB#0:
	@DEBUG_VALUE: getNumParameters:this <- %R0
	.loc	43 126 34 prologue_end  @ /root/Bela/projects/RNBO-KPStrong/rnbo/common/RNBO_UniquePtr.h:126:34
	ldr	r0, [r0, #8]
.Ltmp313:
	.loc	71 42 19                @ /root/Bela/projects/RNBO-KPStrong/rnbo/src/RNBO_CoreObject.cpp:42:19
	ldr	r1, [r0]
	ldr	r1, [r1, #100]
	.loc	71 42 19 is_stmt 0 discriminator 1 @ /root/Bela/projects/RNBO-KPStrong/rnbo/src/RNBO_CoreObject.cpp:42:19
	bx	r1
.Ltmp314:
.Lfunc_end7:
	.size	_ZNK4RNBO10CoreObject16getNumParametersEv, .Lfunc_end7-_ZNK4RNBO10CoreObject16getNumParametersEv
	.cfi_endproc
	.fnend

	.globl	_ZNK4RNBO10CoreObject16getParameterNameEj
	.p2align	2
	.type	_ZNK4RNBO10CoreObject16getParameterNameEj,%function
_ZNK4RNBO10CoreObject16getParameterNameEj: @ @_ZNK4RNBO10CoreObject16getParameterNameEj
.Lfunc_begin8:
	.loc	71 46 0 is_stmt 1       @ /root/Bela/projects/RNBO-KPStrong/rnbo/src/RNBO_CoreObject.cpp:46:0
	.fnstart
	.cfi_startproc
@ BB#0:
	@DEBUG_VALUE: getParameterName:this <- %R0
	@DEBUG_VALUE: getParameterName:index <- %R1
	.loc	43 126 34 prologue_end  @ /root/Bela/projects/RNBO-KPStrong/rnbo/common/RNBO_UniquePtr.h:126:34
	ldr	r0, [r0, #8]
.Ltmp315:
	.loc	71 47 19                @ /root/Bela/projects/RNBO-KPStrong/rnbo/src/RNBO_CoreObject.cpp:47:19
	ldr	r2, [r0]
	ldr	r2, [r2, #104]
	.loc	71 47 19 is_stmt 0 discriminator 1 @ /root/Bela/projects/RNBO-KPStrong/rnbo/src/RNBO_CoreObject.cpp:47:19
	bx	r2
.Ltmp316:
.Lfunc_end8:
	.size	_ZNK4RNBO10CoreObject16getParameterNameEj, .Lfunc_end8-_ZNK4RNBO10CoreObject16getParameterNameEj
	.cfi_endproc
	.fnend

	.globl	_ZNK4RNBO10CoreObject14getParameterIdEj
	.p2align	2
	.type	_ZNK4RNBO10CoreObject14getParameterIdEj,%function
_ZNK4RNBO10CoreObject14getParameterIdEj: @ @_ZNK4RNBO10CoreObject14getParameterIdEj
.Lfunc_begin9:
	.loc	71 51 0 is_stmt 1       @ /root/Bela/projects/RNBO-KPStrong/rnbo/src/RNBO_CoreObject.cpp:51:0
	.fnstart
	.cfi_startproc
@ BB#0:
	@DEBUG_VALUE: getParameterId:this <- %R0
	@DEBUG_VALUE: getParameterId:index <- %R1
	.loc	43 126 34 prologue_end  @ /root/Bela/projects/RNBO-KPStrong/rnbo/common/RNBO_UniquePtr.h:126:34
	ldr	r0, [r0, #8]
.Ltmp317:
	.loc	71 52 19                @ /root/Bela/projects/RNBO-KPStrong/rnbo/src/RNBO_CoreObject.cpp:52:19
	ldr	r2, [r0]
	ldr	r2, [r2, #108]
	.loc	71 52 19 is_stmt 0 discriminator 1 @ /root/Bela/projects/RNBO-KPStrong/rnbo/src/RNBO_CoreObject.cpp:52:19
	bx	r2
.Ltmp318:
.Lfunc_end9:
	.size	_ZNK4RNBO10CoreObject14getParameterIdEj, .Lfunc_end9-_ZNK4RNBO10CoreObject14getParameterIdEj
	.cfi_endproc
	.fnend

	.globl	_ZNK4RNBO10CoreObject16getParameterInfoEjPNS_13ParameterInfoE
	.p2align	2
	.type	_ZNK4RNBO10CoreObject16getParameterInfoEjPNS_13ParameterInfoE,%function
_ZNK4RNBO10CoreObject16getParameterInfoEjPNS_13ParameterInfoE: @ @_ZNK4RNBO10CoreObject16getParameterInfoEjPNS_13ParameterInfoE
.Lfunc_begin10:
	.loc	71 56 0 is_stmt 1       @ /root/Bela/projects/RNBO-KPStrong/rnbo/src/RNBO_CoreObject.cpp:56:0
	.fnstart
	.cfi_startproc
@ BB#0:
	@DEBUG_VALUE: getParameterInfo:this <- %R0
	@DEBUG_VALUE: getParameterInfo:index <- %R1
	@DEBUG_VALUE: getParameterInfo:info <- %R2
	.loc	43 126 34 prologue_end  @ /root/Bela/projects/RNBO-KPStrong/rnbo/common/RNBO_UniquePtr.h:126:34
	ldr	r0, [r0, #8]
.Ltmp319:
	.loc	71 57 12                @ /root/Bela/projects/RNBO-KPStrong/rnbo/src/RNBO_CoreObject.cpp:57:12
	ldr	r3, [r0]
	ldr	r3, [r3, #112]
	.loc	71 57 12 is_stmt 0 discriminator 1 @ /root/Bela/projects/RNBO-KPStrong/rnbo/src/RNBO_CoreObject.cpp:57:12
	bx	r3
.Ltmp320:
.Lfunc_end10:
	.size	_ZNK4RNBO10CoreObject16getParameterInfoEjPNS_13ParameterInfoE, .Lfunc_end10-_ZNK4RNBO10CoreObject16getParameterInfoEjPNS_13ParameterInfoE
	.cfi_endproc
	.fnend

	.globl	_ZN4RNBO10CoreObject17getParameterValueEj
	.p2align	2
	.type	_ZN4RNBO10CoreObject17getParameterValueEj,%function
_ZN4RNBO10CoreObject17getParameterValueEj: @ @_ZN4RNBO10CoreObject17getParameterValueEj
.Lfunc_begin11:
	.loc	71 61 0 is_stmt 1       @ /root/Bela/projects/RNBO-KPStrong/rnbo/src/RNBO_CoreObject.cpp:61:0
	.fnstart
	.cfi_startproc
@ BB#0:
	@DEBUG_VALUE: getParameterValue:this <- %R0
	@DEBUG_VALUE: getParameterValue:index <- %R1
	.loc	43 126 34 prologue_end  @ /root/Bela/projects/RNBO-KPStrong/rnbo/common/RNBO_UniquePtr.h:126:34
	ldr	r0, [r0, #12]
.Ltmp321:
	.loc	71 62 31                @ /root/Bela/projects/RNBO-KPStrong/rnbo/src/RNBO_CoreObject.cpp:62:31
	ldr	r2, [r0]
	ldr	r2, [r2, #16]
	.loc	71 62 31 is_stmt 0 discriminator 1 @ /root/Bela/projects/RNBO-KPStrong/rnbo/src/RNBO_CoreObject.cpp:62:31
	bx	r2
.Ltmp322:
.Lfunc_end11:
	.size	_ZN4RNBO10CoreObject17getParameterValueEj, .Lfunc_end11-_ZN4RNBO10CoreObject17getParameterValueEj
	.cfi_endproc
	.fnend

	.globl	_ZN4RNBO10CoreObject17setParameterValueEjff
	.p2align	2
	.type	_ZN4RNBO10CoreObject17setParameterValueEjff,%function
_ZN4RNBO10CoreObject17setParameterValueEjff: @ @_ZN4RNBO10CoreObject17setParameterValueEjff
.Lfunc_begin12:
	.loc	71 66 0 is_stmt 1       @ /root/Bela/projects/RNBO-KPStrong/rnbo/src/RNBO_CoreObject.cpp:66:0
	.fnstart
	.cfi_startproc
@ BB#0:
	@DEBUG_VALUE: setParameterValue:this <- %R0
	@DEBUG_VALUE: setParameterValue:index <- %R1
	@DEBUG_VALUE: setParameterValue:value <- %S0
	@DEBUG_VALUE: setParameterValue:time <- %S1
	.loc	43 126 34 prologue_end  @ /root/Bela/projects/RNBO-KPStrong/rnbo/common/RNBO_UniquePtr.h:126:34
	ldr	r0, [r0, #12]
.Ltmp323:
	.loc	71 67 24                @ /root/Bela/projects/RNBO-KPStrong/rnbo/src/RNBO_CoreObject.cpp:67:24
	ldr	r2, [r0]
	ldr	r2, [r2, #20]
	.loc	71 67 24 is_stmt 0 discriminator 1 @ /root/Bela/projects/RNBO-KPStrong/rnbo/src/RNBO_CoreObject.cpp:67:24
	bx	r2
.Ltmp324:
.Lfunc_end12:
	.size	_ZN4RNBO10CoreObject17setParameterValueEjff, .Lfunc_end12-_ZN4RNBO10CoreObject17setParameterValueEjff
	.cfi_endproc
	.fnend

	.globl	_ZN4RNBO10CoreObject27setParameterValueNormalizedEjff
	.p2align	2
	.type	_ZN4RNBO10CoreObject27setParameterValueNormalizedEjff,%function
_ZN4RNBO10CoreObject27setParameterValueNormalizedEjff: @ @_ZN4RNBO10CoreObject27setParameterValueNormalizedEjff
.Lfunc_begin13:
	.loc	71 71 0 is_stmt 1       @ /root/Bela/projects/RNBO-KPStrong/rnbo/src/RNBO_CoreObject.cpp:71:0
	.fnstart
	.cfi_startproc
@ BB#0:
	@DEBUG_VALUE: setParameterValueNormalized:this <- %R0
	@DEBUG_VALUE: setParameterValueNormalized:index <- %R1
	@DEBUG_VALUE: setParameterValueNormalized:normalizedValue <- %S0
	@DEBUG_VALUE: setParameterValueNormalized:time <- %S1
	.loc	43 126 34 prologue_end  @ /root/Bela/projects/RNBO-KPStrong/rnbo/common/RNBO_UniquePtr.h:126:34
	ldr	r0, [r0, #12]
.Ltmp325:
	.loc	71 72 24                @ /root/Bela/projects/RNBO-KPStrong/rnbo/src/RNBO_CoreObject.cpp:72:24
	ldr	r2, [r0]
	ldr	r2, [r2, #28]
	.loc	71 72 24 is_stmt 0 discriminator 1 @ /root/Bela/projects/RNBO-KPStrong/rnbo/src/RNBO_CoreObject.cpp:72:24
	bx	r2
.Ltmp326:
.Lfunc_end13:
	.size	_ZN4RNBO10CoreObject27setParameterValueNormalizedEjff, .Lfunc_end13-_ZN4RNBO10CoreObject27setParameterValueNormalizedEjff
	.cfi_endproc
	.fnend

	.globl	_ZNK4RNBO10CoreObject33convertToNormalizedParameterValueEjf
	.p2align	2
	.type	_ZNK4RNBO10CoreObject33convertToNormalizedParameterValueEjf,%function
_ZNK4RNBO10CoreObject33convertToNormalizedParameterValueEjf: @ @_ZNK4RNBO10CoreObject33convertToNormalizedParameterValueEjf
.Lfunc_begin14:
	.loc	71 76 0 is_stmt 1       @ /root/Bela/projects/RNBO-KPStrong/rnbo/src/RNBO_CoreObject.cpp:76:0
	.fnstart
	.cfi_startproc
@ BB#0:
	@DEBUG_VALUE: convertToNormalizedParameterValue:this <- %R0
	@DEBUG_VALUE: convertToNormalizedParameterValue:index <- %R1
	@DEBUG_VALUE: convertToNormalizedParameterValue:value <- %S0
	.loc	43 126 34 prologue_end  @ /root/Bela/projects/RNBO-KPStrong/rnbo/common/RNBO_UniquePtr.h:126:34
	ldr	r0, [r0, #12]
.Ltmp327:
	.loc	71 77 31                @ /root/Bela/projects/RNBO-KPStrong/rnbo/src/RNBO_CoreObject.cpp:77:31
	ldr	r2, [r0]
	ldr	r2, [r2, #32]
	.loc	71 77 31 is_stmt 0 discriminator 1 @ /root/Bela/projects/RNBO-KPStrong/rnbo/src/RNBO_CoreObject.cpp:77:31
	bx	r2
.Ltmp328:
.Lfunc_end14:
	.size	_ZNK4RNBO10CoreObject33convertToNormalizedParameterValueEjf, .Lfunc_end14-_ZNK4RNBO10CoreObject33convertToNormalizedParameterValueEjf
	.cfi_endproc
	.fnend

	.globl	_ZNK4RNBO10CoreObject35convertFromNormalizedParameterValueEjf
	.p2align	2
	.type	_ZNK4RNBO10CoreObject35convertFromNormalizedParameterValueEjf,%function
_ZNK4RNBO10CoreObject35convertFromNormalizedParameterValueEjf: @ @_ZNK4RNBO10CoreObject35convertFromNormalizedParameterValueEjf
.Lfunc_begin15:
	.loc	71 81 0 is_stmt 1       @ /root/Bela/projects/RNBO-KPStrong/rnbo/src/RNBO_CoreObject.cpp:81:0
	.fnstart
	.cfi_startproc
@ BB#0:
	@DEBUG_VALUE: convertFromNormalizedParameterValue:this <- %R0
	@DEBUG_VALUE: convertFromNormalizedParameterValue:index <- %R1
	@DEBUG_VALUE: convertFromNormalizedParameterValue:normalizedValue <- %S0
	.loc	43 126 34 prologue_end  @ /root/Bela/projects/RNBO-KPStrong/rnbo/common/RNBO_UniquePtr.h:126:34
	ldr	r0, [r0, #12]
.Ltmp329:
	.loc	71 82 31                @ /root/Bela/projects/RNBO-KPStrong/rnbo/src/RNBO_CoreObject.cpp:82:31
	ldr	r2, [r0]
	ldr	r2, [r2, #36]
	.loc	71 82 31 is_stmt 0 discriminator 1 @ /root/Bela/projects/RNBO-KPStrong/rnbo/src/RNBO_CoreObject.cpp:82:31
	bx	r2
.Ltmp330:
.Lfunc_end15:
	.size	_ZNK4RNBO10CoreObject35convertFromNormalizedParameterValueEjf, .Lfunc_end15-_ZNK4RNBO10CoreObject35convertFromNormalizedParameterValueEjf
	.cfi_endproc
	.fnend

	.globl	_ZNK4RNBO10CoreObject23constrainParameterValueEjf
	.p2align	2
	.type	_ZNK4RNBO10CoreObject23constrainParameterValueEjf,%function
_ZNK4RNBO10CoreObject23constrainParameterValueEjf: @ @_ZNK4RNBO10CoreObject23constrainParameterValueEjf
.Lfunc_begin16:
	.loc	71 86 0 is_stmt 1       @ /root/Bela/projects/RNBO-KPStrong/rnbo/src/RNBO_CoreObject.cpp:86:0
	.fnstart
	.cfi_startproc
@ BB#0:
	@DEBUG_VALUE: constrainParameterValue:this <- %R0
	@DEBUG_VALUE: constrainParameterValue:index <- %R1
	@DEBUG_VALUE: constrainParameterValue:value <- %S0
	.loc	43 126 34 prologue_end  @ /root/Bela/projects/RNBO-KPStrong/rnbo/common/RNBO_UniquePtr.h:126:34
	ldr	r0, [r0, #12]
.Ltmp331:
	.loc	71 87 31                @ /root/Bela/projects/RNBO-KPStrong/rnbo/src/RNBO_CoreObject.cpp:87:31
	ldr	r2, [r0]
	ldr	r2, [r2, #40]
	.loc	71 87 31 is_stmt 0 discriminator 1 @ /root/Bela/projects/RNBO-KPStrong/rnbo/src/RNBO_CoreObject.cpp:87:31
	bx	r2
.Ltmp332:
.Lfunc_end16:
	.size	_ZNK4RNBO10CoreObject23constrainParameterValueEjf, .Lfunc_end16-_ZNK4RNBO10CoreObject23constrainParameterValueEjf
	.cfi_endproc
	.fnend

	.globl	_ZNK4RNBO10CoreObject22getParameterIndexForIDEPKc
	.p2align	2
	.type	_ZNK4RNBO10CoreObject22getParameterIndexForIDEPKc,%function
_ZNK4RNBO10CoreObject22getParameterIndexForIDEPKc: @ @_ZNK4RNBO10CoreObject22getParameterIndexForIDEPKc
.Lfunc_begin17:
	.loc	71 91 0 is_stmt 1       @ /root/Bela/projects/RNBO-KPStrong/rnbo/src/RNBO_CoreObject.cpp:91:0
	.fnstart
	.cfi_startproc
@ BB#0:
	@DEBUG_VALUE: getParameterIndexForID:this <- %R0
	@DEBUG_VALUE: getParameterIndexForID:paramid <- %R1
	.loc	43 126 34 prologue_end  @ /root/Bela/projects/RNBO-KPStrong/rnbo/common/RNBO_UniquePtr.h:126:34
	ldr	r0, [r0, #8]
.Ltmp333:
	.loc	71 92 19                @ /root/Bela/projects/RNBO-KPStrong/rnbo/src/RNBO_CoreObject.cpp:92:19
	ldr	r2, [r0]
	ldr	r2, [r2, #152]
	.loc	71 92 19 is_stmt 0 discriminator 1 @ /root/Bela/projects/RNBO-KPStrong/rnbo/src/RNBO_CoreObject.cpp:92:19
	bx	r2
.Ltmp334:
.Lfunc_end17:
	.size	_ZNK4RNBO10CoreObject22getParameterIndexForIDEPKc, .Lfunc_end17-_ZNK4RNBO10CoreObject22getParameterIndexForIDEPKc
	.cfi_endproc
	.fnend

	.globl	_ZThn4_NK4RNBO10CoreObject22getParameterIndexForIDEPKc
	.p2align	2
	.type	_ZThn4_NK4RNBO10CoreObject22getParameterIndexForIDEPKc,%function
_ZThn4_NK4RNBO10CoreObject22getParameterIndexForIDEPKc: @ @_ZThn4_NK4RNBO10CoreObject22getParameterIndexForIDEPKc
.Lfunc_begin18:
	.loc	71 90 0 is_stmt 1       @ /root/Bela/projects/RNBO-KPStrong/rnbo/src/RNBO_CoreObject.cpp:90:0
	.fnstart
	.cfi_startproc
@ BB#0:
	@DEBUG_VALUE: this <- %R0
	@DEBUG_VALUE: paramid <- %R1
	.loc	43 126 34 prologue_end  @ /root/Bela/projects/RNBO-KPStrong/rnbo/common/RNBO_UniquePtr.h:126:34
	ldr	r0, [r0, #4]
.Ltmp335:
	.loc	71 92 19                @ /root/Bela/projects/RNBO-KPStrong/rnbo/src/RNBO_CoreObject.cpp:92:19
	ldr	r2, [r0]
	ldr	r2, [r2, #152]
.Ltmp336:
	@DEBUG_VALUE: getParameterIndexForID:paramid <- %R1
	.loc	71 92 19 is_stmt 0 discriminator 1 @ /root/Bela/projects/RNBO-KPStrong/rnbo/src/RNBO_CoreObject.cpp:92:19
	bx	r2
.Ltmp337:
.Lfunc_end18:
	.size	_ZThn4_NK4RNBO10CoreObject22getParameterIndexForIDEPKc, .Lfunc_end18-_ZThn4_NK4RNBO10CoreObject22getParameterIndexForIDEPKc
	.cfi_endproc
	.fnend

	.globl	_ZNK4RNBO10CoreObject18getProbingChannelsEj
	.p2align	2
	.type	_ZNK4RNBO10CoreObject18getProbingChannelsEj,%function
_ZNK4RNBO10CoreObject18getProbingChannelsEj: @ @_ZNK4RNBO10CoreObject18getProbingChannelsEj
.Lfunc_begin19:
	.loc	71 96 0 is_stmt 1       @ /root/Bela/projects/RNBO-KPStrong/rnbo/src/RNBO_CoreObject.cpp:96:0
	.fnstart
	.cfi_startproc
@ BB#0:
	@DEBUG_VALUE: getProbingChannels:this <- %R0
	@DEBUG_VALUE: getProbingChannels:outletId <- %R1
	.loc	43 126 34 prologue_end  @ /root/Bela/projects/RNBO-KPStrong/rnbo/common/RNBO_UniquePtr.h:126:34
	ldr	r0, [r0, #8]
.Ltmp338:
	.loc	71 97 19                @ /root/Bela/projects/RNBO-KPStrong/rnbo/src/RNBO_CoreObject.cpp:97:19
	ldr	r2, [r0]
	ldr	r2, [r2, #156]
	.loc	71 97 19 is_stmt 0 discriminator 1 @ /root/Bela/projects/RNBO-KPStrong/rnbo/src/RNBO_CoreObject.cpp:97:19
	bx	r2
.Ltmp339:
.Lfunc_end19:
	.size	_ZNK4RNBO10CoreObject18getProbingChannelsEj, .Lfunc_end19-_ZNK4RNBO10CoreObject18getProbingChannelsEj
	.cfi_endproc
	.fnend

	.globl	_ZThn4_NK4RNBO10CoreObject18getProbingChannelsEj
	.p2align	2
	.type	_ZThn4_NK4RNBO10CoreObject18getProbingChannelsEj,%function
_ZThn4_NK4RNBO10CoreObject18getProbingChannelsEj: @ @_ZThn4_NK4RNBO10CoreObject18getProbingChannelsEj
.Lfunc_begin20:
	.loc	71 95 0 is_stmt 1       @ /root/Bela/projects/RNBO-KPStrong/rnbo/src/RNBO_CoreObject.cpp:95:0
	.fnstart
	.cfi_startproc
@ BB#0:
	@DEBUG_VALUE: this <- %R0
	@DEBUG_VALUE: outletId <- %R1
	.loc	43 126 34 prologue_end  @ /root/Bela/projects/RNBO-KPStrong/rnbo/common/RNBO_UniquePtr.h:126:34
	ldr	r0, [r0, #4]
.Ltmp340:
	.loc	71 97 19                @ /root/Bela/projects/RNBO-KPStrong/rnbo/src/RNBO_CoreObject.cpp:97:19
	ldr	r2, [r0]
	ldr	r2, [r2, #156]
.Ltmp341:
	@DEBUG_VALUE: getProbingChannels:outletId <- %R1
	.loc	71 97 19 is_stmt 0 discriminator 1 @ /root/Bela/projects/RNBO-KPStrong/rnbo/src/RNBO_CoreObject.cpp:97:19
	bx	r2
.Ltmp342:
.Lfunc_end20:
	.size	_ZThn4_NK4RNBO10CoreObject18getProbingChannelsEj, .Lfunc_end20-_ZThn4_NK4RNBO10CoreObject18getProbingChannelsEj
	.cfi_endproc
	.fnend

	.globl	_ZNK4RNBO10CoreObject19getNumInputChannelsEv
	.p2align	2
	.type	_ZNK4RNBO10CoreObject19getNumInputChannelsEv,%function
_ZNK4RNBO10CoreObject19getNumInputChannelsEv: @ @_ZNK4RNBO10CoreObject19getNumInputChannelsEv
.Lfunc_begin21:
	.loc	71 101 0 is_stmt 1      @ /root/Bela/projects/RNBO-KPStrong/rnbo/src/RNBO_CoreObject.cpp:101:0
	.fnstart
	.cfi_startproc
@ BB#0:
	@DEBUG_VALUE: getNumInputChannels:this <- %R0
	.loc	43 126 34 prologue_end  @ /root/Bela/projects/RNBO-KPStrong/rnbo/common/RNBO_UniquePtr.h:126:34
	ldr	r0, [r0, #8]
.Ltmp343:
	.loc	43 126 34 is_stmt 0     @ /root/Bela/projects/RNBO-KPStrong/rnbo/common/RNBO_UniquePtr.h:126:34
	ldr	r0, [r0, #12]
.Ltmp344:
	.file	85 "/root/Bela/projects/RNBO-KPStrong/rnbo/src" "RNBO_EngineCore.h"
	.loc	85 66 21 is_stmt 1      @ /root/Bela/projects/RNBO-KPStrong/rnbo/src/RNBO_EngineCore.h:66:21
	ldr	r1, [r0]
	ldr	r1, [r1, #56]
	.loc	85 66 21 is_stmt 0 discriminator 1 @ /root/Bela/projects/RNBO-KPStrong/rnbo/src/RNBO_EngineCore.h:66:21
	bx	r1
.Ltmp345:
.Lfunc_end21:
	.size	_ZNK4RNBO10CoreObject19getNumInputChannelsEv, .Lfunc_end21-_ZNK4RNBO10CoreObject19getNumInputChannelsEv
	.cfi_endproc
	.fnend

	.globl	_ZNK4RNBO10CoreObject20getNumOutputChannelsEv
	.p2align	2
	.type	_ZNK4RNBO10CoreObject20getNumOutputChannelsEv,%function
_ZNK4RNBO10CoreObject20getNumOutputChannelsEv: @ @_ZNK4RNBO10CoreObject20getNumOutputChannelsEv
.Lfunc_begin22:
	.loc	71 106 0 is_stmt 1      @ /root/Bela/projects/RNBO-KPStrong/rnbo/src/RNBO_CoreObject.cpp:106:0
	.fnstart
	.cfi_startproc
@ BB#0:
	@DEBUG_VALUE: getNumOutputChannels:this <- %R0
	.loc	43 126 34 prologue_end  @ /root/Bela/projects/RNBO-KPStrong/rnbo/common/RNBO_UniquePtr.h:126:34
	ldr	r0, [r0, #8]
.Ltmp346:
	.loc	43 126 34 is_stmt 0     @ /root/Bela/projects/RNBO-KPStrong/rnbo/common/RNBO_UniquePtr.h:126:34
	ldr	r0, [r0, #12]
.Ltmp347:
	.loc	85 70 21 is_stmt 1      @ /root/Bela/projects/RNBO-KPStrong/rnbo/src/RNBO_EngineCore.h:70:21
	ldr	r1, [r0]
	ldr	r1, [r1, #60]
	.loc	85 70 21 is_stmt 0 discriminator 1 @ /root/Bela/projects/RNBO-KPStrong/rnbo/src/RNBO_EngineCore.h:70:21
	bx	r1
.Ltmp348:
.Lfunc_end22:
	.size	_ZNK4RNBO10CoreObject20getNumOutputChannelsEv, .Lfunc_end22-_ZNK4RNBO10CoreObject20getNumOutputChannelsEv
	.cfi_endproc
	.fnend

	.globl	_ZNK4RNBO10CoreObject24getNumSignalInParametersEv
	.p2align	2
	.type	_ZNK4RNBO10CoreObject24getNumSignalInParametersEv,%function
_ZNK4RNBO10CoreObject24getNumSignalInParametersEv: @ @_ZNK4RNBO10CoreObject24getNumSignalInParametersEv
.Lfunc_begin23:
	.loc	71 111 0 is_stmt 1      @ /root/Bela/projects/RNBO-KPStrong/rnbo/src/RNBO_CoreObject.cpp:111:0
	.fnstart
	.cfi_startproc
@ BB#0:
	@DEBUG_VALUE: getNumSignalInParameters:this <- %R0
	.loc	43 126 34 prologue_end  @ /root/Bela/projects/RNBO-KPStrong/rnbo/common/RNBO_UniquePtr.h:126:34
	ldr	r0, [r0, #8]
.Ltmp349:
	.loc	43 126 34 is_stmt 0     @ /root/Bela/projects/RNBO-KPStrong/rnbo/common/RNBO_UniquePtr.h:126:34
	ldr	r0, [r0, #12]
.Ltmp350:
	.loc	85 75 21 is_stmt 1      @ /root/Bela/projects/RNBO-KPStrong/rnbo/src/RNBO_EngineCore.h:75:21
	ldr	r1, [r0]
	ldr	r1, [r1, #112]
	.loc	85 75 21 is_stmt 0 discriminator 1 @ /root/Bela/projects/RNBO-KPStrong/rnbo/src/RNBO_EngineCore.h:75:21
	bx	r1
.Ltmp351:
.Lfunc_end23:
	.size	_ZNK4RNBO10CoreObject24getNumSignalInParametersEv, .Lfunc_end23-_ZNK4RNBO10CoreObject24getNumSignalInParametersEv
	.cfi_endproc
	.fnend

	.globl	_ZNK4RNBO10CoreObject25getNumSignalOutParametersEv
	.p2align	2
	.type	_ZNK4RNBO10CoreObject25getNumSignalOutParametersEv,%function
_ZNK4RNBO10CoreObject25getNumSignalOutParametersEv: @ @_ZNK4RNBO10CoreObject25getNumSignalOutParametersEv
.Lfunc_begin24:
	.loc	71 116 0 is_stmt 1      @ /root/Bela/projects/RNBO-KPStrong/rnbo/src/RNBO_CoreObject.cpp:116:0
	.fnstart
	.cfi_startproc
@ BB#0:
	@DEBUG_VALUE: getNumSignalOutParameters:this <- %R0
	.loc	43 126 34 prologue_end  @ /root/Bela/projects/RNBO-KPStrong/rnbo/common/RNBO_UniquePtr.h:126:34
	ldr	r0, [r0, #8]
.Ltmp352:
	.loc	43 126 34 is_stmt 0     @ /root/Bela/projects/RNBO-KPStrong/rnbo/common/RNBO_UniquePtr.h:126:34
	ldr	r0, [r0, #12]
.Ltmp353:
	.loc	85 80 21 is_stmt 1      @ /root/Bela/projects/RNBO-KPStrong/rnbo/src/RNBO_EngineCore.h:80:21
	ldr	r1, [r0]
	ldr	r1, [r1, #116]
	.loc	85 80 21 is_stmt 0 discriminator 1 @ /root/Bela/projects/RNBO-KPStrong/rnbo/src/RNBO_EngineCore.h:80:21
	bx	r1
.Ltmp354:
.Lfunc_end24:
	.size	_ZNK4RNBO10CoreObject25getNumSignalOutParametersEv, .Lfunc_end24-_ZNK4RNBO10CoreObject25getNumSignalOutParametersEv
	.cfi_endproc
	.fnend

	.globl	_ZNK4RNBO10CoreObject13getSampleRateEv
	.p2align	2
	.type	_ZNK4RNBO10CoreObject13getSampleRateEv,%function
_ZNK4RNBO10CoreObject13getSampleRateEv: @ @_ZNK4RNBO10CoreObject13getSampleRateEv
.Lfunc_begin25:
	.loc	71 121 0 is_stmt 1      @ /root/Bela/projects/RNBO-KPStrong/rnbo/src/RNBO_CoreObject.cpp:121:0
	.fnstart
	.cfi_startproc
@ BB#0:
	@DEBUG_VALUE: getSampleRate:this <- %R0
	.loc	43 126 34 prologue_end  @ /root/Bela/projects/RNBO-KPStrong/rnbo/common/RNBO_UniquePtr.h:126:34
	ldr	r0, [r0, #8]
.Ltmp355:
	.loc	43 126 34 is_stmt 0     @ /root/Bela/projects/RNBO-KPStrong/rnbo/common/RNBO_UniquePtr.h:126:34
	ldr	r0, [r0, #12]
.Ltmp356:
	.loc	85 84 45 is_stmt 1      @ /root/Bela/projects/RNBO-KPStrong/rnbo/src/RNBO_EngineCore.h:84:45
	ldr	r1, [r0]
	ldr	r1, [r1, #136]
	.loc	85 84 45 is_stmt 0 discriminator 1 @ /root/Bela/projects/RNBO-KPStrong/rnbo/src/RNBO_EngineCore.h:84:45
	bx	r1
.Ltmp357:
.Lfunc_end25:
	.size	_ZNK4RNBO10CoreObject13getSampleRateEv, .Lfunc_end25-_ZNK4RNBO10CoreObject13getSampleRateEv
	.cfi_endproc
	.fnend

	.globl	_ZNK4RNBO10CoreObject18getSamplesPerBlockEv
	.p2align	2
	.type	_ZNK4RNBO10CoreObject18getSamplesPerBlockEv,%function
_ZNK4RNBO10CoreObject18getSamplesPerBlockEv: @ @_ZNK4RNBO10CoreObject18getSamplesPerBlockEv
.Lfunc_begin26:
	.loc	71 126 0 is_stmt 1      @ /root/Bela/projects/RNBO-KPStrong/rnbo/src/RNBO_CoreObject.cpp:126:0
	.fnstart
	.cfi_startproc
@ BB#0:
	@DEBUG_VALUE: getSamplesPerBlock:this <- %R0
	.loc	43 126 34 prologue_end  @ /root/Bela/projects/RNBO-KPStrong/rnbo/common/RNBO_UniquePtr.h:126:34
	ldr	r0, [r0, #8]
.Ltmp358:
	.loc	43 126 34 is_stmt 0     @ /root/Bela/projects/RNBO-KPStrong/rnbo/common/RNBO_UniquePtr.h:126:34
	ldr	r0, [r0, #12]
.Ltmp359:
	.loc	85 85 49 is_stmt 1      @ /root/Bela/projects/RNBO-KPStrong/rnbo/src/RNBO_EngineCore.h:85:49
	ldr	r1, [r0]
	ldr	r1, [r1, #132]
	.loc	85 85 49 is_stmt 0 discriminator 1 @ /root/Bela/projects/RNBO-KPStrong/rnbo/src/RNBO_EngineCore.h:85:49
	bx	r1
.Ltmp360:
.Lfunc_end26:
	.size	_ZNK4RNBO10CoreObject18getSamplesPerBlockEv, .Lfunc_end26-_ZNK4RNBO10CoreObject18getSamplesPerBlockEv
	.cfi_endproc
	.fnend

	.globl	_ZN4RNBO10CoreObject14getCurrentTimeEv
	.p2align	2
	.type	_ZN4RNBO10CoreObject14getCurrentTimeEv,%function
_ZN4RNBO10CoreObject14getCurrentTimeEv: @ @_ZN4RNBO10CoreObject14getCurrentTimeEv
.Lfunc_begin27:
	.loc	71 131 0 is_stmt 1      @ /root/Bela/projects/RNBO-KPStrong/rnbo/src/RNBO_CoreObject.cpp:131:0
	.fnstart
	.cfi_startproc
@ BB#0:
	@DEBUG_VALUE: getCurrentTime:this <- %R0
	.loc	43 126 34 prologue_end  @ /root/Bela/projects/RNBO-KPStrong/rnbo/common/RNBO_UniquePtr.h:126:34
	ldr	r0, [r0, #8]
.Ltmp361:
	.loc	71 132 19               @ /root/Bela/projects/RNBO-KPStrong/rnbo/src/RNBO_CoreObject.cpp:132:19
	ldr	r1, [r0]
	ldr	r1, [r1, #76]
	.loc	71 132 19 is_stmt 0 discriminator 1 @ /root/Bela/projects/RNBO-KPStrong/rnbo/src/RNBO_CoreObject.cpp:132:19
	bx	r1
.Ltmp362:
.Lfunc_end27:
	.size	_ZN4RNBO10CoreObject14getCurrentTimeEv, .Lfunc_end27-_ZN4RNBO10CoreObject14getCurrentTimeEv
	.cfi_endproc
	.fnend

	.globl	_ZN4RNBO10CoreObject14setCurrentTimeEf
	.p2align	2
	.type	_ZN4RNBO10CoreObject14setCurrentTimeEf,%function
_ZN4RNBO10CoreObject14setCurrentTimeEf: @ @_ZN4RNBO10CoreObject14setCurrentTimeEf
.Lfunc_begin28:
	.loc	71 136 0 is_stmt 1      @ /root/Bela/projects/RNBO-KPStrong/rnbo/src/RNBO_CoreObject.cpp:136:0
	.fnstart
	.cfi_startproc
@ BB#0:
	@DEBUG_VALUE: setCurrentTime:this <- %R0
	@DEBUG_VALUE: setCurrentTime:time <- %S0
	.loc	43 126 34 prologue_end  @ /root/Bela/projects/RNBO-KPStrong/rnbo/common/RNBO_UniquePtr.h:126:34
	ldr	r0, [r0, #8]
.Ltmp363:
	@DEBUG_VALUE: setCurrentTime:time <- %S0
	.loc	85 311 60               @ /root/Bela/projects/RNBO-KPStrong/rnbo/src/RNBO_EngineCore.h:311:60
	vstr	s0, [r0, #16]
.Ltmp364:
	.loc	71 138 2                @ /root/Bela/projects/RNBO-KPStrong/rnbo/src/RNBO_CoreObject.cpp:138:2
	bx	lr
.Ltmp365:
.Lfunc_end28:
	.size	_ZN4RNBO10CoreObject14setCurrentTimeEf, .Lfunc_end28-_ZN4RNBO10CoreObject14setCurrentTimeEf
	.cfi_endproc
	.fnend

	.globl	_ZN4RNBO10CoreObject16prepareToProcessEfjb
	.p2align	2
	.type	_ZN4RNBO10CoreObject16prepareToProcessEfjb,%function
_ZN4RNBO10CoreObject16prepareToProcessEfjb: @ @_ZN4RNBO10CoreObject16prepareToProcessEfjb
.Lfunc_begin29:
	.loc	71 141 0                @ /root/Bela/projects/RNBO-KPStrong/rnbo/src/RNBO_CoreObject.cpp:141:0
	.fnstart
	.cfi_startproc
@ BB#0:
	@DEBUG_VALUE: prepareToProcess:this <- %R0
	@DEBUG_VALUE: prepareToProcess:sampleRate <- %S0
	@DEBUG_VALUE: prepareToProcess:maxBlockSize <- %R1
	@DEBUG_VALUE: prepareToProcess:force [bit_piece offset=0 size=1] <- %R2
	.loc	43 126 34 prologue_end  @ /root/Bela/projects/RNBO-KPStrong/rnbo/common/RNBO_UniquePtr.h:126:34
	ldr	r0, [r0, #8]
.Ltmp366:
	.loc	71 142 19               @ /root/Bela/projects/RNBO-KPStrong/rnbo/src/RNBO_CoreObject.cpp:142:19
	ldr	r3, [r0]
	ldr	r3, [r3, #96]
	.loc	71 142 19 is_stmt 0 discriminator 1 @ /root/Bela/projects/RNBO-KPStrong/rnbo/src/RNBO_CoreObject.cpp:142:19
	bx	r3
.Ltmp367:
.Lfunc_end29:
	.size	_ZN4RNBO10CoreObject16prepareToProcessEfjb, .Lfunc_end29-_ZN4RNBO10CoreObject16prepareToProcessEfjb
	.cfi_endproc
	.fnend

	.globl	_ZN4RNBO10CoreObject7processEPPfjS2_jjPKNS_9EventListINS_9MidiEventEEEPS5_
	.p2align	2
	.type	_ZN4RNBO10CoreObject7processEPPfjS2_jjPKNS_9EventListINS_9MidiEventEEEPS5_,%function
_ZN4RNBO10CoreObject7processEPPfjS2_jjPKNS_9EventListINS_9MidiEventEEEPS5_: @ @_ZN4RNBO10CoreObject7processEPPfjS2_jjPKNS_9EventListINS_9MidiEventEEEPS5_
.Lfunc_begin30:
	.loc	71 149 0 is_stmt 1      @ /root/Bela/projects/RNBO-KPStrong/rnbo/src/RNBO_CoreObject.cpp:149:0
	.fnstart
	.cfi_startproc
@ BB#0:
	@DEBUG_VALUE: process:this <- %R0
	@DEBUG_VALUE: process:audioInputs <- %R1
	@DEBUG_VALUE: process:numInputs <- %R2
	@DEBUG_VALUE: process:audioOutputs <- %R3
	@DEBUG_VALUE: process:numOutputs <- [%SP+0]
	@DEBUG_VALUE: process:sampleFrames <- [%SP+4]
	@DEBUG_VALUE: process:midiInput <- [%SP+8]
	@DEBUG_VALUE: process:midiOutput <- [%SP+12]
	.loc	43 126 34 prologue_end  @ /root/Bela/projects/RNBO-KPStrong/rnbo/common/RNBO_UniquePtr.h:126:34
	ldr	r0, [r0, #8]
.Ltmp368:
	.loc	71 153 12               @ /root/Bela/projects/RNBO-KPStrong/rnbo/src/RNBO_CoreObject.cpp:153:12
	ldr	r12, [r0]
	ldr	r12, [r12, #160]
	.loc	71 153 12 is_stmt 0 discriminator 1 @ /root/Bela/projects/RNBO-KPStrong/rnbo/src/RNBO_CoreObject.cpp:153:12
	bx	r12
.Ltmp369:
.Lfunc_end30:
	.size	_ZN4RNBO10CoreObject7processEPPfjS2_jjPKNS_9EventListINS_9MidiEventEEEPS5_, .Lfunc_end30-_ZN4RNBO10CoreObject7processEPPfjS2_jjPKNS_9EventListINS_9MidiEventEEEPS5_
	.cfi_endproc
	.fnend

	.globl	_ZN4RNBO10CoreObject24setPatcherChangedHandlerEPNS_21PatcherChangedHandlerE
	.p2align	2
	.type	_ZN4RNBO10CoreObject24setPatcherChangedHandlerEPNS_21PatcherChangedHandlerE,%function
_ZN4RNBO10CoreObject24setPatcherChangedHandlerEPNS_21PatcherChangedHandlerE: @ @_ZN4RNBO10CoreObject24setPatcherChangedHandlerEPNS_21PatcherChangedHandlerE
.Lfunc_begin31:
	.loc	71 161 0 is_stmt 1      @ /root/Bela/projects/RNBO-KPStrong/rnbo/src/RNBO_CoreObject.cpp:161:0
	.fnstart
	.cfi_startproc
@ BB#0:
	@DEBUG_VALUE: setPatcherChangedHandler:this <- %R0
	@DEBUG_VALUE: setPatcherChangedHandler:handler <- %R1
	.loc	43 126 34 prologue_end  @ /root/Bela/projects/RNBO-KPStrong/rnbo/common/RNBO_UniquePtr.h:126:34
	ldr	r0, [r0, #8]
.Ltmp370:
	@DEBUG_VALUE: setPatcherChangedHandler:handler <- %R1
	.loc	85 567 27               @ /root/Bela/projects/RNBO-KPStrong/rnbo/src/RNBO_EngineCore.h:567:27
	str	r1, [r0, #60]
.Ltmp371:
	.loc	71 163 2                @ /root/Bela/projects/RNBO-KPStrong/rnbo/src/RNBO_CoreObject.cpp:163:2
	bx	lr
.Ltmp372:
.Lfunc_end31:
	.size	_ZN4RNBO10CoreObject24setPatcherChangedHandlerEPNS_21PatcherChangedHandlerE, .Lfunc_end31-_ZN4RNBO10CoreObject24setPatcherChangedHandlerEPNS_21PatcherChangedHandlerE
	.cfi_endproc
	.fnend

	.globl	_ZN4RNBO10CoreObject24createParameterInterfaceENS_23ParameterEventInterface4TypeEPNS_12EventHandlerE
	.p2align	2
	.type	_ZN4RNBO10CoreObject24createParameterInterfaceENS_23ParameterEventInterface4TypeEPNS_12EventHandlerE,%function
_ZN4RNBO10CoreObject24createParameterInterfaceENS_23ParameterEventInterface4TypeEPNS_12EventHandlerE: @ @_ZN4RNBO10CoreObject24createParameterInterfaceENS_23ParameterEventInterface4TypeEPNS_12EventHandlerE
.Lfunc_begin32:
	.loc	71 167 0                @ /root/Bela/projects/RNBO-KPStrong/rnbo/src/RNBO_CoreObject.cpp:167:0
	.fnstart
	.cfi_startproc
@ BB#0:
	.save	{r11, lr}
	push	{r11, lr}
.Ltmp373:
	.cfi_def_cfa_offset 8
.Ltmp374:
	.cfi_offset lr, -4
.Ltmp375:
	.cfi_offset r11, -8
	.setfp	r11, sp
	mov	r11, sp
.Ltmp376:
	.cfi_def_cfa_register r11
	@DEBUG_VALUE: createParameterInterface:this <- %R1
	@DEBUG_VALUE: createParameterInterface:type <- %R2
	@DEBUG_VALUE: createParameterInterface:handler <- %R3
.Ltmp377:
	.loc	43 126 34 prologue_end  @ /root/Bela/projects/RNBO-KPStrong/rnbo/common/RNBO_UniquePtr.h:126:34
	ldr	r1, [r1, #8]
.Ltmp378:
	.loc	71 168 19               @ /root/Bela/projects/RNBO-KPStrong/rnbo/src/RNBO_CoreObject.cpp:168:19
	ldr	r12, [r1]
	ldr	r12, [r12, #144]
	.loc	71 168 19 is_stmt 0 discriminator 1 @ /root/Bela/projects/RNBO-KPStrong/rnbo/src/RNBO_CoreObject.cpp:168:19
	blx	r12
.Ltmp379:
	.loc	71 168 3                @ /root/Bela/projects/RNBO-KPStrong/rnbo/src/RNBO_CoreObject.cpp:168:3
	pop	{r11, pc}
.Ltmp380:
.Lfunc_end32:
	.size	_ZN4RNBO10CoreObject24createParameterInterfaceENS_23ParameterEventInterface4TypeEPNS_12EventHandlerE, .Lfunc_end32-_ZN4RNBO10CoreObject24createParameterInterfaceENS_23ParameterEventInterface4TypeEPNS_12EventHandlerE
	.cfi_endproc
	.fnend

	.globl	_ZNK4RNBO10CoreObject20getNumMidiInputPortsEv
	.p2align	2
	.type	_ZNK4RNBO10CoreObject20getNumMidiInputPortsEv,%function
_ZNK4RNBO10CoreObject20getNumMidiInputPortsEv: @ @_ZNK4RNBO10CoreObject20getNumMidiInputPortsEv
.Lfunc_begin33:
	.loc	71 172 0 is_stmt 1      @ /root/Bela/projects/RNBO-KPStrong/rnbo/src/RNBO_CoreObject.cpp:172:0
	.fnstart
	.cfi_startproc
@ BB#0:
	@DEBUG_VALUE: getNumMidiInputPorts:this <- %R0
	.loc	43 126 34 prologue_end  @ /root/Bela/projects/RNBO-KPStrong/rnbo/common/RNBO_UniquePtr.h:126:34
	ldr	r0, [r0, #8]
.Ltmp381:
	.loc	43 126 34 is_stmt 0     @ /root/Bela/projects/RNBO-KPStrong/rnbo/common/RNBO_UniquePtr.h:126:34
	ldr	r0, [r0, #12]
.Ltmp382:
	.loc	85 318 21 is_stmt 1     @ /root/Bela/projects/RNBO-KPStrong/rnbo/src/RNBO_EngineCore.h:318:21
	ldr	r1, [r0]
	ldr	r1, [r1, #48]
	.loc	85 318 21 is_stmt 0 discriminator 1 @ /root/Bela/projects/RNBO-KPStrong/rnbo/src/RNBO_EngineCore.h:318:21
	bx	r1
.Ltmp383:
.Lfunc_end33:
	.size	_ZNK4RNBO10CoreObject20getNumMidiInputPortsEv, .Lfunc_end33-_ZNK4RNBO10CoreObject20getNumMidiInputPortsEv
	.cfi_endproc
	.fnend

	.globl	_ZNK4RNBO10CoreObject21getNumMidiOutputPortsEv
	.p2align	2
	.type	_ZNK4RNBO10CoreObject21getNumMidiOutputPortsEv,%function
_ZNK4RNBO10CoreObject21getNumMidiOutputPortsEv: @ @_ZNK4RNBO10CoreObject21getNumMidiOutputPortsEv
.Lfunc_begin34:
	.loc	71 177 0 is_stmt 1      @ /root/Bela/projects/RNBO-KPStrong/rnbo/src/RNBO_CoreObject.cpp:177:0
	.fnstart
	.cfi_startproc
@ BB#0:
	@DEBUG_VALUE: getNumMidiOutputPorts:this <- %R0
	.loc	43 126 34 prologue_end  @ /root/Bela/projects/RNBO-KPStrong/rnbo/common/RNBO_UniquePtr.h:126:34
	ldr	r0, [r0, #8]
.Ltmp384:
	.loc	43 126 34 is_stmt 0     @ /root/Bela/projects/RNBO-KPStrong/rnbo/common/RNBO_UniquePtr.h:126:34
	ldr	r0, [r0, #12]
.Ltmp385:
	.loc	85 322 21 is_stmt 1     @ /root/Bela/projects/RNBO-KPStrong/rnbo/src/RNBO_EngineCore.h:322:21
	ldr	r1, [r0]
	ldr	r1, [r1, #52]
	.loc	85 322 21 is_stmt 0 discriminator 1 @ /root/Bela/projects/RNBO-KPStrong/rnbo/src/RNBO_EngineCore.h:322:21
	bx	r1
.Ltmp386:
.Lfunc_end34:
	.size	_ZNK4RNBO10CoreObject21getNumMidiOutputPortsEv, .Lfunc_end34-_ZNK4RNBO10CoreObject21getNumMidiOutputPortsEv
	.cfi_endproc
	.fnend

	.globl	_ZN4RNBO10CoreObject13scheduleEventENS_12EventVariantE
	.p2align	2
	.type	_ZN4RNBO10CoreObject13scheduleEventENS_12EventVariantE,%function
_ZN4RNBO10CoreObject13scheduleEventENS_12EventVariantE: @ @_ZN4RNBO10CoreObject13scheduleEventENS_12EventVariantE
.Lfunc_begin35:
	.loc	71 182 0 is_stmt 1      @ /root/Bela/projects/RNBO-KPStrong/rnbo/src/RNBO_CoreObject.cpp:182:0
	.fnstart
	.cfi_startproc
@ BB#0:
	.save	{r4, r5, r6, r10, r11, lr}
	push	{r4, r5, r6, r10, r11, lr}
.Ltmp402:
	.cfi_def_cfa_offset 24
.Ltmp403:
	.cfi_offset lr, -4
.Ltmp404:
	.cfi_offset r11, -8
.Ltmp405:
	.cfi_offset r10, -12
.Ltmp406:
	.cfi_offset r6, -16
.Ltmp407:
	.cfi_offset r5, -20
.Ltmp408:
	.cfi_offset r4, -24
	.setfp	r11, sp, #16
	add	r11, sp, #16
.Ltmp409:
	.cfi_def_cfa r11, 8
	.pad	#48
	sub	sp, sp, #48
	@DEBUG_VALUE: scheduleEvent:this <- %R0
	@DEBUG_VALUE: scheduleEvent:event <- [%R1+0]
.Ltmp410:
	.loc	43 126 34 prologue_end  @ /root/Bela/projects/RNBO-KPStrong/rnbo/common/RNBO_UniquePtr.h:126:34
	ldr	r4, [r0, #12]
	mov	r5, r1
.Ltmp411:
	@DEBUG_VALUE: scheduleEvent:event <- [%R5+0]
	.loc	71 183 24               @ /root/Bela/projects/RNBO-KPStrong/rnbo/src/RNBO_CoreObject.cpp:183:24
	ldr	r0, [r4]
.Ltmp412:
	ldr	r6, [r0, #52]
	mov	r0, #0
.Ltmp413:
	.loc	12 1691 192             @ /root/Bela/projects/RNBO-KPStrong/rnbo/src/3rdparty/MPark_variant/variant.hpp:1691:192
	strb	r0, [sp, #4]
.Ltmp414:
	.loc	12 1792 566 discriminator 4 @ /root/Bela/projects/RNBO-KPStrong/rnbo/src/3rdparty/MPark_variant/variant.hpp:1792:566
	mvn	r0, #0
	str	r0, [sp, #36]
.Ltmp415:
	@DEBUG_VALUE: EventVariant: <- %R5
	.loc	12 1712 10              @ /root/Bela/projects/RNBO-KPStrong/rnbo/src/3rdparty/MPark_variant/variant.hpp:1712:10
	ldr	r0, [r5, #32]
.Ltmp416:
	@DEBUG_VALUE: visit_alt_at<mpark::detail::constructor<mpark::detail::traits<RNBO::EmptyEvent, RNBO::ClockEvent, RNBO::DataRefEvent, RNBO::MidiEvent, RNBO::OutletEvent, RNBO::ParameterEvent, RNBO::UniversalEvent, RNBO::MessageEvent, RNBO::PresetEvent, RNBO::TempoEvent, RNBO::TransportEvent, RNBO::BeatTimeEvent, RNBO::TimeSignatureEvent, RNBO::StartupEvent> >::ctor, mpark::detail::constructor<mpark::detail::traits<RNBO::EmptyEvent, RNBO::ClockEvent, RNBO::DataRefEvent, RNBO::MidiEvent, RNBO::OutletEvent, RNBO::ParameterEvent, RNBO::UniversalEvent, RNBO::MessageEvent, RNBO::PresetEvent, RNBO::TempoEvent, RNBO::TransportEvent, RNBO::BeatTimeEvent, RNBO::TimeSignatureEvent, RNBO::StartupEvent> > &, const mpark::detail::copy_constructor<mpark::detail::traits<RNBO::EmptyEvent, RNBO::ClockEvent, RNBO::DataRefEvent, RNBO::MidiEvent, RNBO::OutletEvent, RNBO::ParameterEvent, RNBO::UniversalEvent, RNBO::MessageEvent, RNBO::PresetEvent, RNBO::TempoEvent, RNBO::TransportEvent, RNBO::BeatTimeEvent, RNBO::TimeSignatureEvent, RNBO::StartupEvent>, mpark::detail::Trait::Available> &>:index <- %R0
	@DEBUG_VALUE: at<void (*)(mpark::detail::constructor<mpark::detail::traits<RNBO::EmptyEvent, RNBO::ClockEvent, RNBO::DataRefEvent, RNBO::MidiEvent, RNBO::OutletEvent, RNBO::ParameterEvent, RNBO::UniversalEvent, RNBO::MessageEvent, RNBO::PresetEvent, RNBO::TempoEvent, RNBO::TransportEvent, RNBO::BeatTimeEvent, RNBO::TimeSignatureEvent, RNBO::StartupEvent> >::ctor &&, mpark::detail::base<mpark::detail::Trait::Available, RNBO::EmptyEvent, RNBO::ClockEvent, RNBO::DataRefEvent, RNBO::MidiEvent, RNBO::OutletEvent, RNBO::ParameterEvent, RNBO::UniversalEvent, RNBO::MessageEvent, RNBO::PresetEvent, RNBO::TempoEvent, RNBO::TransportEvent, RNBO::BeatTimeEvent, RNBO::TimeSignatureEvent, RNBO::StartupEvent> &, const mpark::detail::base<mpark::detail::Trait::Available, RNBO::EmptyEvent, RNBO::ClockEvent, RNBO::DataRefEvent, RNBO::MidiEvent, RNBO::OutletEvent, RNBO::ParameterEvent, RNBO::UniversalEvent, RNBO::MessageEvent, RNBO::PresetEvent, RNBO::TempoEvent, RNBO::TransportEvent, RNBO::BeatTimeEvent, RNBO::TimeSignatureEvent, RNBO::StartupEvent> &), 14>:i <- %R0
	@DEBUG_VALUE: operator[]:index <- %R0
	.loc	12 1838 7               @ /root/Bela/projects/RNBO-KPStrong/rnbo/src/3rdparty/MPark_variant/variant.hpp:1838:7
	cmn	r0, #1
	beq	.LBB35_3
.Ltmp417:
@ BB#1:
	@DEBUG_VALUE: operator[]:index <- %R0
	@DEBUG_VALUE: at<void (*)(mpark::detail::constructor<mpark::detail::traits<RNBO::EmptyEvent, RNBO::ClockEvent, RNBO::DataRefEvent, RNBO::MidiEvent, RNBO::OutletEvent, RNBO::ParameterEvent, RNBO::UniversalEvent, RNBO::MessageEvent, RNBO::PresetEvent, RNBO::TempoEvent, RNBO::TransportEvent, RNBO::BeatTimeEvent, RNBO::TimeSignatureEvent, RNBO::StartupEvent> >::ctor &&, mpark::detail::base<mpark::detail::Trait::Available, RNBO::EmptyEvent, RNBO::ClockEvent, RNBO::DataRefEvent, RNBO::MidiEvent, RNBO::OutletEvent, RNBO::ParameterEvent, RNBO::UniversalEvent, RNBO::MessageEvent, RNBO::PresetEvent, RNBO::TempoEvent, RNBO::TransportEvent, RNBO::BeatTimeEvent, RNBO::TimeSignatureEvent, RNBO::StartupEvent> &, const mpark::detail::base<mpark::detail::Trait::Available, RNBO::EmptyEvent, RNBO::ClockEvent, RNBO::DataRefEvent, RNBO::MidiEvent, RNBO::OutletEvent, RNBO::ParameterEvent, RNBO::UniversalEvent, RNBO::MessageEvent, RNBO::PresetEvent, RNBO::TempoEvent, RNBO::TransportEvent, RNBO::BeatTimeEvent, RNBO::TimeSignatureEvent, RNBO::StartupEvent> &), 14>:i <- %R0
	@DEBUG_VALUE: visit_alt_at<mpark::detail::constructor<mpark::detail::traits<RNBO::EmptyEvent, RNBO::ClockEvent, RNBO::DataRefEvent, RNBO::MidiEvent, RNBO::OutletEvent, RNBO::ParameterEvent, RNBO::UniversalEvent, RNBO::MessageEvent, RNBO::PresetEvent, RNBO::TempoEvent, RNBO::TransportEvent, RNBO::BeatTimeEvent, RNBO::TimeSignatureEvent, RNBO::StartupEvent> >::ctor, mpark::detail::constructor<mpark::detail::traits<RNBO::EmptyEvent, RNBO::ClockEvent, RNBO::DataRefEvent, RNBO::MidiEvent, RNBO::OutletEvent, RNBO::ParameterEvent, RNBO::UniversalEvent, RNBO::MessageEvent, RNBO::PresetEvent, RNBO::TempoEvent, RNBO::TransportEvent, RNBO::BeatTimeEvent, RNBO::TimeSignatureEvent, RNBO::StartupEvent> > &, const mpark::detail::copy_constructor<mpark::detail::traits<RNBO::EmptyEvent, RNBO::ClockEvent, RNBO::DataRefEvent, RNBO::MidiEvent, RNBO::OutletEvent, RNBO::ParameterEvent, RNBO::UniversalEvent, RNBO::MessageEvent, RNBO::PresetEvent, RNBO::TempoEvent, RNBO::TransportEvent, RNBO::BeatTimeEvent, RNBO::TimeSignatureEvent, RNBO::StartupEvent>, mpark::detail::Trait::Available> &>:index <- %R0
	@DEBUG_VALUE: EventVariant: <- %R5
	@DEBUG_VALUE: scheduleEvent:event <- [%R5+0]
	.loc	12 365 12               @ /root/Bela/projects/RNBO-KPStrong/rnbo/src/3rdparty/MPark_variant/variant.hpp:365:12
	movw	r1, :lower16:_ZN5mpark6detail10visitation9fdiagonalIONS0_11constructorINS0_6traitsIJN4RNBO10EmptyEventENS5_10ClockEventENS5_12DataRefEventENS5_9MidiEventENS5_11OutletEventENS5_14ParameterEventENS5_14UniversalEventENS5_12MessageEventENS5_11PresetEventENS5_10TempoEventENS5_14TransportEventENS5_13BeatTimeEventENS5_18TimeSignatureEventENS5_12StartupEventEEEEE4ctorEJRNS0_4baseILNS0_5TraitE1EJS6_S7_S8_S9_SA_SB_SC_SD_SE_SF_SG_SH_SI_SJ_EEERKSQ_EE5valueE
	movt	r1, :upper16:_ZN5mpark6detail10visitation9fdiagonalIONS0_11constructorINS0_6traitsIJN4RNBO10EmptyEventENS5_10ClockEventENS5_12DataRefEventENS5_9MidiEventENS5_11OutletEventENS5_14ParameterEventENS5_14UniversalEventENS5_12MessageEventENS5_11PresetEventENS5_10TempoEventENS5_14TransportEventENS5_13BeatTimeEventENS5_18TimeSignatureEventENS5_12StartupEventEEEEE4ctorEJRNS0_4baseILNS0_5TraitE1EJS6_S7_S8_S9_SA_SB_SC_SD_SE_SF_SG_SH_SI_SJ_EEERKSQ_EE5valueE
.Ltmp418:
	.loc	12 1544 184             @ /root/Bela/projects/RNBO-KPStrong/rnbo/src/3rdparty/MPark_variant/variant.hpp:1544:184
	ldr	r3, [r1, r0, lsl #2]
	.loc	12 1544 184 is_stmt 0 discriminator 6 @ /root/Bela/projects/RNBO-KPStrong/rnbo/src/3rdparty/MPark_variant/variant.hpp:1544:184
.Ltmp387:
	sub	r0, r11, #20
.Ltmp419:
	@DEBUG_VALUE: visit_alt_at<mpark::detail::constructor<mpark::detail::traits<RNBO::EmptyEvent, RNBO::ClockEvent, RNBO::DataRefEvent, RNBO::MidiEvent, RNBO::OutletEvent, RNBO::ParameterEvent, RNBO::UniversalEvent, RNBO::MessageEvent, RNBO::PresetEvent, RNBO::TempoEvent, RNBO::TransportEvent, RNBO::BeatTimeEvent, RNBO::TimeSignatureEvent, RNBO::StartupEvent> >::ctor, mpark::detail::constructor<mpark::detail::traits<RNBO::EmptyEvent, RNBO::ClockEvent, RNBO::DataRefEvent, RNBO::MidiEvent, RNBO::OutletEvent, RNBO::ParameterEvent, RNBO::UniversalEvent, RNBO::MessageEvent, RNBO::PresetEvent, RNBO::TempoEvent, RNBO::TransportEvent, RNBO::BeatTimeEvent, RNBO::TimeSignatureEvent, RNBO::StartupEvent> > &, const mpark::detail::copy_constructor<mpark::detail::traits<RNBO::EmptyEvent, RNBO::ClockEvent, RNBO::DataRefEvent, RNBO::MidiEvent, RNBO::OutletEvent, RNBO::ParameterEvent, RNBO::UniversalEvent, RNBO::MessageEvent, RNBO::PresetEvent, RNBO::TempoEvent, RNBO::TransportEvent, RNBO::BeatTimeEvent, RNBO::TimeSignatureEvent, RNBO::StartupEvent>, mpark::detail::Trait::Available> &>:visitor <- %R0
	add	r1, sp, #4
.Ltmp420:
	@DEBUG_VALUE: valueless_by_exception:this <- %R5
	@DEBUG_VALUE: index:this <- %R5
	@DEBUG_VALUE: index:this <- %R1
	@DEBUG_VALUE: valueless_by_exception:this <- %R1
	mov	r2, r5
	blx	r3
.Ltmp421:
.Ltmp388:
.Ltmp422:
	@DEBUG_VALUE: operator[]:this <- %R1
@ BB#2:                                 @ %.noexc.i.i.i.i.i.i.i
	@DEBUG_VALUE: operator[]:this <- %R1
	@DEBUG_VALUE: index:this <- %R5
	@DEBUG_VALUE: valueless_by_exception:this <- %R5
	@DEBUG_VALUE: EventVariant: <- %R5
	@DEBUG_VALUE: scheduleEvent:event <- [%R5+0]
	.loc	12 1852 22 is_stmt 1    @ /root/Bela/projects/RNBO-KPStrong/rnbo/src/3rdparty/MPark_variant/variant.hpp:1852:22
	ldr	r0, [r5, #32]
	.loc	12 1852 16 is_stmt 0    @ /root/Bela/projects/RNBO-KPStrong/rnbo/src/3rdparty/MPark_variant/variant.hpp:1852:16
	str	r0, [sp, #36]
.Ltmp423:
.LBB35_3:                               @ %_ZN4RNBO12EventVariantC2ERKS0_.exit
	@DEBUG_VALUE: EventVariant: <- %R5
	@DEBUG_VALUE: scheduleEvent:event <- [%R5+0]
	.loc	71 183 24 is_stmt 1     @ /root/Bela/projects/RNBO-KPStrong/rnbo/src/RNBO_CoreObject.cpp:183:24
.Ltmp393:
	add	r1, sp, #4
	mov	r0, r4
	blx	r6
.Ltmp394:
.Ltmp424:
@ BB#4:
	@DEBUG_VALUE: EventVariant: <- %R5
	@DEBUG_VALUE: scheduleEvent:event <- [%R5+0]
	.loc	12 1712 10              @ /root/Bela/projects/RNBO-KPStrong/rnbo/src/3rdparty/MPark_variant/variant.hpp:1712:10
	ldr	r0, [sp, #36]
.Ltmp425:
	@DEBUG_VALUE: at<void (*)(mpark::detail::dtor &&, mpark::detail::base<mpark::detail::Trait::Available, RNBO::EmptyEvent, RNBO::ClockEvent, RNBO::DataRefEvent, RNBO::MidiEvent, RNBO::OutletEvent, RNBO::ParameterEvent, RNBO::UniversalEvent, RNBO::MessageEvent, RNBO::PresetEvent, RNBO::TempoEvent, RNBO::TransportEvent, RNBO::BeatTimeEvent, RNBO::TimeSignatureEvent, RNBO::StartupEvent> &), 14>:i <- %R0
	@DEBUG_VALUE: operator[]:index <- %R0
	.loc	12 1792 473             @ /root/Bela/projects/RNBO-KPStrong/rnbo/src/3rdparty/MPark_variant/variant.hpp:1792:473
	cmn	r0, #1
	beq	.LBB35_6
.Ltmp426:
@ BB#5:
	@DEBUG_VALUE: operator[]:index <- %R0
	@DEBUG_VALUE: at<void (*)(mpark::detail::dtor &&, mpark::detail::base<mpark::detail::Trait::Available, RNBO::EmptyEvent, RNBO::ClockEvent, RNBO::DataRefEvent, RNBO::MidiEvent, RNBO::OutletEvent, RNBO::ParameterEvent, RNBO::UniversalEvent, RNBO::MessageEvent, RNBO::PresetEvent, RNBO::TempoEvent, RNBO::TransportEvent, RNBO::BeatTimeEvent, RNBO::TimeSignatureEvent, RNBO::StartupEvent> &), 14>:i <- %R0
	@DEBUG_VALUE: EventVariant: <- %R5
	@DEBUG_VALUE: scheduleEvent:event <- [%R5+0]
	@DEBUG_VALUE: operator[]:this <- %R1
	.loc	12 365 12               @ /root/Bela/projects/RNBO-KPStrong/rnbo/src/3rdparty/MPark_variant/variant.hpp:365:12
	movw	r1, :lower16:_ZN5mpark6detail10visitation7fmatrixIONS0_4dtorEJRNS0_4baseILNS0_5TraitE1EJN4RNBO10EmptyEventENS7_10ClockEventENS7_12DataRefEventENS7_9MidiEventENS7_11OutletEventENS7_14ParameterEventENS7_14UniversalEventENS7_12MessageEventENS7_11PresetEventENS7_10TempoEventENS7_14TransportEventENS7_13BeatTimeEventENS7_18TimeSignatureEventENS7_12StartupEventEEEEEE5valueE
.Ltmp427:
	movt	r1, :upper16:_ZN5mpark6detail10visitation7fmatrixIONS0_4dtorEJRNS0_4baseILNS0_5TraitE1EJN4RNBO10EmptyEventENS7_10ClockEventENS7_12DataRefEventENS7_9MidiEventENS7_11OutletEventENS7_14ParameterEventENS7_14UniversalEventENS7_12MessageEventENS7_11PresetEventENS7_10TempoEventENS7_14TransportEventENS7_13BeatTimeEventENS7_18TimeSignatureEventENS7_12StartupEventEEEEEE5valueE
.Ltmp428:
	.loc	12 1516 190             @ /root/Bela/projects/RNBO-KPStrong/rnbo/src/3rdparty/MPark_variant/variant.hpp:1516:190
	ldr	r2, [r1, r0, lsl #2]
	.loc	12 1516 190 is_stmt 0 discriminator 5 @ /root/Bela/projects/RNBO-KPStrong/rnbo/src/3rdparty/MPark_variant/variant.hpp:1516:190
.Ltmp399:
	sub	r0, r11, #20
.Ltmp429:
	@DEBUG_VALUE: visit_alt<mpark::detail::dtor, mpark::detail::destructor<mpark::detail::traits<RNBO::EmptyEvent, RNBO::ClockEvent, RNBO::DataRefEvent, RNBO::MidiEvent, RNBO::OutletEvent, RNBO::ParameterEvent, RNBO::UniversalEvent, RNBO::MessageEvent, RNBO::PresetEvent, RNBO::TempoEvent, RNBO::TransportEvent, RNBO::BeatTimeEvent, RNBO::TimeSignatureEvent, RNBO::StartupEvent>, mpark::detail::Trait::Available> &>:visitor <- %R0
	add	r1, sp, #4
.Ltmp430:
	@DEBUG_VALUE: index:this <- %R1
	@DEBUG_VALUE: valueless_by_exception:this <- %R1
	blx	r2
.Ltmp431:
.Ltmp400:
.Ltmp432:
.LBB35_6:                               @ %_ZN4RNBO12EventVariantD2Ev.exit3
	@DEBUG_VALUE: EventVariant: <- %R5
	@DEBUG_VALUE: scheduleEvent:event <- [%R5+0]
	.loc	71 184 2 is_stmt 1      @ /root/Bela/projects/RNBO-KPStrong/rnbo/src/RNBO_CoreObject.cpp:184:2
	sub	sp, r11, #16
	pop	{r4, r5, r6, r10, r11, pc}
.Ltmp433:
.LBB35_7:
	@DEBUG_VALUE: EventVariant: <- %R5
	@DEBUG_VALUE: scheduleEvent:event <- [%R5+0]
.Ltmp401:
.Ltmp434:
	.loc	12 1792 508 discriminator 5 @ /root/Bela/projects/RNBO-KPStrong/rnbo/src/3rdparty/MPark_variant/variant.hpp:1792:508
	mov	lr, pc
	b	__clang_call_terminate
.Ltmp435:
.LBB35_8:
	@DEBUG_VALUE: operator[]:this <- %R1
	@DEBUG_VALUE: index:this <- %R5
	@DEBUG_VALUE: valueless_by_exception:this <- %R5
	@DEBUG_VALUE: EventVariant: <- %R5
	@DEBUG_VALUE: scheduleEvent:event <- [%R5+0]
.Ltmp389:
	mov	r4, r0
.Ltmp436:
	.loc	12 1712 10              @ /root/Bela/projects/RNBO-KPStrong/rnbo/src/3rdparty/MPark_variant/variant.hpp:1712:10
	ldr	r0, [sp, #36]
.Ltmp437:
	@DEBUG_VALUE: at<void (*)(mpark::detail::dtor &&, mpark::detail::base<mpark::detail::Trait::Available, RNBO::EmptyEvent, RNBO::ClockEvent, RNBO::DataRefEvent, RNBO::MidiEvent, RNBO::OutletEvent, RNBO::ParameterEvent, RNBO::UniversalEvent, RNBO::MessageEvent, RNBO::PresetEvent, RNBO::TempoEvent, RNBO::TransportEvent, RNBO::BeatTimeEvent, RNBO::TimeSignatureEvent, RNBO::StartupEvent> &), 14>:i <- %R0
	@DEBUG_VALUE: operator[]:index <- %R0
	.loc	12 1792 473             @ /root/Bela/projects/RNBO-KPStrong/rnbo/src/3rdparty/MPark_variant/variant.hpp:1792:473
	cmn	r0, #1
	beq	.LBB35_13
.Ltmp438:
@ BB#9:
	@DEBUG_VALUE: operator[]:index <- %R0
	@DEBUG_VALUE: at<void (*)(mpark::detail::dtor &&, mpark::detail::base<mpark::detail::Trait::Available, RNBO::EmptyEvent, RNBO::ClockEvent, RNBO::DataRefEvent, RNBO::MidiEvent, RNBO::OutletEvent, RNBO::ParameterEvent, RNBO::UniversalEvent, RNBO::MessageEvent, RNBO::PresetEvent, RNBO::TempoEvent, RNBO::TransportEvent, RNBO::BeatTimeEvent, RNBO::TimeSignatureEvent, RNBO::StartupEvent> &), 14>:i <- %R0
	@DEBUG_VALUE: operator[]:this <- %R1
	@DEBUG_VALUE: index:this <- %R5
	@DEBUG_VALUE: valueless_by_exception:this <- %R5
	@DEBUG_VALUE: EventVariant: <- %R5
	@DEBUG_VALUE: scheduleEvent:event <- [%R5+0]
	@DEBUG_VALUE: operator[]:this <- %R1
	.loc	12 365 12               @ /root/Bela/projects/RNBO-KPStrong/rnbo/src/3rdparty/MPark_variant/variant.hpp:365:12
	movw	r1, :lower16:_ZN5mpark6detail10visitation7fmatrixIONS0_4dtorEJRNS0_4baseILNS0_5TraitE1EJN4RNBO10EmptyEventENS7_10ClockEventENS7_12DataRefEventENS7_9MidiEventENS7_11OutletEventENS7_14ParameterEventENS7_14UniversalEventENS7_12MessageEventENS7_11PresetEventENS7_10TempoEventENS7_14TransportEventENS7_13BeatTimeEventENS7_18TimeSignatureEventENS7_12StartupEventEEEEEE5valueE
.Ltmp439:
	movt	r1, :upper16:_ZN5mpark6detail10visitation7fmatrixIONS0_4dtorEJRNS0_4baseILNS0_5TraitE1EJN4RNBO10EmptyEventENS7_10ClockEventENS7_12DataRefEventENS7_9MidiEventENS7_11OutletEventENS7_14ParameterEventENS7_14UniversalEventENS7_12MessageEventENS7_11PresetEventENS7_10TempoEventENS7_14TransportEventENS7_13BeatTimeEventENS7_18TimeSignatureEventENS7_12StartupEventEEEEEE5valueE
.Ltmp440:
	.loc	12 1516 190             @ /root/Bela/projects/RNBO-KPStrong/rnbo/src/3rdparty/MPark_variant/variant.hpp:1516:190
	ldr	r2, [r1, r0, lsl #2]
	.loc	12 1516 190 is_stmt 0 discriminator 5 @ /root/Bela/projects/RNBO-KPStrong/rnbo/src/3rdparty/MPark_variant/variant.hpp:1516:190
.Ltmp390:
	sub	r0, r11, #24
.Ltmp441:
	@DEBUG_VALUE: visit_alt<mpark::detail::dtor, mpark::detail::destructor<mpark::detail::traits<RNBO::EmptyEvent, RNBO::ClockEvent, RNBO::DataRefEvent, RNBO::MidiEvent, RNBO::OutletEvent, RNBO::ParameterEvent, RNBO::UniversalEvent, RNBO::MessageEvent, RNBO::PresetEvent, RNBO::TempoEvent, RNBO::TransportEvent, RNBO::BeatTimeEvent, RNBO::TimeSignatureEvent, RNBO::StartupEvent>, mpark::detail::Trait::Available> &>:visitor <- %R0
	add	r1, sp, #4
	blx	r2
.Ltmp442:
.Ltmp391:
	b	.LBB35_13
.Ltmp443:
.LBB35_10:
	@DEBUG_VALUE: index:this <- %R5
	@DEBUG_VALUE: valueless_by_exception:this <- %R5
	@DEBUG_VALUE: EventVariant: <- %R5
	@DEBUG_VALUE: scheduleEvent:event <- [%R5+0]
.Ltmp392:
	.loc	12 1792 508 is_stmt 1 discriminator 5 @ /root/Bela/projects/RNBO-KPStrong/rnbo/src/3rdparty/MPark_variant/variant.hpp:1792:508
	mov	lr, pc
	b	__clang_call_terminate
.Ltmp444:
.LBB35_11:
	@DEBUG_VALUE: EventVariant: <- %R5
	@DEBUG_VALUE: scheduleEvent:event <- [%R5+0]
.Ltmp395:
	mov	r4, r0
.Ltmp445:
	.loc	12 1712 10              @ /root/Bela/projects/RNBO-KPStrong/rnbo/src/3rdparty/MPark_variant/variant.hpp:1712:10
	ldr	r0, [sp, #36]
.Ltmp446:
	@DEBUG_VALUE: at<void (*)(mpark::detail::dtor &&, mpark::detail::base<mpark::detail::Trait::Available, RNBO::EmptyEvent, RNBO::ClockEvent, RNBO::DataRefEvent, RNBO::MidiEvent, RNBO::OutletEvent, RNBO::ParameterEvent, RNBO::UniversalEvent, RNBO::MessageEvent, RNBO::PresetEvent, RNBO::TempoEvent, RNBO::TransportEvent, RNBO::BeatTimeEvent, RNBO::TimeSignatureEvent, RNBO::StartupEvent> &), 14>:i <- %R0
	@DEBUG_VALUE: operator[]:index <- %R0
	.loc	12 1792 473             @ /root/Bela/projects/RNBO-KPStrong/rnbo/src/3rdparty/MPark_variant/variant.hpp:1792:473
	cmn	r0, #1
	beq	.LBB35_13
.Ltmp447:
@ BB#12:
	@DEBUG_VALUE: operator[]:index <- %R0
	@DEBUG_VALUE: at<void (*)(mpark::detail::dtor &&, mpark::detail::base<mpark::detail::Trait::Available, RNBO::EmptyEvent, RNBO::ClockEvent, RNBO::DataRefEvent, RNBO::MidiEvent, RNBO::OutletEvent, RNBO::ParameterEvent, RNBO::UniversalEvent, RNBO::MessageEvent, RNBO::PresetEvent, RNBO::TempoEvent, RNBO::TransportEvent, RNBO::BeatTimeEvent, RNBO::TimeSignatureEvent, RNBO::StartupEvent> &), 14>:i <- %R0
	@DEBUG_VALUE: EventVariant: <- %R5
	@DEBUG_VALUE: scheduleEvent:event <- [%R5+0]
	@DEBUG_VALUE: operator[]:this <- %R1
	.loc	12 365 12               @ /root/Bela/projects/RNBO-KPStrong/rnbo/src/3rdparty/MPark_variant/variant.hpp:365:12
	movw	r1, :lower16:_ZN5mpark6detail10visitation7fmatrixIONS0_4dtorEJRNS0_4baseILNS0_5TraitE1EJN4RNBO10EmptyEventENS7_10ClockEventENS7_12DataRefEventENS7_9MidiEventENS7_11OutletEventENS7_14ParameterEventENS7_14UniversalEventENS7_12MessageEventENS7_11PresetEventENS7_10TempoEventENS7_14TransportEventENS7_13BeatTimeEventENS7_18TimeSignatureEventENS7_12StartupEventEEEEEE5valueE
.Ltmp448:
	movt	r1, :upper16:_ZN5mpark6detail10visitation7fmatrixIONS0_4dtorEJRNS0_4baseILNS0_5TraitE1EJN4RNBO10EmptyEventENS7_10ClockEventENS7_12DataRefEventENS7_9MidiEventENS7_11OutletEventENS7_14ParameterEventENS7_14UniversalEventENS7_12MessageEventENS7_11PresetEventENS7_10TempoEventENS7_14TransportEventENS7_13BeatTimeEventENS7_18TimeSignatureEventENS7_12StartupEventEEEEEE5valueE
.Ltmp449:
	.loc	12 1516 190             @ /root/Bela/projects/RNBO-KPStrong/rnbo/src/3rdparty/MPark_variant/variant.hpp:1516:190
	ldr	r2, [r1, r0, lsl #2]
	.loc	12 1516 190 is_stmt 0 discriminator 5 @ /root/Bela/projects/RNBO-KPStrong/rnbo/src/3rdparty/MPark_variant/variant.hpp:1516:190
.Ltmp396:
	sub	r0, r11, #20
.Ltmp450:
	@DEBUG_VALUE: visit_alt<mpark::detail::dtor, mpark::detail::destructor<mpark::detail::traits<RNBO::EmptyEvent, RNBO::ClockEvent, RNBO::DataRefEvent, RNBO::MidiEvent, RNBO::OutletEvent, RNBO::ParameterEvent, RNBO::UniversalEvent, RNBO::MessageEvent, RNBO::PresetEvent, RNBO::TempoEvent, RNBO::TransportEvent, RNBO::BeatTimeEvent, RNBO::TimeSignatureEvent, RNBO::StartupEvent>, mpark::detail::Trait::Available> &>:visitor <- %R0
	add	r1, sp, #4
.Ltmp451:
	@DEBUG_VALUE: index:this <- %R1
	@DEBUG_VALUE: valueless_by_exception:this <- %R1
	blx	r2
.Ltmp452:
.Ltmp397:
.Ltmp453:
.LBB35_13:                              @ %unwind_resume
	@DEBUG_VALUE: EventVariant: <- %R5
	@DEBUG_VALUE: scheduleEvent:event <- [%R5+0]
	mov	r0, r4
	mov	lr, pc
	b	_Unwind_Resume
.Ltmp454:
.LBB35_14:
	@DEBUG_VALUE: EventVariant: <- %R5
	@DEBUG_VALUE: scheduleEvent:event <- [%R5+0]
.Ltmp398:
	.loc	12 1792 508 is_stmt 1 discriminator 5 @ /root/Bela/projects/RNBO-KPStrong/rnbo/src/3rdparty/MPark_variant/variant.hpp:1792:508
	mov	lr, pc
	b	__clang_call_terminate
.Ltmp455:
.Lfunc_end35:
	.size	_ZN4RNBO10CoreObject13scheduleEventENS_12EventVariantE, .Lfunc_end35-_ZN4RNBO10CoreObject13scheduleEventENS_12EventVariantE
	.cfi_endproc
	.file	86 "<stdin>"
	.globl	__gxx_personality_v0
	.personality __gxx_personality_v0
	.handlerdata
	.p2align	2
GCC_except_table35:
.Lexception5:
	.byte	255                     @ @LPStart Encoding = omit
	.byte	0                       @ @TType Encoding = absptr
	.asciz	"\326\200\200"          @ @TType base offset
	.byte	3                       @ Call site Encoding = udata4
	.byte	78                      @ Call site table length
	.long	.Ltmp387-.Lfunc_begin35 @ >> Call Site 1 <<
	.long	.Ltmp388-.Ltmp387       @   Call between .Ltmp387 and .Ltmp388
	.long	.Ltmp389-.Lfunc_begin35 @     jumps to .Ltmp389
	.byte	0                       @   On action: cleanup
	.long	.Ltmp393-.Lfunc_begin35 @ >> Call Site 2 <<
	.long	.Ltmp394-.Ltmp393       @   Call between .Ltmp393 and .Ltmp394
	.long	.Ltmp395-.Lfunc_begin35 @     jumps to .Ltmp395
	.byte	0                       @   On action: cleanup
	.long	.Ltmp399-.Lfunc_begin35 @ >> Call Site 3 <<
	.long	.Ltmp400-.Ltmp399       @   Call between .Ltmp399 and .Ltmp400
	.long	.Ltmp401-.Lfunc_begin35 @     jumps to .Ltmp401
	.byte	1                       @   On action: 1
	.long	.Ltmp390-.Lfunc_begin35 @ >> Call Site 4 <<
	.long	.Ltmp391-.Ltmp390       @   Call between .Ltmp390 and .Ltmp391
	.long	.Ltmp392-.Lfunc_begin35 @     jumps to .Ltmp392
	.byte	1                       @   On action: 1
	.long	.Ltmp396-.Lfunc_begin35 @ >> Call Site 5 <<
	.long	.Ltmp397-.Ltmp396       @   Call between .Ltmp396 and .Ltmp397
	.long	.Ltmp398-.Lfunc_begin35 @     jumps to .Ltmp398
	.byte	1                       @   On action: 1
	.long	.Ltmp397-.Lfunc_begin35 @ >> Call Site 6 <<
	.long	.Lfunc_end35-.Ltmp397   @   Call between .Ltmp397 and .Lfunc_end35
	.long	0                       @     has no landing pad
	.byte	0                       @   On action: cleanup
	.byte	1                       @ >> Action Record 1 <<
                                        @   Catch TypeInfo 1
	.byte	0                       @   No further actions
                                        @ >> Catch TypeInfos <<
	.long	0                       @ TypeInfo 1
	.p2align	2
	.fnend

	.globl	_ZN4RNBO10CoreObject11sendMessageEjfjf
	.p2align	2
	.type	_ZN4RNBO10CoreObject11sendMessageEjfjf,%function
_ZN4RNBO10CoreObject11sendMessageEjfjf: @ @_ZN4RNBO10CoreObject11sendMessageEjfjf
.Lfunc_begin36:
	.loc	71 187 0                @ /root/Bela/projects/RNBO-KPStrong/rnbo/src/RNBO_CoreObject.cpp:187:0
	.fnstart
	.cfi_startproc
@ BB#0:
	.save	{r4, r10, r11, lr}
	push	{r4, r10, r11, lr}
.Ltmp465:
	.cfi_def_cfa_offset 16
.Ltmp466:
	.cfi_offset lr, -4
.Ltmp467:
	.cfi_offset r11, -8
.Ltmp468:
	.cfi_offset r10, -12
.Ltmp469:
	.cfi_offset r4, -16
	.setfp	r11, sp, #8
	add	r11, sp, #8
.Ltmp470:
	.cfi_def_cfa r11, 8
	.pad	#40
	sub	sp, sp, #40
	@DEBUG_VALUE: sendMessage:this <- %R0
	@DEBUG_VALUE: sendMessage:tag <- %R1
	@DEBUG_VALUE: sendMessage:payload <- %S0
	@DEBUG_VALUE: sendMessage:objectId <- %R2
	@DEBUG_VALUE: sendMessage:eventTime <- %S1
.Ltmp471:
	.loc	43 126 34 prologue_end  @ /root/Bela/projects/RNBO-KPStrong/rnbo/common/RNBO_UniquePtr.h:126:34
	ldr	r0, [r0, #12]
.Ltmp472:
	@DEBUG_VALUE: sendMessage:this <- %R0
	mov	r4, #0
.Ltmp473:
	@DEBUG_VALUE: sendMessage:eventTime <- %S1
	@DEBUG_VALUE: sendMessage:payload <- %S0
	@DEBUG_VALUE: EventVariant<RNBO::MessageEvent>:event [bit_piece offset=192 size=32] <- %R4
	@DEBUG_VALUE: EventVariant<RNBO::MessageEvent>:event [bit_piece offset=160 size=32] <- 0
	@DEBUG_VALUE: EventVariant<RNBO::MessageEvent>:event [bit_piece offset=96 size=32] <- 0
	.loc	40 44 4                 @ /root/Bela/projects/RNBO-KPStrong/rnbo/src/RNBO_ParameterEventInterface.h:44:4
	ldr	r3, [r0]
	ldr	r3, [r3, #52]
.Ltmp474:
	@DEBUG_VALUE: EventVariant<RNBO::MessageEvent>:event [bit_piece offset=0 size=32] <- %R1
	@DEBUG_VALUE: sendMessage:tag <- %R1
	@DEBUG_VALUE: EventVariant<RNBO::MessageEvent>:event [bit_piece offset=32 size=32] <- %R2
	@DEBUG_VALUE: sendMessage:objectId <- %R2
	.loc	23 110 5                @ /root/Bela/projects/RNBO-KPStrong/rnbo/src/RNBO_MessageEvent.h:110:5
	stm	sp, {r1, r2}
.Ltmp475:
	.loc	12 1709 4               @ /root/Bela/projects/RNBO-KPStrong/rnbo/src/3rdparty/MPark_variant/variant.hpp:1709:4
	mov	r1, #7
.Ltmp476:
	.loc	23 112 5                @ /root/Bela/projects/RNBO-KPStrong/rnbo/src/RNBO_MessageEvent.h:112:5
	vstr	s1, [sp, #8]
.Ltmp477:
	.loc	25 880 9                @ /usr/bin/../lib/gcc/arm-linux-gnueabihf/6.3.0/../../../../include/c++/6.3.0/bits/shared_ptr_base.h:880:9
	str	r4, [sp, #20]
.Ltmp478:
	.loc	25 563 45               @ /usr/bin/../lib/gcc/arm-linux-gnueabihf/6.3.0/../../../../include/c++/6.3.0/bits/shared_ptr_base.h:563:45
	str	r4, [sp, #24]
.Ltmp479:
	.loc	23 113 5                @ /root/Bela/projects/RNBO-KPStrong/rnbo/src/RNBO_MessageEvent.h:113:5
	str	r4, [sp, #28]
.Ltmp480:
	.loc	23 119 15               @ /root/Bela/projects/RNBO-KPStrong/rnbo/src/RNBO_MessageEvent.h:119:15
	vstr	s0, [sp, #16]
.Ltmp481:
	.loc	23 122 10               @ /root/Bela/projects/RNBO-KPStrong/rnbo/src/RNBO_MessageEvent.h:122:10
	str	r4, [sp, #12]
.Ltmp482:
	.loc	12 1709 4               @ /root/Bela/projects/RNBO-KPStrong/rnbo/src/3rdparty/MPark_variant/variant.hpp:1709:4
	str	r1, [sp, #32]
.Ltmp483:
	.loc	40 44 4 discriminator 1 @ /root/Bela/projects/RNBO-KPStrong/rnbo/src/RNBO_ParameterEventInterface.h:44:4
.Ltmp456:
	mov	r1, sp
.Ltmp484:
	@DEBUG_VALUE: EventVariant<RNBO::MessageEvent>:this <- %R1
	@DEBUG_VALUE: EventVariant<RNBO::MessageEvent>:event [bit_piece offset=224 size=32] <- 0
	blx	r3
.Ltmp485:
.Ltmp457:
@ BB#1:
.Ltmp486:
	.loc	12 1712 10              @ /root/Bela/projects/RNBO-KPStrong/rnbo/src/3rdparty/MPark_variant/variant.hpp:1712:10
	ldr	r0, [sp, #32]
.Ltmp487:
	@DEBUG_VALUE: at<void (*)(mpark::detail::dtor &&, mpark::detail::base<mpark::detail::Trait::Available, RNBO::EmptyEvent, RNBO::ClockEvent, RNBO::DataRefEvent, RNBO::MidiEvent, RNBO::OutletEvent, RNBO::ParameterEvent, RNBO::UniversalEvent, RNBO::MessageEvent, RNBO::PresetEvent, RNBO::TempoEvent, RNBO::TransportEvent, RNBO::BeatTimeEvent, RNBO::TimeSignatureEvent, RNBO::StartupEvent> &), 14>:i <- %R0
	@DEBUG_VALUE: operator[]:index <- %R0
	.loc	12 1792 473             @ /root/Bela/projects/RNBO-KPStrong/rnbo/src/3rdparty/MPark_variant/variant.hpp:1792:473
	cmn	r0, #1
	beq	.LBB36_3
.Ltmp488:
@ BB#2:
	@DEBUG_VALUE: operator[]:index <- %R0
	@DEBUG_VALUE: at<void (*)(mpark::detail::dtor &&, mpark::detail::base<mpark::detail::Trait::Available, RNBO::EmptyEvent, RNBO::ClockEvent, RNBO::DataRefEvent, RNBO::MidiEvent, RNBO::OutletEvent, RNBO::ParameterEvent, RNBO::UniversalEvent, RNBO::MessageEvent, RNBO::PresetEvent, RNBO::TempoEvent, RNBO::TransportEvent, RNBO::BeatTimeEvent, RNBO::TimeSignatureEvent, RNBO::StartupEvent> &), 14>:i <- %R0
	@DEBUG_VALUE: operator[]:this <- %R1
	.loc	12 365 12               @ /root/Bela/projects/RNBO-KPStrong/rnbo/src/3rdparty/MPark_variant/variant.hpp:365:12
	movw	r1, :lower16:_ZN5mpark6detail10visitation7fmatrixIONS0_4dtorEJRNS0_4baseILNS0_5TraitE1EJN4RNBO10EmptyEventENS7_10ClockEventENS7_12DataRefEventENS7_9MidiEventENS7_11OutletEventENS7_14ParameterEventENS7_14UniversalEventENS7_12MessageEventENS7_11PresetEventENS7_10TempoEventENS7_14TransportEventENS7_13BeatTimeEventENS7_18TimeSignatureEventENS7_12StartupEventEEEEEE5valueE
.Ltmp489:
	movt	r1, :upper16:_ZN5mpark6detail10visitation7fmatrixIONS0_4dtorEJRNS0_4baseILNS0_5TraitE1EJN4RNBO10EmptyEventENS7_10ClockEventENS7_12DataRefEventENS7_9MidiEventENS7_11OutletEventENS7_14ParameterEventENS7_14UniversalEventENS7_12MessageEventENS7_11PresetEventENS7_10TempoEventENS7_14TransportEventENS7_13BeatTimeEventENS7_18TimeSignatureEventENS7_12StartupEventEEEEEE5valueE
.Ltmp490:
	.loc	12 1516 190             @ /root/Bela/projects/RNBO-KPStrong/rnbo/src/3rdparty/MPark_variant/variant.hpp:1516:190
	ldr	r2, [r1, r0, lsl #2]
	.loc	12 1516 190 is_stmt 0 discriminator 5 @ /root/Bela/projects/RNBO-KPStrong/rnbo/src/3rdparty/MPark_variant/variant.hpp:1516:190
.Ltmp462:
	sub	r0, r11, #12
.Ltmp491:
	@DEBUG_VALUE: visit_alt<mpark::detail::dtor, mpark::detail::destructor<mpark::detail::traits<RNBO::EmptyEvent, RNBO::ClockEvent, RNBO::DataRefEvent, RNBO::MidiEvent, RNBO::OutletEvent, RNBO::ParameterEvent, RNBO::UniversalEvent, RNBO::MessageEvent, RNBO::PresetEvent, RNBO::TempoEvent, RNBO::TransportEvent, RNBO::BeatTimeEvent, RNBO::TimeSignatureEvent, RNBO::StartupEvent>, mpark::detail::Trait::Available> &>:visitor <- %R0
	mov	r1, sp
.Ltmp492:
	@DEBUG_VALUE: index:this <- %R1
	@DEBUG_VALUE: valueless_by_exception:this <- %R1
	blx	r2
.Ltmp493:
.Ltmp463:
.Ltmp494:
.LBB36_3:                               @ %_ZN4RNBO23ParameterEventInterface11sendMessageEjfjf.exit
	.loc	71 193 2 is_stmt 1      @ /root/Bela/projects/RNBO-KPStrong/rnbo/src/RNBO_CoreObject.cpp:193:2
	sub	sp, r11, #8
	pop	{r4, r10, r11, pc}
.LBB36_4:
.Ltmp464:
.Ltmp495:
	.loc	12 1792 508 discriminator 5 @ /root/Bela/projects/RNBO-KPStrong/rnbo/src/3rdparty/MPark_variant/variant.hpp:1792:508
	mov	lr, pc
	b	__clang_call_terminate
.Ltmp496:
.LBB36_5:
.Ltmp458:
	mov	r4, r0
.Ltmp497:
	.loc	12 1712 10              @ /root/Bela/projects/RNBO-KPStrong/rnbo/src/3rdparty/MPark_variant/variant.hpp:1712:10
	ldr	r0, [sp, #32]
.Ltmp498:
	@DEBUG_VALUE: at<void (*)(mpark::detail::dtor &&, mpark::detail::base<mpark::detail::Trait::Available, RNBO::EmptyEvent, RNBO::ClockEvent, RNBO::DataRefEvent, RNBO::MidiEvent, RNBO::OutletEvent, RNBO::ParameterEvent, RNBO::UniversalEvent, RNBO::MessageEvent, RNBO::PresetEvent, RNBO::TempoEvent, RNBO::TransportEvent, RNBO::BeatTimeEvent, RNBO::TimeSignatureEvent, RNBO::StartupEvent> &), 14>:i <- %R0
	@DEBUG_VALUE: operator[]:index <- %R0
	.loc	12 1792 473             @ /root/Bela/projects/RNBO-KPStrong/rnbo/src/3rdparty/MPark_variant/variant.hpp:1792:473
	cmn	r0, #1
	beq	.LBB36_7
.Ltmp499:
@ BB#6:
	@DEBUG_VALUE: operator[]:index <- %R0
	@DEBUG_VALUE: at<void (*)(mpark::detail::dtor &&, mpark::detail::base<mpark::detail::Trait::Available, RNBO::EmptyEvent, RNBO::ClockEvent, RNBO::DataRefEvent, RNBO::MidiEvent, RNBO::OutletEvent, RNBO::ParameterEvent, RNBO::UniversalEvent, RNBO::MessageEvent, RNBO::PresetEvent, RNBO::TempoEvent, RNBO::TransportEvent, RNBO::BeatTimeEvent, RNBO::TimeSignatureEvent, RNBO::StartupEvent> &), 14>:i <- %R0
	@DEBUG_VALUE: operator[]:this <- %R1
	.loc	12 365 12               @ /root/Bela/projects/RNBO-KPStrong/rnbo/src/3rdparty/MPark_variant/variant.hpp:365:12
	movw	r1, :lower16:_ZN5mpark6detail10visitation7fmatrixIONS0_4dtorEJRNS0_4baseILNS0_5TraitE1EJN4RNBO10EmptyEventENS7_10ClockEventENS7_12DataRefEventENS7_9MidiEventENS7_11OutletEventENS7_14ParameterEventENS7_14UniversalEventENS7_12MessageEventENS7_11PresetEventENS7_10TempoEventENS7_14TransportEventENS7_13BeatTimeEventENS7_18TimeSignatureEventENS7_12StartupEventEEEEEE5valueE
.Ltmp500:
	movt	r1, :upper16:_ZN5mpark6detail10visitation7fmatrixIONS0_4dtorEJRNS0_4baseILNS0_5TraitE1EJN4RNBO10EmptyEventENS7_10ClockEventENS7_12DataRefEventENS7_9MidiEventENS7_11OutletEventENS7_14ParameterEventENS7_14UniversalEventENS7_12MessageEventENS7_11PresetEventENS7_10TempoEventENS7_14TransportEventENS7_13BeatTimeEventENS7_18TimeSignatureEventENS7_12StartupEventEEEEEE5valueE
.Ltmp501:
	.loc	12 1516 190             @ /root/Bela/projects/RNBO-KPStrong/rnbo/src/3rdparty/MPark_variant/variant.hpp:1516:190
	ldr	r2, [r1, r0, lsl #2]
	.loc	12 1516 190 is_stmt 0 discriminator 5 @ /root/Bela/projects/RNBO-KPStrong/rnbo/src/3rdparty/MPark_variant/variant.hpp:1516:190
.Ltmp459:
	sub	r0, r11, #12
.Ltmp502:
	@DEBUG_VALUE: visit_alt<mpark::detail::dtor, mpark::detail::destructor<mpark::detail::traits<RNBO::EmptyEvent, RNBO::ClockEvent, RNBO::DataRefEvent, RNBO::MidiEvent, RNBO::OutletEvent, RNBO::ParameterEvent, RNBO::UniversalEvent, RNBO::MessageEvent, RNBO::PresetEvent, RNBO::TempoEvent, RNBO::TransportEvent, RNBO::BeatTimeEvent, RNBO::TimeSignatureEvent, RNBO::StartupEvent>, mpark::detail::Trait::Available> &>:visitor <- %R0
	mov	r1, sp
.Ltmp503:
	@DEBUG_VALUE: index:this <- %R1
	@DEBUG_VALUE: valueless_by_exception:this <- %R1
	blx	r2
.Ltmp504:
.Ltmp460:
.Ltmp505:
.LBB36_7:                               @ %_ZN4RNBO12MessageEventD2Ev.exit.i
	mov	r0, r4
	mov	lr, pc
	b	_Unwind_Resume
.LBB36_8:
.Ltmp461:
	.loc	12 1792 508 is_stmt 1 discriminator 5 @ /root/Bela/projects/RNBO-KPStrong/rnbo/src/3rdparty/MPark_variant/variant.hpp:1792:508
	mov	lr, pc
	b	__clang_call_terminate
.Ltmp506:
.Lfunc_end36:
	.size	_ZN4RNBO10CoreObject11sendMessageEjfjf, .Lfunc_end36-_ZN4RNBO10CoreObject11sendMessageEjfjf
	.cfi_endproc
	.globl	__gxx_personality_v0
	.personality __gxx_personality_v0
	.handlerdata
	.p2align	2
GCC_except_table36:
.Lexception6:
	.byte	255                     @ @LPStart Encoding = omit
	.byte	0                       @ @TType Encoding = absptr
	.asciz	"\274"                  @ @TType base offset
	.byte	3                       @ Call site Encoding = udata4
	.byte	52                      @ Call site table length
	.long	.Ltmp456-.Lfunc_begin36 @ >> Call Site 1 <<
	.long	.Ltmp457-.Ltmp456       @   Call between .Ltmp456 and .Ltmp457
	.long	.Ltmp458-.Lfunc_begin36 @     jumps to .Ltmp458
	.byte	0                       @   On action: cleanup
	.long	.Ltmp462-.Lfunc_begin36 @ >> Call Site 2 <<
	.long	.Ltmp463-.Ltmp462       @   Call between .Ltmp462 and .Ltmp463
	.long	.Ltmp464-.Lfunc_begin36 @     jumps to .Ltmp464
	.byte	1                       @   On action: 1
	.long	.Ltmp459-.Lfunc_begin36 @ >> Call Site 3 <<
	.long	.Ltmp460-.Ltmp459       @   Call between .Ltmp459 and .Ltmp460
	.long	.Ltmp461-.Lfunc_begin36 @     jumps to .Ltmp461
	.byte	1                       @   On action: 1
	.long	.Ltmp460-.Lfunc_begin36 @ >> Call Site 4 <<
	.long	.Lfunc_end36-.Ltmp460   @   Call between .Ltmp460 and .Lfunc_end36
	.long	0                       @     has no landing pad
	.byte	0                       @   On action: cleanup
	.byte	1                       @ >> Action Record 1 <<
                                        @   Catch TypeInfo 1
	.byte	0                       @   No further actions
                                        @ >> Catch TypeInfos <<
	.long	0                       @ TypeInfo 1
	.p2align	2
	.fnend

	.globl	_ZN4RNBO10CoreObject11sendMessageEjSt10unique_ptrINS_8listbaseIfEESt14default_deleteIS3_EEjf
	.p2align	2
	.type	_ZN4RNBO10CoreObject11sendMessageEjSt10unique_ptrINS_8listbaseIfEESt14default_deleteIS3_EEjf,%function
_ZN4RNBO10CoreObject11sendMessageEjSt10unique_ptrINS_8listbaseIfEESt14default_deleteIS3_EEjf: @ @_ZN4RNBO10CoreObject11sendMessageEjSt10unique_ptrINS_8listbaseIfEESt14default_deleteIS3_EEjf
.Lfunc_begin37:
	.loc	71 196 0                @ /root/Bela/projects/RNBO-KPStrong/rnbo/src/RNBO_CoreObject.cpp:196:0
	.fnstart
	.cfi_startproc
@ BB#0:
	.save	{r4, r5, r11, lr}
	push	{r4, r5, r11, lr}
.Ltmp516:
	.cfi_def_cfa_offset 16
.Ltmp517:
	.cfi_offset lr, -4
.Ltmp518:
	.cfi_offset r11, -8
.Ltmp519:
	.cfi_offset r5, -12
.Ltmp520:
	.cfi_offset r4, -16
	.setfp	r11, sp, #8
	add	r11, sp, #8
.Ltmp521:
	.cfi_def_cfa r11, 8
	.pad	#8
	sub	sp, sp, #8
	@DEBUG_VALUE: sendMessage:this <- %R0
	@DEBUG_VALUE: sendMessage:tag <- %R1
	@DEBUG_VALUE: sendMessage:payload <- [%R2+0]
	@DEBUG_VALUE: sendMessage:objectId <- %R3
	@DEBUG_VALUE: sendMessage:eventTime <- %S0
.Ltmp522:
	.loc	43 126 34 prologue_end  @ /root/Bela/projects/RNBO-KPStrong/rnbo/common/RNBO_UniquePtr.h:126:34
	ldr	r0, [r0, #12]
.Ltmp523:
	@DEBUG_VALUE: get:this <- %R2
	@DEBUG_VALUE: release:this <- %R2
	@DEBUG_VALUE: unique_ptr:__u <- %R2
	mov	r4, #0
.Ltmp524:
	.loc	7 308 16                @ /usr/bin/../lib/gcc/arm-linux-gnueabihf/6.3.0/../../../../include/c++/6.3.0/bits/unique_ptr.h:308:16
	ldr	r5, [r2]
.Ltmp525:
	.loc	7 331 20                @ /usr/bin/../lib/gcc/arm-linux-gnueabihf/6.3.0/../../../../include/c++/6.3.0/bits/unique_ptr.h:331:20
	str	r4, [r2]
.Ltmp526:
	.loc	8 115 4                 @ /usr/bin/../lib/gcc/arm-linux-gnueabihf/6.3.0/../../../../include/c++/6.3.0/tuple:115:4
	str	r5, [sp, #4]
.Ltmp527:
	.loc	71 200 24               @ /root/Bela/projects/RNBO-KPStrong/rnbo/src/RNBO_CoreObject.cpp:200:24
.Ltmp507:
	add	r2, sp, #4
.Ltmp528:
	@DEBUG_VALUE: unique_ptr:this <- %R2
	bl	_ZN4RNBO23ParameterEventInterface11sendMessageEjSt10unique_ptrINS_8listbaseIfEESt14default_deleteIS3_EEjf
.Ltmp529:
.Ltmp508:
@ BB#1:
.Ltmp530:
	.loc	7 238 6                 @ /usr/bin/../lib/gcc/arm-linux-gnueabihf/6.3.0/../../../../include/c++/6.3.0/bits/unique_ptr.h:238:6
	ldr	r4, [sp, #4]
.Ltmp531:
	@DEBUG_VALUE: operator():__ptr <- %R4
	@DEBUG_VALUE: ~listbase:this <- %R4
	.loc	7 238 6 is_stmt 0       @ /usr/bin/../lib/gcc/arm-linux-gnueabihf/6.3.0/../../../../include/c++/6.3.0/bits/unique_ptr.h:238:6
	cmp	r4, #0
	beq	.LBB37_5
.Ltmp532:
@ BB#2:
	@DEBUG_VALUE: ~listbase:this <- %R4
	@DEBUG_VALUE: operator():__ptr <- %R4
	.loc	24 123 8 is_stmt 1      @ /root/Bela/projects/RNBO-KPStrong/rnbo/common/RNBO_List.h:123:8
	ldr	r1, [r4, #4]
.Ltmp533:
	.loc	24 123 8 is_stmt 0      @ /root/Bela/projects/RNBO-KPStrong/rnbo/common/RNBO_List.h:123:8
	cmp	r1, #0
	beq	.LBB37_4
.Ltmp534:
@ BB#3:
	@DEBUG_VALUE: ~listbase:this <- %R4
	@DEBUG_VALUE: operator():__ptr <- %R4
	.loc	39 63 11 is_stmt 1      @ /root/Bela/projects/RNBO-KPStrong/rnbo/common/RNBO_PlatformInterface.h:63:11
	movw	r0, :lower16:_ZZN4RNBO8Platform8instanceEvE9pInstance
	movt	r0, :upper16:_ZZN4RNBO8Platform8instanceEvE9pInstance
	ldr	r0, [r0]
.Ltmp535:
	.loc	24 124 22 discriminator 1 @ /root/Bela/projects/RNBO-KPStrong/rnbo/common/RNBO_List.h:124:22
	ldr	r2, [r0]
	ldr	r2, [r2, #28]
.Ltmp513:
	blx	r2
.Ltmp514:
.Ltmp536:
.LBB37_4:                               @ %_ZNKSt14default_deleteIN4RNBO8listbaseIfEEEclEPS2_.exit.i5
	@DEBUG_VALUE: ~listbase:this <- %R4
	@DEBUG_VALUE: operator():__ptr <- %R4
	.loc	7 76 2 discriminator 2  @ /usr/bin/../lib/gcc/arm-linux-gnueabihf/6.3.0/../../../../include/c++/6.3.0/bits/unique_ptr.h:76:2
	mov	r0, r4
	bl	_ZdlPv
.Ltmp537:
.LBB37_5:                               @ %_ZNSt10unique_ptrIN4RNBO8listbaseIfEESt14default_deleteIS2_EED2Ev.exit6
	@DEBUG_VALUE: ~listbase:this <- %R4
	@DEBUG_VALUE: operator():__ptr <- %R4
	.loc	71 202 2                @ /root/Bela/projects/RNBO-KPStrong/rnbo/src/RNBO_CoreObject.cpp:202:2
	sub	sp, r11, #8
	pop	{r4, r5, r11, pc}
.Ltmp538:
.LBB37_6:
	@DEBUG_VALUE: ~listbase:this <- %R4
	@DEBUG_VALUE: operator():__ptr <- %R4
.Ltmp515:
.Ltmp539:
	.loc	24 124 5 discriminator 2 @ /root/Bela/projects/RNBO-KPStrong/rnbo/common/RNBO_List.h:124:5
	mov	lr, pc
	b	__clang_call_terminate
.Ltmp540:
.LBB37_7:
.Ltmp509:
.Ltmp541:
	.loc	7 238 6                 @ /usr/bin/../lib/gcc/arm-linux-gnueabihf/6.3.0/../../../../include/c++/6.3.0/bits/unique_ptr.h:238:6
	ldr	r5, [sp, #4]
.Ltmp542:
	@DEBUG_VALUE: operator():__ptr <- %R5
	@DEBUG_VALUE: ~listbase:this <- %R5
	mov	r4, r0
.Ltmp543:
	.loc	7 238 6 is_stmt 0       @ /usr/bin/../lib/gcc/arm-linux-gnueabihf/6.3.0/../../../../include/c++/6.3.0/bits/unique_ptr.h:238:6
	cmp	r5, #0
	beq	.LBB37_11
.Ltmp544:
@ BB#8:
	@DEBUG_VALUE: ~listbase:this <- %R5
	@DEBUG_VALUE: operator():__ptr <- %R5
	.loc	24 123 8 is_stmt 1      @ /root/Bela/projects/RNBO-KPStrong/rnbo/common/RNBO_List.h:123:8
	ldr	r1, [r5, #4]
.Ltmp545:
	.loc	24 123 8 is_stmt 0      @ /root/Bela/projects/RNBO-KPStrong/rnbo/common/RNBO_List.h:123:8
	cmp	r1, #0
	beq	.LBB37_10
.Ltmp546:
@ BB#9:
	@DEBUG_VALUE: ~listbase:this <- %R5
	@DEBUG_VALUE: operator():__ptr <- %R5
	.loc	39 63 11 is_stmt 1      @ /root/Bela/projects/RNBO-KPStrong/rnbo/common/RNBO_PlatformInterface.h:63:11
	movw	r0, :lower16:_ZZN4RNBO8Platform8instanceEvE9pInstance
	movt	r0, :upper16:_ZZN4RNBO8Platform8instanceEvE9pInstance
	ldr	r0, [r0]
.Ltmp547:
	.loc	24 124 22 discriminator 1 @ /root/Bela/projects/RNBO-KPStrong/rnbo/common/RNBO_List.h:124:22
	ldr	r2, [r0]
	ldr	r2, [r2, #28]
.Ltmp510:
	blx	r2
.Ltmp511:
.Ltmp548:
.LBB37_10:                              @ %_ZNKSt14default_deleteIN4RNBO8listbaseIfEEEclEPS2_.exit.i
	@DEBUG_VALUE: ~listbase:this <- %R5
	@DEBUG_VALUE: operator():__ptr <- %R5
	.loc	7 76 2 discriminator 2  @ /usr/bin/../lib/gcc/arm-linux-gnueabihf/6.3.0/../../../../include/c++/6.3.0/bits/unique_ptr.h:76:2
	mov	r0, r5
	bl	_ZdlPv
.Ltmp549:
.LBB37_11:                              @ %_ZNSt10unique_ptrIN4RNBO8listbaseIfEESt14default_deleteIS2_EED2Ev.exit
	@DEBUG_VALUE: ~listbase:this <- %R5
	@DEBUG_VALUE: operator():__ptr <- %R5
	mov	r0, r4
	mov	lr, pc
	b	_Unwind_Resume
.Ltmp550:
.LBB37_12:
	@DEBUG_VALUE: ~listbase:this <- %R5
	@DEBUG_VALUE: operator():__ptr <- %R5
.Ltmp512:
.Ltmp551:
	.loc	24 124 5 discriminator 2 @ /root/Bela/projects/RNBO-KPStrong/rnbo/common/RNBO_List.h:124:5
	mov	lr, pc
	b	__clang_call_terminate
.Ltmp552:
.Lfunc_end37:
	.size	_ZN4RNBO10CoreObject11sendMessageEjSt10unique_ptrINS_8listbaseIfEESt14default_deleteIS3_EEjf, .Lfunc_end37-_ZN4RNBO10CoreObject11sendMessageEjSt10unique_ptrINS_8listbaseIfEESt14default_deleteIS3_EEjf
	.cfi_endproc
	.globl	__gxx_personality_v0
	.personality __gxx_personality_v0
	.handlerdata
	.p2align	2
GCC_except_table37:
.Lexception7:
	.byte	255                     @ @LPStart Encoding = omit
	.byte	0                       @ @TType Encoding = absptr
	.asciz	"\274"                  @ @TType base offset
	.byte	3                       @ Call site Encoding = udata4
	.byte	52                      @ Call site table length
	.long	.Ltmp507-.Lfunc_begin37 @ >> Call Site 1 <<
	.long	.Ltmp508-.Ltmp507       @   Call between .Ltmp507 and .Ltmp508
	.long	.Ltmp509-.Lfunc_begin37 @     jumps to .Ltmp509
	.byte	0                       @   On action: cleanup
	.long	.Ltmp513-.Lfunc_begin37 @ >> Call Site 2 <<
	.long	.Ltmp514-.Ltmp513       @   Call between .Ltmp513 and .Ltmp514
	.long	.Ltmp515-.Lfunc_begin37 @     jumps to .Ltmp515
	.byte	1                       @   On action: 1
	.long	.Ltmp510-.Lfunc_begin37 @ >> Call Site 3 <<
	.long	.Ltmp511-.Ltmp510       @   Call between .Ltmp510 and .Ltmp511
	.long	.Ltmp512-.Lfunc_begin37 @     jumps to .Ltmp512
	.byte	1                       @   On action: 1
	.long	.Ltmp511-.Lfunc_begin37 @ >> Call Site 4 <<
	.long	.Lfunc_end37-.Ltmp511   @   Call between .Ltmp511 and .Lfunc_end37
	.long	0                       @     has no landing pad
	.byte	0                       @   On action: cleanup
	.byte	1                       @ >> Action Record 1 <<
                                        @   Catch TypeInfo 1
	.byte	0                       @   No further actions
                                        @ >> Catch TypeInfos <<
	.long	0                       @ TypeInfo 1
	.p2align	2
	.fnend

	.section	.text._ZN4RNBO23ParameterEventInterface11sendMessageEjSt10unique_ptrINS_8listbaseIfEESt14default_deleteIS3_EEjf,"axG",%progbits,_ZN4RNBO23ParameterEventInterface11sendMessageEjSt10unique_ptrINS_8listbaseIfEESt14default_deleteIS3_EEjf,comdat
	.weak	_ZN4RNBO23ParameterEventInterface11sendMessageEjSt10unique_ptrINS_8listbaseIfEESt14default_deleteIS3_EEjf
	.p2align	2
	.type	_ZN4RNBO23ParameterEventInterface11sendMessageEjSt10unique_ptrINS_8listbaseIfEESt14default_deleteIS3_EEjf,%function
_ZN4RNBO23ParameterEventInterface11sendMessageEjSt10unique_ptrINS_8listbaseIfEESt14default_deleteIS3_EEjf: @ @_ZN4RNBO23ParameterEventInterface11sendMessageEjSt10unique_ptrINS_8listbaseIfEESt14default_deleteIS3_EEjf
.Lfunc_begin38:
	.loc	40 49 0                 @ /root/Bela/projects/RNBO-KPStrong/rnbo/src/RNBO_ParameterEventInterface.h:49:0
	.fnstart
	.cfi_startproc
@ BB#0:
	.save	{r4, r5, r6, r7, r8, r9, r11, lr}
	push	{r4, r5, r6, r7, r8, r9, r11, lr}
.Ltmp571:
	.cfi_def_cfa_offset 32
.Ltmp572:
	.cfi_offset lr, -4
.Ltmp573:
	.cfi_offset r11, -8
.Ltmp574:
	.cfi_offset r9, -12
.Ltmp575:
	.cfi_offset r8, -16
.Ltmp576:
	.cfi_offset r7, -20
.Ltmp577:
	.cfi_offset r6, -24
.Ltmp578:
	.cfi_offset r5, -28
.Ltmp579:
	.cfi_offset r4, -32
	.setfp	r11, sp, #24
	add	r11, sp, #24
.Ltmp580:
	.cfi_def_cfa r11, 8
	.pad	#80
	sub	sp, sp, #80
	@DEBUG_VALUE: sendMessage:this <- %R0
	@DEBUG_VALUE: sendMessage:tag <- %R1
	@DEBUG_VALUE: sendMessage:payload <- [%R2+0]
	@DEBUG_VALUE: sendMessage:objectId <- %R3
	@DEBUG_VALUE: sendMessage:eventTime <- %S0
	mov	r4, r0
.Ltmp581:
	@DEBUG_VALUE: sendMessage:this <- %R4
	.loc	7 308 16 prologue_end   @ /usr/bin/../lib/gcc/arm-linux-gnueabihf/6.3.0/../../../../include/c++/6.3.0/bits/unique_ptr.h:308:16
	ldr	r7, [r2]
.Ltmp582:
	.loc	40 53 4                 @ /root/Bela/projects/RNBO-KPStrong/rnbo/src/RNBO_ParameterEventInterface.h:53:4
	ldr	r0, [r4]
.Ltmp583:
	@DEBUG_VALUE: get:this <- %R2
	@DEBUG_VALUE: release:this <- %R2
	@DEBUG_VALUE: unique_ptr:__u <- %R2
	mov	r5, #0
.Ltmp584:
	@DEBUG_VALUE: MessageEvent:eventTime <- %S0
	ldr	r6, [r0, #52]
.Ltmp585:
	.loc	23 94 5                 @ /root/Bela/projects/RNBO-KPStrong/rnbo/src/RNBO_MessageEvent.h:94:5
	mov	r0, #1
.Ltmp586:
	.loc	7 331 20                @ /usr/bin/../lib/gcc/arm-linux-gnueabihf/6.3.0/../../../../include/c++/6.3.0/bits/unique_ptr.h:331:20
	str	r5, [r2]
.Ltmp587:
	.loc	23 91 5                 @ /root/Bela/projects/RNBO-KPStrong/rnbo/src/RNBO_MessageEvent.h:91:5
	str	r1, [sp, #8]
.Ltmp588:
	@DEBUG_VALUE: MessageEvent:objectId <- %R3
	.loc	23 92 5                 @ /root/Bela/projects/RNBO-KPStrong/rnbo/src/RNBO_MessageEvent.h:92:5
	str	r3, [sp, #12]
	.loc	23 93 5                 @ /root/Bela/projects/RNBO-KPStrong/rnbo/src/RNBO_MessageEvent.h:93:5
	vstr	s0, [sp, #16]
.Ltmp589:
	.loc	8 115 4                 @ /usr/bin/../lib/gcc/arm-linux-gnueabihf/6.3.0/../../../../include/c++/6.3.0/tuple:115:4
	str	r7, [sp, #4]
.Ltmp590:
	@DEBUG_VALUE: MessageEvent:tag <- %R1
	.loc	23 94 5                 @ /root/Bela/projects/RNBO-KPStrong/rnbo/src/RNBO_MessageEvent.h:94:5
	str	r0, [sp, #20]
.Ltmp591:
	.loc	29 263 4 discriminator 1 @ /usr/bin/../lib/gcc/arm-linux-gnueabihf/6.3.0/../../../../include/c++/6.3.0/bits/shared_ptr.h:263:4
.Ltmp553:
	add	r0, sp, #8
.Ltmp592:
	@DEBUG_VALUE: MessageEvent:this <- %R0
	add	r1, sp, #4
.Ltmp593:
	@DEBUG_VALUE: shared_ptr<RNBO::listbase<float>, std::default_delete<RNBO::listbase<float> >, void>:__r <- %R1
	@DEBUG_VALUE: unique_ptr:this <- %R1
	.loc	29 263 38 is_stmt 0     @ /usr/bin/../lib/gcc/arm-linux-gnueabihf/6.3.0/../../../../include/c++/6.3.0/bits/shared_ptr.h:263:38
	add	r0, r0, #20
.Ltmp594:
	.loc	29 263 4 discriminator 1 @ /usr/bin/../lib/gcc/arm-linux-gnueabihf/6.3.0/../../../../include/c++/6.3.0/bits/shared_ptr.h:263:4
	bl	_ZNSt12__shared_ptrIN4RNBO8listbaseIfEELN9__gnu_cxx12_Lock_policyE2EEC2IS2_St14default_deleteIS2_EvEEOSt10unique_ptrIT_T0_E
.Ltmp595:
.Ltmp554:
.Ltmp596:
@ BB#1:
	@DEBUG_VALUE: sendMessage:this <- %R4
	@DEBUG_VALUE: MessageEvent:eventTarget <- %R5
	.loc	23 96 5 is_stmt 1       @ /root/Bela/projects/RNBO-KPStrong/rnbo/src/RNBO_MessageEvent.h:96:5
	str	r5, [sp, #36]
.Ltmp597:
	.loc	23 110 16               @ /root/Bela/projects/RNBO-KPStrong/rnbo/src/RNBO_MessageEvent.h:110:16
	ldr	r0, [sp, #8]
	.loc	23 110 5 is_stmt 0      @ /root/Bela/projects/RNBO-KPStrong/rnbo/src/RNBO_MessageEvent.h:110:5
	str	r0, [sp, #40]
	.loc	23 111 21 is_stmt 1     @ /root/Bela/projects/RNBO-KPStrong/rnbo/src/RNBO_MessageEvent.h:111:21
	ldr	r0, [sp, #12]
	.loc	23 111 5 is_stmt 0      @ /root/Bela/projects/RNBO-KPStrong/rnbo/src/RNBO_MessageEvent.h:111:5
	str	r0, [sp, #44]
	.loc	23 112 22 is_stmt 1     @ /root/Bela/projects/RNBO-KPStrong/rnbo/src/RNBO_MessageEvent.h:112:22
	ldr	r0, [sp, #16]
	.loc	23 112 5 is_stmt 0      @ /root/Bela/projects/RNBO-KPStrong/rnbo/src/RNBO_MessageEvent.h:112:5
	str	r0, [sp, #48]
	.loc	23 214 22 is_stmt 1     @ /root/Bela/projects/RNBO-KPStrong/rnbo/src/RNBO_MessageEvent.h:214:22
	mvn	r0, #0
	str	r0, [sp, #52]
.Ltmp598:
	.loc	23 115 14               @ /root/Bela/projects/RNBO-KPStrong/rnbo/src/RNBO_MessageEvent.h:115:14
	ldr	r0, [sp, #20]
.Ltmp599:
	.loc	25 880 9                @ /usr/bin/../lib/gcc/arm-linux-gnueabihf/6.3.0/../../../../include/c++/6.3.0/bits/shared_ptr_base.h:880:9
	str	r5, [sp, #60]
.Ltmp600:
	.loc	25 563 45               @ /usr/bin/../lib/gcc/arm-linux-gnueabihf/6.3.0/../../../../include/c++/6.3.0/bits/shared_ptr_base.h:563:45
	str	r5, [sp, #64]
.Ltmp601:
	.loc	23 115 8                @ /root/Bela/projects/RNBO-KPStrong/rnbo/src/RNBO_MessageEvent.h:115:8
	cmp	r0, #0
.Ltmp602:
	.loc	23 113 5                @ /root/Bela/projects/RNBO-KPStrong/rnbo/src/RNBO_MessageEvent.h:113:5
	str	r5, [sp, #68]
.Ltmp603:
	.loc	23 115 8                @ /root/Bela/projects/RNBO-KPStrong/rnbo/src/RNBO_MessageEvent.h:115:8
	beq	.LBB38_12
.Ltmp604:
@ BB#2:
	@DEBUG_VALUE: MessageEvent:eventTarget <- %R5
	@DEBUG_VALUE: sendMessage:this <- %R4
	cmp	r0, #1
	bne	.LBB38_24
.Ltmp605:
@ BB#3:
	@DEBUG_VALUE: MessageEvent:eventTarget <- %R5
	@DEBUG_VALUE: sendMessage:this <- %R4
	.loc	25 675 37               @ /usr/bin/../lib/gcc/arm-linux-gnueabihf/6.3.0/../../../../include/c++/6.3.0/bits/shared_ptr_base.h:675:37
	ldr	r7, [sp, #32]
.Ltmp606:
	@DEBUG_VALUE: operator=:__tmp <- %R7
	@DEBUG_VALUE: _M_add_ref_copy:this <- %R7
	.loc	25 927 69               @ /usr/bin/../lib/gcc/arm-linux-gnueabihf/6.3.0/../../../../include/c++/6.3.0/bits/shared_ptr_base.h:927:69
	ldr	r0, [sp, #28]
	str	r0, [sp, #60]
	mov	r0, #1
.Ltmp607:
	.loc	25 676 6                @ /usr/bin/../lib/gcc/arm-linux-gnueabihf/6.3.0/../../../../include/c++/6.3.0/bits/shared_ptr_base.h:676:6
	cmp	r7, #0
	beq	.LBB38_24
.Ltmp608:
@ BB#4:
	@DEBUG_VALUE: _M_add_ref_copy:this <- %R7
	@DEBUG_VALUE: operator=:__tmp <- %R7
	@DEBUG_VALUE: MessageEvent:eventTarget <- %R5
	@DEBUG_VALUE: sendMessage:this <- %R4
	@DEBUG_VALUE: __atomic_add_dispatch:__val <- 1
	.file	87 "/usr/bin/../lib/gcc/arm-linux-gnueabihf/6.3.0/../../../../include/c++/6.3.0/ext" "atomicity.h"
	.loc	87 95 9                 @ /usr/bin/../lib/gcc/arm-linux-gnueabihf/6.3.0/../../../../include/c++/6.3.0/ext/atomicity.h:95:9
	movw	r8, :lower16:__pthread_key_create
.Ltmp609:
	.loc	25 134 43               @ /usr/bin/../lib/gcc/arm-linux-gnueabihf/6.3.0/../../../../include/c++/6.3.0/bits/shared_ptr_base.h:134:43
	add	r0, r7, #4
.Ltmp610:
	.loc	87 95 9                 @ /usr/bin/../lib/gcc/arm-linux-gnueabihf/6.3.0/../../../../include/c++/6.3.0/ext/atomicity.h:95:9
	movt	r8, :upper16:__pthread_key_create
	cmp	r8, #0
	beq	.LBB38_13
.Ltmp611:
@ BB#5:                                 @ %_ZNSt16_Sp_counted_baseILN9__gnu_cxx12_Lock_policyE2EE15_M_add_ref_copyEv.exit.i.i.i.i.i.i.i.i.i.i.i.i.i.i.i.i.i.i.i.i.i.i.i.i
	@DEBUG_VALUE: _M_add_ref_copy:this <- %R7
	@DEBUG_VALUE: operator=:__tmp <- %R7
	@DEBUG_VALUE: MessageEvent:eventTarget <- %R5
	@DEBUG_VALUE: sendMessage:this <- %R4
	@DEBUG_VALUE: __atomic_add:__val <- 1
	.loc	87 53 5                 @ /usr/bin/../lib/gcc/arm-linux-gnueabihf/6.3.0/../../../../include/c++/6.3.0/ext/atomicity.h:53:5
	dmb	ish
.Ltmp612:
.LBB38_6:                               @ %atomicrmw.start
                                        @ =>This Inner Loop Header: Depth=1
	ldrex	r1, [r0]
	add	r1, r1, #1
	strex	r2, r1, [r0]
	cmp	r2, #0
	bne	.LBB38_6
@ BB#7:                                 @ %atomicrmw.end
	dmb	ish
.Ltmp613:
	.loc	25 680 10               @ /usr/bin/../lib/gcc/arm-linux-gnueabihf/6.3.0/../../../../include/c++/6.3.0/bits/shared_ptr_base.h:680:10
	ldr	r9, [sp, #64]
.Ltmp614:
	@DEBUG_VALUE: _M_release:this <- %R9
	.loc	25 680 10 is_stmt 0     @ /usr/bin/../lib/gcc/arm-linux-gnueabihf/6.3.0/../../../../include/c++/6.3.0/bits/shared_ptr_base.h:680:10
	cmp	r9, #0
	beq	.LBB38_23
.Ltmp615:
@ BB#8:
	@DEBUG_VALUE: _M_release:this <- %R9
	@DEBUG_VALUE: __exchange_and_add_dispatch:__val <- -1
	.loc	25 147 46 is_stmt 1     @ /usr/bin/../lib/gcc/arm-linux-gnueabihf/6.3.0/../../../../include/c++/6.3.0/bits/shared_ptr_base.h:147:46
	add	r0, r9, #4
.Ltmp616:
	.loc	87 81 9                 @ /usr/bin/../lib/gcc/arm-linux-gnueabihf/6.3.0/../../../../include/c++/6.3.0/ext/atomicity.h:81:9
	cmp	r8, #0
	beq	.LBB38_14
.Ltmp617:
@ BB#9:
	@DEBUG_VALUE: _M_release:this <- %R9
	@DEBUG_VALUE: __exchange_and_add:__val <- -1
	.loc	87 49 12                @ /usr/bin/../lib/gcc/arm-linux-gnueabihf/6.3.0/../../../../include/c++/6.3.0/ext/atomicity.h:49:12
	dmb	ish
.Ltmp618:
.LBB38_10:                              @ %atomicrmw.start17
                                        @ =>This Inner Loop Header: Depth=1
	ldrex	r1, [r0]
	sub	r2, r1, #1
	strex	r3, r2, [r0]
	cmp	r3, #0
	bne	.LBB38_10
@ BB#11:                                @ %atomicrmw.end16
	dmb	ish
	b	.LBB38_15
.Ltmp619:
.LBB38_12:
	@DEBUG_VALUE: MessageEvent:eventTarget <- %R5
	@DEBUG_VALUE: sendMessage:this <- %R4
	.loc	23 119 23               @ /root/Bela/projects/RNBO-KPStrong/rnbo/src/RNBO_MessageEvent.h:119:23
	ldr	r0, [sp, #24]
	.loc	23 119 15 is_stmt 0     @ /root/Bela/projects/RNBO-KPStrong/rnbo/src/RNBO_MessageEvent.h:119:15
	str	r0, [sp, #56]
	mov	r0, #0
	b	.LBB38_24
.Ltmp620:
.LBB38_13:                              @ %_ZNSt16_Sp_counted_baseILN9__gnu_cxx12_Lock_policyE2EE15_M_add_ref_copyEv.exit.i.i.i.thread.i.i.i.i.i.i.i.i.i.i.i.i.i.i.i.i.i.i.i.i.i
	@DEBUG_VALUE: _M_add_ref_copy:this <- %R7
	@DEBUG_VALUE: operator=:__tmp <- %R7
	@DEBUG_VALUE: MessageEvent:eventTarget <- %R5
	@DEBUG_VALUE: sendMessage:this <- %R4
	@DEBUG_VALUE: __atomic_add_single:__val <- 1
	.loc	87 74 12 is_stmt 1      @ /usr/bin/../lib/gcc/arm-linux-gnueabihf/6.3.0/../../../../include/c++/6.3.0/ext/atomicity.h:74:12
	ldr	r1, [r0]
	add	r1, r1, #1
	str	r1, [r0]
	b	.LBB38_23
.Ltmp621:
.LBB38_14:
	@DEBUG_VALUE: _M_release:this <- %R9
	@DEBUG_VALUE: __exchange_and_add_single:__val <- -1
	.loc	87 67 29                @ /usr/bin/../lib/gcc/arm-linux-gnueabihf/6.3.0/../../../../include/c++/6.3.0/ext/atomicity.h:67:29
	ldr	r1, [r0]
.Ltmp622:
	@DEBUG_VALUE: __exchange_and_add_single:__result <- %R1
	.loc	87 68 12                @ /usr/bin/../lib/gcc/arm-linux-gnueabihf/6.3.0/../../../../include/c++/6.3.0/ext/atomicity.h:68:12
	sub	r2, r1, #1
	str	r2, [r0]
.Ltmp623:
.LBB38_15:                              @ %_ZN9__gnu_cxxL27__exchange_and_add_dispatchEPii.exit.i.i.i.i.i.i.i.i.i.i.i.i.i.i.i.i.i.i.i.i.i.i.i.i.i
	.loc	25 147 6 discriminator 1 @ /usr/bin/../lib/gcc/arm-linux-gnueabihf/6.3.0/../../../../include/c++/6.3.0/bits/shared_ptr_base.h:147:6
	cmp	r1, #1
	bne	.LBB38_23
@ BB#16:
.Ltmp624:
	.loc	25 150 6                @ /usr/bin/../lib/gcc/arm-linux-gnueabihf/6.3.0/../../../../include/c++/6.3.0/bits/shared_ptr_base.h:150:6
	mov	r5, r9
	ldr	r0, [r5], #8
	ldr	r1, [r0, #8]
	mov	r0, r9
	blx	r1
.Ltmp625:
	@DEBUG_VALUE: __exchange_and_add_dispatch:__val <- -1
	.loc	87 81 9                 @ /usr/bin/../lib/gcc/arm-linux-gnueabihf/6.3.0/../../../../include/c++/6.3.0/ext/atomicity.h:81:9
	cmp	r8, #0
	beq	.LBB38_20
@ BB#17:
.Ltmp626:
	@DEBUG_VALUE: __exchange_and_add:__val <- -1
	.loc	87 49 12                @ /usr/bin/../lib/gcc/arm-linux-gnueabihf/6.3.0/../../../../include/c++/6.3.0/ext/atomicity.h:49:12
	dmb	ish
.LBB38_18:                              @ %atomicrmw.start21
                                        @ =>This Inner Loop Header: Depth=1
	ldrex	r0, [r5]
	sub	r1, r0, #1
	strex	r2, r1, [r5]
	cmp	r2, #0
	bne	.LBB38_18
@ BB#19:                                @ %atomicrmw.end20
	dmb	ish
	b	.LBB38_21
.Ltmp627:
.LBB38_20:
	@DEBUG_VALUE: __exchange_and_add_single:__val <- -1
	.loc	87 67 29                @ /usr/bin/../lib/gcc/arm-linux-gnueabihf/6.3.0/../../../../include/c++/6.3.0/ext/atomicity.h:67:29
	ldr	r0, [r5]
.Ltmp628:
	@DEBUG_VALUE: __exchange_and_add_single:__result <- %R0
	.loc	87 68 12                @ /usr/bin/../lib/gcc/arm-linux-gnueabihf/6.3.0/../../../../include/c++/6.3.0/ext/atomicity.h:68:12
	sub	r1, r0, #1
	str	r1, [r5]
.Ltmp629:
.LBB38_21:                              @ %_ZN9__gnu_cxxL27__exchange_and_add_dispatchEPii.exit2.i.i.i.i.i.i.i.i.i.i.i.i.i.i.i.i.i.i.i.i.i.i.i.i.i
	.loc	25 162 10 discriminator 1 @ /usr/bin/../lib/gcc/arm-linux-gnueabihf/6.3.0/../../../../include/c++/6.3.0/bits/shared_ptr_base.h:162:10
	cmp	r0, #1
	bne	.LBB38_23
@ BB#22:
.Ltmp630:
	.loc	25 166 10               @ /usr/bin/../lib/gcc/arm-linux-gnueabihf/6.3.0/../../../../include/c++/6.3.0/bits/shared_ptr_base.h:166:10
	ldr	r0, [r9]
	ldr	r1, [r0, #12]
	mov	r0, r9
	blx	r1
.Ltmp631:
.LBB38_23:                              @ %_ZNSt16_Sp_counted_baseILN9__gnu_cxx12_Lock_policyE2EE10_M_releaseEv.exit.i.i.i.i.i.i.i.i.i.i.i.i.i.i.i.i.i.i.i.i.i.i.i.i
	.loc	25 682 12               @ /usr/bin/../lib/gcc/arm-linux-gnueabihf/6.3.0/../../../../include/c++/6.3.0/bits/shared_ptr_base.h:682:12
	str	r7, [sp, #64]
.Ltmp632:
	.loc	23 122 18               @ /root/Bela/projects/RNBO-KPStrong/rnbo/src/RNBO_MessageEvent.h:122:18
	ldr	r0, [sp, #20]
.LBB38_24:
	.loc	23 122 10 is_stmt 0     @ /root/Bela/projects/RNBO-KPStrong/rnbo/src/RNBO_MessageEvent.h:122:10
	str	r0, [sp, #52]
.Ltmp633:
	.loc	12 1709 4 is_stmt 1     @ /root/Bela/projects/RNBO-KPStrong/rnbo/src/3rdparty/MPark_variant/variant.hpp:1709:4
	mov	r0, #7
	str	r0, [sp, #72]
.Ltmp634:
	.loc	40 53 4 discriminator 2 @ /root/Bela/projects/RNBO-KPStrong/rnbo/src/RNBO_ParameterEventInterface.h:53:4
.Ltmp556:
	add	r1, sp, #40
	mov	r0, r4
	blx	r6
.Ltmp557:
@ BB#25:
.Ltmp635:
	.loc	12 1712 10              @ /root/Bela/projects/RNBO-KPStrong/rnbo/src/3rdparty/MPark_variant/variant.hpp:1712:10
	ldr	r0, [sp, #72]
.Ltmp636:
	@DEBUG_VALUE: at<void (*)(mpark::detail::dtor &&, mpark::detail::base<mpark::detail::Trait::Available, RNBO::EmptyEvent, RNBO::ClockEvent, RNBO::DataRefEvent, RNBO::MidiEvent, RNBO::OutletEvent, RNBO::ParameterEvent, RNBO::UniversalEvent, RNBO::MessageEvent, RNBO::PresetEvent, RNBO::TempoEvent, RNBO::TransportEvent, RNBO::BeatTimeEvent, RNBO::TimeSignatureEvent, RNBO::StartupEvent> &), 14>:i <- %R0
	@DEBUG_VALUE: operator[]:index <- %R0
	.loc	12 1792 473             @ /root/Bela/projects/RNBO-KPStrong/rnbo/src/3rdparty/MPark_variant/variant.hpp:1792:473
	cmn	r0, #1
	beq	.LBB38_27
.Ltmp637:
@ BB#26:
	@DEBUG_VALUE: operator[]:index <- %R0
	@DEBUG_VALUE: at<void (*)(mpark::detail::dtor &&, mpark::detail::base<mpark::detail::Trait::Available, RNBO::EmptyEvent, RNBO::ClockEvent, RNBO::DataRefEvent, RNBO::MidiEvent, RNBO::OutletEvent, RNBO::ParameterEvent, RNBO::UniversalEvent, RNBO::MessageEvent, RNBO::PresetEvent, RNBO::TempoEvent, RNBO::TransportEvent, RNBO::BeatTimeEvent, RNBO::TimeSignatureEvent, RNBO::StartupEvent> &), 14>:i <- %R0
	@DEBUG_VALUE: operator[]:this <- %R1
	.loc	12 365 12               @ /root/Bela/projects/RNBO-KPStrong/rnbo/src/3rdparty/MPark_variant/variant.hpp:365:12
	movw	r1, :lower16:_ZN5mpark6detail10visitation7fmatrixIONS0_4dtorEJRNS0_4baseILNS0_5TraitE1EJN4RNBO10EmptyEventENS7_10ClockEventENS7_12DataRefEventENS7_9MidiEventENS7_11OutletEventENS7_14ParameterEventENS7_14UniversalEventENS7_12MessageEventENS7_11PresetEventENS7_10TempoEventENS7_14TransportEventENS7_13BeatTimeEventENS7_18TimeSignatureEventENS7_12StartupEventEEEEEE5valueE
.Ltmp638:
	movt	r1, :upper16:_ZN5mpark6detail10visitation7fmatrixIONS0_4dtorEJRNS0_4baseILNS0_5TraitE1EJN4RNBO10EmptyEventENS7_10ClockEventENS7_12DataRefEventENS7_9MidiEventENS7_11OutletEventENS7_14ParameterEventENS7_14UniversalEventENS7_12MessageEventENS7_11PresetEventENS7_10TempoEventENS7_14TransportEventENS7_13BeatTimeEventENS7_18TimeSignatureEventENS7_12StartupEventEEEEEE5valueE
.Ltmp639:
	.loc	12 1516 190             @ /root/Bela/projects/RNBO-KPStrong/rnbo/src/3rdparty/MPark_variant/variant.hpp:1516:190
	ldr	r2, [r1, r0, lsl #2]
	.loc	12 1516 190 is_stmt 0 discriminator 5 @ /root/Bela/projects/RNBO-KPStrong/rnbo/src/3rdparty/MPark_variant/variant.hpp:1516:190
.Ltmp565:
	sub	r0, r11, #28
.Ltmp640:
	@DEBUG_VALUE: visit_alt<mpark::detail::dtor, mpark::detail::destructor<mpark::detail::traits<RNBO::EmptyEvent, RNBO::ClockEvent, RNBO::DataRefEvent, RNBO::MidiEvent, RNBO::OutletEvent, RNBO::ParameterEvent, RNBO::UniversalEvent, RNBO::MessageEvent, RNBO::PresetEvent, RNBO::TempoEvent, RNBO::TransportEvent, RNBO::BeatTimeEvent, RNBO::TimeSignatureEvent, RNBO::StartupEvent>, mpark::detail::Trait::Available> &>:visitor <- %R0
	add	r1, sp, #40
.Ltmp641:
	@DEBUG_VALUE: index:this <- %R1
	@DEBUG_VALUE: valueless_by_exception:this <- %R1
	blx	r2
.Ltmp642:
.Ltmp566:
.Ltmp643:
.LBB38_27:                              @ %_ZN4RNBO12EventVariantD2Ev.exit
	.loc	25 661 6 is_stmt 1      @ /usr/bin/../lib/gcc/arm-linux-gnueabihf/6.3.0/../../../../include/c++/6.3.0/bits/shared_ptr_base.h:661:6
	ldr	r4, [sp, #32]
.Ltmp644:
	@DEBUG_VALUE: _M_release:this <- %R4
	.loc	12 1792 566 discriminator 4 @ /root/Bela/projects/RNBO-KPStrong/rnbo/src/3rdparty/MPark_variant/variant.hpp:1792:566
	mvn	r0, #0
	str	r0, [sp, #72]
.Ltmp645:
	.loc	25 661 6                @ /usr/bin/../lib/gcc/arm-linux-gnueabihf/6.3.0/../../../../include/c++/6.3.0/bits/shared_ptr_base.h:661:6
	cmp	r4, #0
	beq	.LBB38_41
.Ltmp646:
@ BB#28:
	@DEBUG_VALUE: _M_release:this <- %R4
	@DEBUG_VALUE: __exchange_and_add_dispatch:__val <- -1
	.loc	87 81 9                 @ /usr/bin/../lib/gcc/arm-linux-gnueabihf/6.3.0/../../../../include/c++/6.3.0/ext/atomicity.h:81:9
	movw	r5, :lower16:__pthread_key_create
.Ltmp647:
	.loc	25 147 46               @ /usr/bin/../lib/gcc/arm-linux-gnueabihf/6.3.0/../../../../include/c++/6.3.0/bits/shared_ptr_base.h:147:46
	add	r0, r4, #4
.Ltmp648:
	.loc	87 81 9                 @ /usr/bin/../lib/gcc/arm-linux-gnueabihf/6.3.0/../../../../include/c++/6.3.0/ext/atomicity.h:81:9
	movt	r5, :upper16:__pthread_key_create
	cmp	r5, #0
	beq	.LBB38_32
.Ltmp649:
@ BB#29:
	@DEBUG_VALUE: _M_release:this <- %R4
	@DEBUG_VALUE: __exchange_and_add:__val <- -1
	.loc	87 49 12                @ /usr/bin/../lib/gcc/arm-linux-gnueabihf/6.3.0/../../../../include/c++/6.3.0/ext/atomicity.h:49:12
	dmb	ish
.Ltmp650:
.LBB38_30:                              @ %atomicrmw.start25
                                        @ =>This Inner Loop Header: Depth=1
	ldrex	r1, [r0]
	sub	r2, r1, #1
	strex	r3, r2, [r0]
	cmp	r3, #0
	bne	.LBB38_30
@ BB#31:                                @ %atomicrmw.end24
	dmb	ish
	b	.LBB38_33
.Ltmp651:
.LBB38_32:
	@DEBUG_VALUE: _M_release:this <- %R4
	@DEBUG_VALUE: __exchange_and_add_single:__val <- -1
	.loc	87 67 29                @ /usr/bin/../lib/gcc/arm-linux-gnueabihf/6.3.0/../../../../include/c++/6.3.0/ext/atomicity.h:67:29
	ldr	r1, [r0]
.Ltmp652:
	@DEBUG_VALUE: __exchange_and_add_single:__result <- %R1
	.loc	87 68 12                @ /usr/bin/../lib/gcc/arm-linux-gnueabihf/6.3.0/../../../../include/c++/6.3.0/ext/atomicity.h:68:12
	sub	r2, r1, #1
	str	r2, [r0]
.Ltmp653:
.LBB38_33:                              @ %_ZN9__gnu_cxxL27__exchange_and_add_dispatchEPii.exit.i.i.i.i
	.loc	25 147 6 discriminator 1 @ /usr/bin/../lib/gcc/arm-linux-gnueabihf/6.3.0/../../../../include/c++/6.3.0/bits/shared_ptr_base.h:147:6
	cmp	r1, #1
	bne	.LBB38_41
@ BB#34:
.Ltmp654:
	.loc	25 150 6                @ /usr/bin/../lib/gcc/arm-linux-gnueabihf/6.3.0/../../../../include/c++/6.3.0/bits/shared_ptr_base.h:150:6
	mov	r6, r4
	ldr	r0, [r6], #8
	ldr	r1, [r0, #8]
	mov	r0, r4
	blx	r1
.Ltmp655:
	@DEBUG_VALUE: __exchange_and_add_dispatch:__val <- -1
	.loc	87 81 9                 @ /usr/bin/../lib/gcc/arm-linux-gnueabihf/6.3.0/../../../../include/c++/6.3.0/ext/atomicity.h:81:9
	cmp	r5, #0
	beq	.LBB38_38
@ BB#35:
.Ltmp656:
	@DEBUG_VALUE: __exchange_and_add:__val <- -1
	.loc	87 49 12                @ /usr/bin/../lib/gcc/arm-linux-gnueabihf/6.3.0/../../../../include/c++/6.3.0/ext/atomicity.h:49:12
	dmb	ish
.LBB38_36:                              @ %atomicrmw.start29
                                        @ =>This Inner Loop Header: Depth=1
	ldrex	r0, [r6]
	sub	r1, r0, #1
	strex	r2, r1, [r6]
	cmp	r2, #0
	bne	.LBB38_36
@ BB#37:                                @ %atomicrmw.end28
	dmb	ish
	b	.LBB38_39
.Ltmp657:
.LBB38_38:
	@DEBUG_VALUE: __exchange_and_add_single:__val <- -1
	.loc	87 67 29                @ /usr/bin/../lib/gcc/arm-linux-gnueabihf/6.3.0/../../../../include/c++/6.3.0/ext/atomicity.h:67:29
	ldr	r0, [r6]
.Ltmp658:
	@DEBUG_VALUE: __exchange_and_add_single:__result <- %R0
	.loc	87 68 12                @ /usr/bin/../lib/gcc/arm-linux-gnueabihf/6.3.0/../../../../include/c++/6.3.0/ext/atomicity.h:68:12
	sub	r1, r0, #1
	str	r1, [r6]
.Ltmp659:
.LBB38_39:                              @ %_ZN9__gnu_cxxL27__exchange_and_add_dispatchEPii.exit2.i.i.i.i
	.loc	25 162 10 discriminator 1 @ /usr/bin/../lib/gcc/arm-linux-gnueabihf/6.3.0/../../../../include/c++/6.3.0/bits/shared_ptr_base.h:162:10
	cmp	r0, #1
	bne	.LBB38_41
@ BB#40:
.Ltmp660:
	.loc	25 166 10               @ /usr/bin/../lib/gcc/arm-linux-gnueabihf/6.3.0/../../../../include/c++/6.3.0/bits/shared_ptr_base.h:166:10
	ldr	r0, [r4]
	ldr	r1, [r0, #12]
	mov	r0, r4
	blx	r1
.Ltmp661:
.LBB38_41:                              @ %_ZN4RNBO12MessageEventD2Ev.exit
	.loc	7 238 6                 @ /usr/bin/../lib/gcc/arm-linux-gnueabihf/6.3.0/../../../../include/c++/6.3.0/bits/unique_ptr.h:238:6
	ldr	r4, [sp, #4]
.Ltmp662:
	@DEBUG_VALUE: operator():__ptr <- %R4
	@DEBUG_VALUE: ~listbase:this <- %R4
	.loc	7 238 6 is_stmt 0       @ /usr/bin/../lib/gcc/arm-linux-gnueabihf/6.3.0/../../../../include/c++/6.3.0/bits/unique_ptr.h:238:6
	cmp	r4, #0
	beq	.LBB38_45
.Ltmp663:
@ BB#42:
	@DEBUG_VALUE: ~listbase:this <- %R4
	@DEBUG_VALUE: operator():__ptr <- %R4
	.loc	24 123 8 is_stmt 1      @ /root/Bela/projects/RNBO-KPStrong/rnbo/common/RNBO_List.h:123:8
	ldr	r1, [r4, #4]
.Ltmp664:
	.loc	24 123 8 is_stmt 0      @ /root/Bela/projects/RNBO-KPStrong/rnbo/common/RNBO_List.h:123:8
	cmp	r1, #0
	beq	.LBB38_44
.Ltmp665:
@ BB#43:
	@DEBUG_VALUE: ~listbase:this <- %R4
	@DEBUG_VALUE: operator():__ptr <- %R4
	.loc	39 63 11 is_stmt 1      @ /root/Bela/projects/RNBO-KPStrong/rnbo/common/RNBO_PlatformInterface.h:63:11
	movw	r0, :lower16:_ZZN4RNBO8Platform8instanceEvE9pInstance
	movt	r0, :upper16:_ZZN4RNBO8Platform8instanceEvE9pInstance
	ldr	r0, [r0]
.Ltmp666:
	.loc	24 124 22 discriminator 1 @ /root/Bela/projects/RNBO-KPStrong/rnbo/common/RNBO_List.h:124:22
	ldr	r2, [r0]
	ldr	r2, [r2, #28]
.Ltmp568:
	blx	r2
.Ltmp569:
.Ltmp667:
.LBB38_44:                              @ %_ZNKSt14default_deleteIN4RNBO8listbaseIfEEEclEPS2_.exit.i7
	@DEBUG_VALUE: ~listbase:this <- %R4
	@DEBUG_VALUE: operator():__ptr <- %R4
	.loc	7 76 2 discriminator 2  @ /usr/bin/../lib/gcc/arm-linux-gnueabihf/6.3.0/../../../../include/c++/6.3.0/bits/unique_ptr.h:76:2
	mov	r0, r4
	bl	_ZdlPv
.Ltmp668:
.LBB38_45:                              @ %_ZNSt10unique_ptrIN4RNBO8listbaseIfEESt14default_deleteIS2_EED2Ev.exit8
	@DEBUG_VALUE: ~listbase:this <- %R4
	@DEBUG_VALUE: operator():__ptr <- %R4
	.loc	40 55 3                 @ /root/Bela/projects/RNBO-KPStrong/rnbo/src/RNBO_ParameterEventInterface.h:55:3
	sub	sp, r11, #24
	pop	{r4, r5, r6, r7, r8, r9, r11, pc}
.Ltmp669:
.LBB38_46:
	@DEBUG_VALUE: ~listbase:this <- %R4
	@DEBUG_VALUE: operator():__ptr <- %R4
.Ltmp570:
.Ltmp670:
	.loc	24 124 5 discriminator 2 @ /root/Bela/projects/RNBO-KPStrong/rnbo/common/RNBO_List.h:124:5
	mov	lr, pc
	b	__clang_call_terminate
.Ltmp671:
.LBB38_47:
.Ltmp567:
.Ltmp672:
	.loc	12 1792 508 discriminator 5 @ /root/Bela/projects/RNBO-KPStrong/rnbo/src/3rdparty/MPark_variant/variant.hpp:1792:508
	mov	lr, pc
	b	__clang_call_terminate
.Ltmp673:
.LBB38_48:
.Ltmp558:
	mov	r4, r0
.Ltmp674:
	.loc	12 1712 10              @ /root/Bela/projects/RNBO-KPStrong/rnbo/src/3rdparty/MPark_variant/variant.hpp:1712:10
	ldr	r0, [sp, #72]
.Ltmp675:
	@DEBUG_VALUE: at<void (*)(mpark::detail::dtor &&, mpark::detail::base<mpark::detail::Trait::Available, RNBO::EmptyEvent, RNBO::ClockEvent, RNBO::DataRefEvent, RNBO::MidiEvent, RNBO::OutletEvent, RNBO::ParameterEvent, RNBO::UniversalEvent, RNBO::MessageEvent, RNBO::PresetEvent, RNBO::TempoEvent, RNBO::TransportEvent, RNBO::BeatTimeEvent, RNBO::TimeSignatureEvent, RNBO::StartupEvent> &), 14>:i <- %R0
	@DEBUG_VALUE: operator[]:index <- %R0
	.loc	12 1792 473             @ /root/Bela/projects/RNBO-KPStrong/rnbo/src/3rdparty/MPark_variant/variant.hpp:1792:473
	cmn	r0, #1
	beq	.LBB38_50
.Ltmp676:
@ BB#49:
	@DEBUG_VALUE: operator[]:index <- %R0
	@DEBUG_VALUE: at<void (*)(mpark::detail::dtor &&, mpark::detail::base<mpark::detail::Trait::Available, RNBO::EmptyEvent, RNBO::ClockEvent, RNBO::DataRefEvent, RNBO::MidiEvent, RNBO::OutletEvent, RNBO::ParameterEvent, RNBO::UniversalEvent, RNBO::MessageEvent, RNBO::PresetEvent, RNBO::TempoEvent, RNBO::TransportEvent, RNBO::BeatTimeEvent, RNBO::TimeSignatureEvent, RNBO::StartupEvent> &), 14>:i <- %R0
	@DEBUG_VALUE: operator[]:this <- %R1
	.loc	12 365 12               @ /root/Bela/projects/RNBO-KPStrong/rnbo/src/3rdparty/MPark_variant/variant.hpp:365:12
	movw	r1, :lower16:_ZN5mpark6detail10visitation7fmatrixIONS0_4dtorEJRNS0_4baseILNS0_5TraitE1EJN4RNBO10EmptyEventENS7_10ClockEventENS7_12DataRefEventENS7_9MidiEventENS7_11OutletEventENS7_14ParameterEventENS7_14UniversalEventENS7_12MessageEventENS7_11PresetEventENS7_10TempoEventENS7_14TransportEventENS7_13BeatTimeEventENS7_18TimeSignatureEventENS7_12StartupEventEEEEEE5valueE
.Ltmp677:
	movt	r1, :upper16:_ZN5mpark6detail10visitation7fmatrixIONS0_4dtorEJRNS0_4baseILNS0_5TraitE1EJN4RNBO10EmptyEventENS7_10ClockEventENS7_12DataRefEventENS7_9MidiEventENS7_11OutletEventENS7_14ParameterEventENS7_14UniversalEventENS7_12MessageEventENS7_11PresetEventENS7_10TempoEventENS7_14TransportEventENS7_13BeatTimeEventENS7_18TimeSignatureEventENS7_12StartupEventEEEEEE5valueE
.Ltmp678:
	.loc	12 1516 190             @ /root/Bela/projects/RNBO-KPStrong/rnbo/src/3rdparty/MPark_variant/variant.hpp:1516:190
	ldr	r2, [r1, r0, lsl #2]
	.loc	12 1516 190 is_stmt 0 discriminator 5 @ /root/Bela/projects/RNBO-KPStrong/rnbo/src/3rdparty/MPark_variant/variant.hpp:1516:190
.Ltmp559:
	sub	r0, r11, #28
.Ltmp679:
	@DEBUG_VALUE: visit_alt<mpark::detail::dtor, mpark::detail::destructor<mpark::detail::traits<RNBO::EmptyEvent, RNBO::ClockEvent, RNBO::DataRefEvent, RNBO::MidiEvent, RNBO::OutletEvent, RNBO::ParameterEvent, RNBO::UniversalEvent, RNBO::MessageEvent, RNBO::PresetEvent, RNBO::TempoEvent, RNBO::TransportEvent, RNBO::BeatTimeEvent, RNBO::TimeSignatureEvent, RNBO::StartupEvent>, mpark::detail::Trait::Available> &>:visitor <- %R0
	add	r1, sp, #40
.Ltmp680:
	@DEBUG_VALUE: index:this <- %R1
	@DEBUG_VALUE: valueless_by_exception:this <- %R1
	blx	r2
.Ltmp681:
.Ltmp560:
.Ltmp682:
.LBB38_50:
	.loc	25 661 6 is_stmt 1      @ /usr/bin/../lib/gcc/arm-linux-gnueabihf/6.3.0/../../../../include/c++/6.3.0/bits/shared_ptr_base.h:661:6
	ldr	r5, [sp, #32]
.Ltmp683:
	@DEBUG_VALUE: _M_release:this <- %R5
	.loc	12 1792 566 discriminator 4 @ /root/Bela/projects/RNBO-KPStrong/rnbo/src/3rdparty/MPark_variant/variant.hpp:1792:566
	mvn	r0, #0
	str	r0, [sp, #72]
.Ltmp684:
	.loc	25 661 6                @ /usr/bin/../lib/gcc/arm-linux-gnueabihf/6.3.0/../../../../include/c++/6.3.0/bits/shared_ptr_base.h:661:6
	cmp	r5, #0
	beq	.LBB38_66
.Ltmp685:
@ BB#51:
	@DEBUG_VALUE: _M_release:this <- %R5
	@DEBUG_VALUE: __exchange_and_add_dispatch:__val <- -1
	.loc	87 81 9                 @ /usr/bin/../lib/gcc/arm-linux-gnueabihf/6.3.0/../../../../include/c++/6.3.0/ext/atomicity.h:81:9
	movw	r6, :lower16:__pthread_key_create
.Ltmp686:
	.loc	25 147 46               @ /usr/bin/../lib/gcc/arm-linux-gnueabihf/6.3.0/../../../../include/c++/6.3.0/bits/shared_ptr_base.h:147:46
	add	r0, r5, #4
.Ltmp687:
	.loc	87 81 9                 @ /usr/bin/../lib/gcc/arm-linux-gnueabihf/6.3.0/../../../../include/c++/6.3.0/ext/atomicity.h:81:9
	movt	r6, :upper16:__pthread_key_create
	cmp	r6, #0
	beq	.LBB38_55
.Ltmp688:
@ BB#52:
	@DEBUG_VALUE: _M_release:this <- %R5
	@DEBUG_VALUE: __exchange_and_add:__val <- -1
	.loc	87 49 12                @ /usr/bin/../lib/gcc/arm-linux-gnueabihf/6.3.0/../../../../include/c++/6.3.0/ext/atomicity.h:49:12
	dmb	ish
.Ltmp689:
.LBB38_53:                              @ %atomicrmw.start33
                                        @ =>This Inner Loop Header: Depth=1
	ldrex	r1, [r0]
	sub	r2, r1, #1
	strex	r3, r2, [r0]
	cmp	r3, #0
	bne	.LBB38_53
@ BB#54:                                @ %atomicrmw.end32
	dmb	ish
	b	.LBB38_56
.Ltmp690:
.LBB38_55:
	@DEBUG_VALUE: _M_release:this <- %R5
	@DEBUG_VALUE: __exchange_and_add_single:__val <- -1
	.loc	87 67 29                @ /usr/bin/../lib/gcc/arm-linux-gnueabihf/6.3.0/../../../../include/c++/6.3.0/ext/atomicity.h:67:29
	ldr	r1, [r0]
.Ltmp691:
	@DEBUG_VALUE: __exchange_and_add_single:__result <- %R1
	.loc	87 68 12                @ /usr/bin/../lib/gcc/arm-linux-gnueabihf/6.3.0/../../../../include/c++/6.3.0/ext/atomicity.h:68:12
	sub	r2, r1, #1
	str	r2, [r0]
.Ltmp692:
.LBB38_56:                              @ %_ZN9__gnu_cxxL27__exchange_and_add_dispatchEPii.exit.i.i.i.i12
	.loc	25 147 6 discriminator 1 @ /usr/bin/../lib/gcc/arm-linux-gnueabihf/6.3.0/../../../../include/c++/6.3.0/bits/shared_ptr_base.h:147:6
	cmp	r1, #1
	bne	.LBB38_66
@ BB#57:
.Ltmp693:
	.loc	25 150 6                @ /usr/bin/../lib/gcc/arm-linux-gnueabihf/6.3.0/../../../../include/c++/6.3.0/bits/shared_ptr_base.h:150:6
	mov	r7, r5
	ldr	r0, [r7], #8
	ldr	r1, [r0, #8]
	mov	r0, r5
	blx	r1
.Ltmp694:
	@DEBUG_VALUE: __exchange_and_add_dispatch:__val <- -1
	.loc	87 81 9                 @ /usr/bin/../lib/gcc/arm-linux-gnueabihf/6.3.0/../../../../include/c++/6.3.0/ext/atomicity.h:81:9
	cmp	r6, #0
	beq	.LBB38_63
@ BB#58:
.Ltmp695:
	@DEBUG_VALUE: __exchange_and_add:__val <- -1
	.loc	87 49 12                @ /usr/bin/../lib/gcc/arm-linux-gnueabihf/6.3.0/../../../../include/c++/6.3.0/ext/atomicity.h:49:12
	dmb	ish
.LBB38_59:                              @ %atomicrmw.start37
                                        @ =>This Inner Loop Header: Depth=1
	ldrex	r0, [r7]
	sub	r1, r0, #1
	strex	r2, r1, [r7]
	cmp	r2, #0
	bne	.LBB38_59
@ BB#60:                                @ %atomicrmw.end36
	dmb	ish
.Ltmp696:
.LBB38_61:                              @ %_ZN9__gnu_cxxL27__exchange_and_add_dispatchEPii.exit2.i.i.i.i14
	.loc	25 162 10 discriminator 1 @ /usr/bin/../lib/gcc/arm-linux-gnueabihf/6.3.0/../../../../include/c++/6.3.0/bits/shared_ptr_base.h:162:10
	cmp	r0, #1
	bne	.LBB38_66
@ BB#62:
.Ltmp697:
	.loc	25 166 10               @ /usr/bin/../lib/gcc/arm-linux-gnueabihf/6.3.0/../../../../include/c++/6.3.0/bits/shared_ptr_base.h:166:10
	ldr	r0, [r5]
	ldr	r1, [r0, #12]
	mov	r0, r5
	blx	r1
	b	.LBB38_66
.Ltmp698:
.LBB38_63:
	@DEBUG_VALUE: __exchange_and_add_single:__val <- -1
	.loc	87 67 29                @ /usr/bin/../lib/gcc/arm-linux-gnueabihf/6.3.0/../../../../include/c++/6.3.0/ext/atomicity.h:67:29
	ldr	r0, [r7]
.Ltmp699:
	@DEBUG_VALUE: __exchange_and_add_single:__result <- %R0
	.loc	87 68 12                @ /usr/bin/../lib/gcc/arm-linux-gnueabihf/6.3.0/../../../../include/c++/6.3.0/ext/atomicity.h:68:12
	sub	r1, r0, #1
	str	r1, [r7]
	b	.LBB38_61
.Ltmp700:
.LBB38_64:
.Ltmp561:
.Ltmp701:
	.loc	12 1792 508 discriminator 5 @ /root/Bela/projects/RNBO-KPStrong/rnbo/src/3rdparty/MPark_variant/variant.hpp:1792:508
	mov	lr, pc
	b	__clang_call_terminate
.Ltmp702:
.LBB38_65:
	@DEBUG_VALUE: sendMessage:this <- %R4
.Ltmp555:
	mov	r4, r0
.Ltmp703:
.LBB38_66:                              @ %_ZN4RNBO12MessageEventD2Ev.exit15
	.loc	7 238 6                 @ /usr/bin/../lib/gcc/arm-linux-gnueabihf/6.3.0/../../../../include/c++/6.3.0/bits/unique_ptr.h:238:6
	ldr	r5, [sp, #4]
.Ltmp704:
	@DEBUG_VALUE: operator():__ptr <- %R5
	@DEBUG_VALUE: ~listbase:this <- %R5
	.loc	7 238 6 is_stmt 0       @ /usr/bin/../lib/gcc/arm-linux-gnueabihf/6.3.0/../../../../include/c++/6.3.0/bits/unique_ptr.h:238:6
	cmp	r5, #0
	beq	.LBB38_70
.Ltmp705:
@ BB#67:
	@DEBUG_VALUE: ~listbase:this <- %R5
	@DEBUG_VALUE: operator():__ptr <- %R5
	.loc	24 123 8 is_stmt 1      @ /root/Bela/projects/RNBO-KPStrong/rnbo/common/RNBO_List.h:123:8
	ldr	r1, [r5, #4]
.Ltmp706:
	.loc	24 123 8 is_stmt 0      @ /root/Bela/projects/RNBO-KPStrong/rnbo/common/RNBO_List.h:123:8
	cmp	r1, #0
	beq	.LBB38_69
.Ltmp707:
@ BB#68:
	@DEBUG_VALUE: ~listbase:this <- %R5
	@DEBUG_VALUE: operator():__ptr <- %R5
	.loc	39 63 11 is_stmt 1      @ /root/Bela/projects/RNBO-KPStrong/rnbo/common/RNBO_PlatformInterface.h:63:11
	movw	r0, :lower16:_ZZN4RNBO8Platform8instanceEvE9pInstance
	movt	r0, :upper16:_ZZN4RNBO8Platform8instanceEvE9pInstance
	ldr	r0, [r0]
.Ltmp708:
	.loc	24 124 22 discriminator 1 @ /root/Bela/projects/RNBO-KPStrong/rnbo/common/RNBO_List.h:124:22
	ldr	r2, [r0]
	ldr	r2, [r2, #28]
.Ltmp562:
	blx	r2
.Ltmp563:
.Ltmp709:
.LBB38_69:                              @ %_ZNKSt14default_deleteIN4RNBO8listbaseIfEEEclEPS2_.exit.i
	@DEBUG_VALUE: ~listbase:this <- %R5
	@DEBUG_VALUE: operator():__ptr <- %R5
	.loc	7 76 2 discriminator 2  @ /usr/bin/../lib/gcc/arm-linux-gnueabihf/6.3.0/../../../../include/c++/6.3.0/bits/unique_ptr.h:76:2
	mov	r0, r5
	bl	_ZdlPv
.Ltmp710:
.LBB38_70:                              @ %_ZNSt10unique_ptrIN4RNBO8listbaseIfEESt14default_deleteIS2_EED2Ev.exit
	@DEBUG_VALUE: ~listbase:this <- %R5
	@DEBUG_VALUE: operator():__ptr <- %R5
	mov	r0, r4
	mov	lr, pc
	b	_Unwind_Resume
.Ltmp711:
.LBB38_71:
	@DEBUG_VALUE: ~listbase:this <- %R5
	@DEBUG_VALUE: operator():__ptr <- %R5
.Ltmp564:
.Ltmp712:
	.loc	24 124 5 discriminator 2 @ /root/Bela/projects/RNBO-KPStrong/rnbo/common/RNBO_List.h:124:5
	mov	lr, pc
	b	__clang_call_terminate
.Ltmp713:
.Lfunc_end38:
	.size	_ZN4RNBO23ParameterEventInterface11sendMessageEjSt10unique_ptrINS_8listbaseIfEESt14default_deleteIS3_EEjf, .Lfunc_end38-_ZN4RNBO23ParameterEventInterface11sendMessageEjSt10unique_ptrINS_8listbaseIfEESt14default_deleteIS3_EEjf
	.cfi_endproc
	.globl	__gxx_personality_v0
	.personality __gxx_personality_v0
	.handlerdata
	.p2align	2
GCC_except_table38:
.Lexception8:
	.byte	255                     @ @LPStart Encoding = omit
	.byte	0                       @ @TType Encoding = absptr
	.asciz	"\213\201"              @ @TType base offset
	.byte	3                       @ Call site Encoding = udata4
	.ascii	"\202\001"              @ Call site table length
	.long	.Ltmp553-.Lfunc_begin38 @ >> Call Site 1 <<
	.long	.Ltmp554-.Ltmp553       @   Call between .Ltmp553 and .Ltmp554
	.long	.Ltmp555-.Lfunc_begin38 @     jumps to .Ltmp555
	.byte	0                       @   On action: cleanup
	.long	.Ltmp554-.Lfunc_begin38 @ >> Call Site 2 <<
	.long	.Ltmp556-.Ltmp554       @   Call between .Ltmp554 and .Ltmp556
	.long	0                       @     has no landing pad
	.byte	0                       @   On action: cleanup
	.long	.Ltmp556-.Lfunc_begin38 @ >> Call Site 3 <<
	.long	.Ltmp557-.Ltmp556       @   Call between .Ltmp556 and .Ltmp557
	.long	.Ltmp558-.Lfunc_begin38 @     jumps to .Ltmp558
	.byte	0                       @   On action: cleanup
	.long	.Ltmp565-.Lfunc_begin38 @ >> Call Site 4 <<
	.long	.Ltmp566-.Ltmp565       @   Call between .Ltmp565 and .Ltmp566
	.long	.Ltmp567-.Lfunc_begin38 @     jumps to .Ltmp567
	.byte	1                       @   On action: 1
	.long	.Ltmp566-.Lfunc_begin38 @ >> Call Site 5 <<
	.long	.Ltmp568-.Ltmp566       @   Call between .Ltmp566 and .Ltmp568
	.long	0                       @     has no landing pad
	.byte	0                       @   On action: cleanup
	.long	.Ltmp568-.Lfunc_begin38 @ >> Call Site 6 <<
	.long	.Ltmp569-.Ltmp568       @   Call between .Ltmp568 and .Ltmp569
	.long	.Ltmp570-.Lfunc_begin38 @     jumps to .Ltmp570
	.byte	1                       @   On action: 1
	.long	.Ltmp559-.Lfunc_begin38 @ >> Call Site 7 <<
	.long	.Ltmp560-.Ltmp559       @   Call between .Ltmp559 and .Ltmp560
	.long	.Ltmp561-.Lfunc_begin38 @     jumps to .Ltmp561
	.byte	1                       @   On action: 1
	.long	.Ltmp560-.Lfunc_begin38 @ >> Call Site 8 <<
	.long	.Ltmp562-.Ltmp560       @   Call between .Ltmp560 and .Ltmp562
	.long	0                       @     has no landing pad
	.byte	0                       @   On action: cleanup
	.long	.Ltmp562-.Lfunc_begin38 @ >> Call Site 9 <<
	.long	.Ltmp563-.Ltmp562       @   Call between .Ltmp562 and .Ltmp563
	.long	.Ltmp564-.Lfunc_begin38 @     jumps to .Ltmp564
	.byte	1                       @   On action: 1
	.long	.Ltmp563-.Lfunc_begin38 @ >> Call Site 10 <<
	.long	.Lfunc_end38-.Ltmp563   @   Call between .Ltmp563 and .Lfunc_end38
	.long	0                       @     has no landing pad
	.byte	0                       @   On action: cleanup
	.byte	1                       @ >> Action Record 1 <<
                                        @   Catch TypeInfo 1
	.byte	0                       @   No further actions
                                        @ >> Catch TypeInfos <<
	.long	0                       @ TypeInfo 1
	.p2align	2
	.fnend

	.text
	.globl	_ZN4RNBO10CoreObject11sendMessageEjjf
	.p2align	2
	.type	_ZN4RNBO10CoreObject11sendMessageEjjf,%function
_ZN4RNBO10CoreObject11sendMessageEjjf:  @ @_ZN4RNBO10CoreObject11sendMessageEjjf
.Lfunc_begin39:
	.loc	71 205 0                @ /root/Bela/projects/RNBO-KPStrong/rnbo/src/RNBO_CoreObject.cpp:205:0
	.fnstart
	.cfi_startproc
@ BB#0:
	.save	{r4, r10, r11, lr}
	push	{r4, r10, r11, lr}
.Ltmp723:
	.cfi_def_cfa_offset 16
.Ltmp724:
	.cfi_offset lr, -4
.Ltmp725:
	.cfi_offset r11, -8
.Ltmp726:
	.cfi_offset r10, -12
.Ltmp727:
	.cfi_offset r4, -16
	.setfp	r11, sp, #8
	add	r11, sp, #8
.Ltmp728:
	.cfi_def_cfa r11, 8
	.pad	#40
	sub	sp, sp, #40
	@DEBUG_VALUE: sendMessage:this <- %R0
	@DEBUG_VALUE: sendMessage:tag <- %R1
	@DEBUG_VALUE: sendMessage:objectId <- %R2
	@DEBUG_VALUE: sendMessage:eventTime <- %S0
.Ltmp729:
	.loc	43 126 34 prologue_end  @ /root/Bela/projects/RNBO-KPStrong/rnbo/common/RNBO_UniquePtr.h:126:34
	ldr	r0, [r0, #12]
.Ltmp730:
	@DEBUG_VALUE: sendMessage:this <- %R0
	.loc	40 62 4                 @ /root/Bela/projects/RNBO-KPStrong/rnbo/src/RNBO_ParameterEventInterface.h:62:4
	ldr	r3, [r0]
.Ltmp731:
	@DEBUG_VALUE: sendMessage:eventTime <- %S0
	ldr	r3, [r3, #52]
.Ltmp732:
	@DEBUG_VALUE: EventVariant<RNBO::MessageEvent>:event [bit_piece offset=0 size=32] <- %R1
	@DEBUG_VALUE: sendMessage:tag <- %R1
	@DEBUG_VALUE: EventVariant<RNBO::MessageEvent>:event [bit_piece offset=32 size=32] <- %R2
	@DEBUG_VALUE: sendMessage:objectId <- %R2
	.loc	23 110 5                @ /root/Bela/projects/RNBO-KPStrong/rnbo/src/RNBO_MessageEvent.h:110:5
	stm	sp, {r1, r2}
	mov	r1, #0
.Ltmp733:
	@DEBUG_VALUE: EventVariant<RNBO::MessageEvent>:event [bit_piece offset=192 size=32] <- %R1
	@DEBUG_VALUE: EventVariant<RNBO::MessageEvent>:event [bit_piece offset=160 size=32] <- 0
	@DEBUG_VALUE: EventVariant<RNBO::MessageEvent>:event [bit_piece offset=96 size=32] <- 2
	.loc	23 112 5                @ /root/Bela/projects/RNBO-KPStrong/rnbo/src/RNBO_MessageEvent.h:112:5
	vstr	s0, [sp, #8]
.Ltmp734:
	.loc	25 880 9                @ /usr/bin/../lib/gcc/arm-linux-gnueabihf/6.3.0/../../../../include/c++/6.3.0/bits/shared_ptr_base.h:880:9
	str	r1, [sp, #20]
.Ltmp735:
	.loc	25 563 45               @ /usr/bin/../lib/gcc/arm-linux-gnueabihf/6.3.0/../../../../include/c++/6.3.0/bits/shared_ptr_base.h:563:45
	str	r1, [sp, #24]
.Ltmp736:
	.loc	23 113 5                @ /root/Bela/projects/RNBO-KPStrong/rnbo/src/RNBO_MessageEvent.h:113:5
	str	r1, [sp, #28]
.Ltmp737:
	.loc	23 122 10               @ /root/Bela/projects/RNBO-KPStrong/rnbo/src/RNBO_MessageEvent.h:122:10
	mov	r1, #2
	str	r1, [sp, #12]
.Ltmp738:
	.loc	12 1709 4               @ /root/Bela/projects/RNBO-KPStrong/rnbo/src/3rdparty/MPark_variant/variant.hpp:1709:4
	mov	r1, #7
	str	r1, [sp, #32]
.Ltmp739:
	.loc	40 62 4 discriminator 1 @ /root/Bela/projects/RNBO-KPStrong/rnbo/src/RNBO_ParameterEventInterface.h:62:4
.Ltmp714:
	mov	r1, sp
.Ltmp740:
	@DEBUG_VALUE: EventVariant<RNBO::MessageEvent>:this <- %R1
	@DEBUG_VALUE: EventVariant<RNBO::MessageEvent>:event [bit_piece offset=224 size=32] <- 0
	blx	r3
.Ltmp741:
.Ltmp715:
@ BB#1:
.Ltmp742:
	.loc	12 1712 10              @ /root/Bela/projects/RNBO-KPStrong/rnbo/src/3rdparty/MPark_variant/variant.hpp:1712:10
	ldr	r0, [sp, #32]
.Ltmp743:
	@DEBUG_VALUE: at<void (*)(mpark::detail::dtor &&, mpark::detail::base<mpark::detail::Trait::Available, RNBO::EmptyEvent, RNBO::ClockEvent, RNBO::DataRefEvent, RNBO::MidiEvent, RNBO::OutletEvent, RNBO::ParameterEvent, RNBO::UniversalEvent, RNBO::MessageEvent, RNBO::PresetEvent, RNBO::TempoEvent, RNBO::TransportEvent, RNBO::BeatTimeEvent, RNBO::TimeSignatureEvent, RNBO::StartupEvent> &), 14>:i <- %R0
	@DEBUG_VALUE: operator[]:index <- %R0
	.loc	12 1792 473             @ /root/Bela/projects/RNBO-KPStrong/rnbo/src/3rdparty/MPark_variant/variant.hpp:1792:473
	cmn	r0, #1
	beq	.LBB39_3
.Ltmp744:
@ BB#2:
	@DEBUG_VALUE: operator[]:index <- %R0
	@DEBUG_VALUE: at<void (*)(mpark::detail::dtor &&, mpark::detail::base<mpark::detail::Trait::Available, RNBO::EmptyEvent, RNBO::ClockEvent, RNBO::DataRefEvent, RNBO::MidiEvent, RNBO::OutletEvent, RNBO::ParameterEvent, RNBO::UniversalEvent, RNBO::MessageEvent, RNBO::PresetEvent, RNBO::TempoEvent, RNBO::TransportEvent, RNBO::BeatTimeEvent, RNBO::TimeSignatureEvent, RNBO::StartupEvent> &), 14>:i <- %R0
	@DEBUG_VALUE: operator[]:this <- %R1
	.loc	12 365 12               @ /root/Bela/projects/RNBO-KPStrong/rnbo/src/3rdparty/MPark_variant/variant.hpp:365:12
	movw	r1, :lower16:_ZN5mpark6detail10visitation7fmatrixIONS0_4dtorEJRNS0_4baseILNS0_5TraitE1EJN4RNBO10EmptyEventENS7_10ClockEventENS7_12DataRefEventENS7_9MidiEventENS7_11OutletEventENS7_14ParameterEventENS7_14UniversalEventENS7_12MessageEventENS7_11PresetEventENS7_10TempoEventENS7_14TransportEventENS7_13BeatTimeEventENS7_18TimeSignatureEventENS7_12StartupEventEEEEEE5valueE
.Ltmp745:
	movt	r1, :upper16:_ZN5mpark6detail10visitation7fmatrixIONS0_4dtorEJRNS0_4baseILNS0_5TraitE1EJN4RNBO10EmptyEventENS7_10ClockEventENS7_12DataRefEventENS7_9MidiEventENS7_11OutletEventENS7_14ParameterEventENS7_14UniversalEventENS7_12MessageEventENS7_11PresetEventENS7_10TempoEventENS7_14TransportEventENS7_13BeatTimeEventENS7_18TimeSignatureEventENS7_12StartupEventEEEEEE5valueE
.Ltmp746:
	.loc	12 1516 190             @ /root/Bela/projects/RNBO-KPStrong/rnbo/src/3rdparty/MPark_variant/variant.hpp:1516:190
	ldr	r2, [r1, r0, lsl #2]
	.loc	12 1516 190 is_stmt 0 discriminator 5 @ /root/Bela/projects/RNBO-KPStrong/rnbo/src/3rdparty/MPark_variant/variant.hpp:1516:190
.Ltmp720:
	sub	r0, r11, #12
.Ltmp747:
	@DEBUG_VALUE: visit_alt<mpark::detail::dtor, mpark::detail::destructor<mpark::detail::traits<RNBO::EmptyEvent, RNBO::ClockEvent, RNBO::DataRefEvent, RNBO::MidiEvent, RNBO::OutletEvent, RNBO::ParameterEvent, RNBO::UniversalEvent, RNBO::MessageEvent, RNBO::PresetEvent, RNBO::TempoEvent, RNBO::TransportEvent, RNBO::BeatTimeEvent, RNBO::TimeSignatureEvent, RNBO::StartupEvent>, mpark::detail::Trait::Available> &>:visitor <- %R0
	mov	r1, sp
.Ltmp748:
	@DEBUG_VALUE: index:this <- %R1
	@DEBUG_VALUE: valueless_by_exception:this <- %R1
	blx	r2
.Ltmp749:
.Ltmp721:
.Ltmp750:
.LBB39_3:                               @ %_ZN4RNBO23ParameterEventInterface11sendMessageEjjf.exit
	.loc	71 211 2 is_stmt 1      @ /root/Bela/projects/RNBO-KPStrong/rnbo/src/RNBO_CoreObject.cpp:211:2
	sub	sp, r11, #8
	pop	{r4, r10, r11, pc}
.LBB39_4:
.Ltmp722:
.Ltmp751:
	.loc	12 1792 508 discriminator 5 @ /root/Bela/projects/RNBO-KPStrong/rnbo/src/3rdparty/MPark_variant/variant.hpp:1792:508
	mov	lr, pc
	b	__clang_call_terminate
.Ltmp752:
.LBB39_5:
.Ltmp716:
	mov	r4, r0
.Ltmp753:
	.loc	12 1712 10              @ /root/Bela/projects/RNBO-KPStrong/rnbo/src/3rdparty/MPark_variant/variant.hpp:1712:10
	ldr	r0, [sp, #32]
.Ltmp754:
	@DEBUG_VALUE: at<void (*)(mpark::detail::dtor &&, mpark::detail::base<mpark::detail::Trait::Available, RNBO::EmptyEvent, RNBO::ClockEvent, RNBO::DataRefEvent, RNBO::MidiEvent, RNBO::OutletEvent, RNBO::ParameterEvent, RNBO::UniversalEvent, RNBO::MessageEvent, RNBO::PresetEvent, RNBO::TempoEvent, RNBO::TransportEvent, RNBO::BeatTimeEvent, RNBO::TimeSignatureEvent, RNBO::StartupEvent> &), 14>:i <- %R0
	@DEBUG_VALUE: operator[]:index <- %R0
	.loc	12 1792 473             @ /root/Bela/projects/RNBO-KPStrong/rnbo/src/3rdparty/MPark_variant/variant.hpp:1792:473
	cmn	r0, #1
	beq	.LBB39_7
.Ltmp755:
@ BB#6:
	@DEBUG_VALUE: operator[]:index <- %R0
	@DEBUG_VALUE: at<void (*)(mpark::detail::dtor &&, mpark::detail::base<mpark::detail::Trait::Available, RNBO::EmptyEvent, RNBO::ClockEvent, RNBO::DataRefEvent, RNBO::MidiEvent, RNBO::OutletEvent, RNBO::ParameterEvent, RNBO::UniversalEvent, RNBO::MessageEvent, RNBO::PresetEvent, RNBO::TempoEvent, RNBO::TransportEvent, RNBO::BeatTimeEvent, RNBO::TimeSignatureEvent, RNBO::StartupEvent> &), 14>:i <- %R0
	@DEBUG_VALUE: operator[]:this <- %R1
	.loc	12 365 12               @ /root/Bela/projects/RNBO-KPStrong/rnbo/src/3rdparty/MPark_variant/variant.hpp:365:12
	movw	r1, :lower16:_ZN5mpark6detail10visitation7fmatrixIONS0_4dtorEJRNS0_4baseILNS0_5TraitE1EJN4RNBO10EmptyEventENS7_10ClockEventENS7_12DataRefEventENS7_9MidiEventENS7_11OutletEventENS7_14ParameterEventENS7_14UniversalEventENS7_12MessageEventENS7_11PresetEventENS7_10TempoEventENS7_14TransportEventENS7_13BeatTimeEventENS7_18TimeSignatureEventENS7_12StartupEventEEEEEE5valueE
.Ltmp756:
	movt	r1, :upper16:_ZN5mpark6detail10visitation7fmatrixIONS0_4dtorEJRNS0_4baseILNS0_5TraitE1EJN4RNBO10EmptyEventENS7_10ClockEventENS7_12DataRefEventENS7_9MidiEventENS7_11OutletEventENS7_14ParameterEventENS7_14UniversalEventENS7_12MessageEventENS7_11PresetEventENS7_10TempoEventENS7_14TransportEventENS7_13BeatTimeEventENS7_18TimeSignatureEventENS7_12StartupEventEEEEEE5valueE
.Ltmp757:
	.loc	12 1516 190             @ /root/Bela/projects/RNBO-KPStrong/rnbo/src/3rdparty/MPark_variant/variant.hpp:1516:190
	ldr	r2, [r1, r0, lsl #2]
	.loc	12 1516 190 is_stmt 0 discriminator 5 @ /root/Bela/projects/RNBO-KPStrong/rnbo/src/3rdparty/MPark_variant/variant.hpp:1516:190
.Ltmp717:
	sub	r0, r11, #12
.Ltmp758:
	@DEBUG_VALUE: visit_alt<mpark::detail::dtor, mpark::detail::destructor<mpark::detail::traits<RNBO::EmptyEvent, RNBO::ClockEvent, RNBO::DataRefEvent, RNBO::MidiEvent, RNBO::OutletEvent, RNBO::ParameterEvent, RNBO::UniversalEvent, RNBO::MessageEvent, RNBO::PresetEvent, RNBO::TempoEvent, RNBO::TransportEvent, RNBO::BeatTimeEvent, RNBO::TimeSignatureEvent, RNBO::StartupEvent>, mpark::detail::Trait::Available> &>:visitor <- %R0
	mov	r1, sp
.Ltmp759:
	@DEBUG_VALUE: index:this <- %R1
	@DEBUG_VALUE: valueless_by_exception:this <- %R1
	blx	r2
.Ltmp760:
.Ltmp718:
.Ltmp761:
.LBB39_7:                               @ %_ZN4RNBO12MessageEventD2Ev.exit.i
	mov	r0, r4
	mov	lr, pc
	b	_Unwind_Resume
.LBB39_8:
.Ltmp719:
	.loc	12 1792 508 is_stmt 1 discriminator 5 @ /root/Bela/projects/RNBO-KPStrong/rnbo/src/3rdparty/MPark_variant/variant.hpp:1792:508
	mov	lr, pc
	b	__clang_call_terminate
.Ltmp762:
.Lfunc_end39:
	.size	_ZN4RNBO10CoreObject11sendMessageEjjf, .Lfunc_end39-_ZN4RNBO10CoreObject11sendMessageEjjf
	.cfi_endproc
	.globl	__gxx_personality_v0
	.personality __gxx_personality_v0
	.handlerdata
	.p2align	2
GCC_except_table39:
.Lexception9:
	.byte	255                     @ @LPStart Encoding = omit
	.byte	0                       @ @TType Encoding = absptr
	.asciz	"\274"                  @ @TType base offset
	.byte	3                       @ Call site Encoding = udata4
	.byte	52                      @ Call site table length
	.long	.Ltmp714-.Lfunc_begin39 @ >> Call Site 1 <<
	.long	.Ltmp715-.Ltmp714       @   Call between .Ltmp714 and .Ltmp715
	.long	.Ltmp716-.Lfunc_begin39 @     jumps to .Ltmp716
	.byte	0                       @   On action: cleanup
	.long	.Ltmp720-.Lfunc_begin39 @ >> Call Site 2 <<
	.long	.Ltmp721-.Ltmp720       @   Call between .Ltmp720 and .Ltmp721
	.long	.Ltmp722-.Lfunc_begin39 @     jumps to .Ltmp722
	.byte	1                       @   On action: 1
	.long	.Ltmp717-.Lfunc_begin39 @ >> Call Site 3 <<
	.long	.Ltmp718-.Ltmp717       @   Call between .Ltmp717 and .Ltmp718
	.long	.Ltmp719-.Lfunc_begin39 @     jumps to .Ltmp719
	.byte	1                       @   On action: 1
	.long	.Ltmp718-.Lfunc_begin39 @ >> Call Site 4 <<
	.long	.Lfunc_end39-.Ltmp718   @   Call between .Ltmp718 and .Lfunc_end39
	.long	0                       @     has no landing pad
	.byte	0                       @   On action: cleanup
	.byte	1                       @ >> Action Record 1 <<
                                        @   Catch TypeInfo 1
	.byte	0                       @   No further actions
                                        @ >> Catch TypeInfos <<
	.long	0                       @ TypeInfo 1
	.p2align	2
	.fnend

	.globl	_ZNK4RNBO10CoreObject10resolveTagEj
	.p2align	2
	.type	_ZNK4RNBO10CoreObject10resolveTagEj,%function
_ZNK4RNBO10CoreObject10resolveTagEj:    @ @_ZNK4RNBO10CoreObject10resolveTagEj
.Lfunc_begin40:
	.loc	71 214 0                @ /root/Bela/projects/RNBO-KPStrong/rnbo/src/RNBO_CoreObject.cpp:214:0
	.fnstart
	.cfi_startproc
@ BB#0:
	@DEBUG_VALUE: resolveTag:this <- %R0
	@DEBUG_VALUE: resolveTag:tag <- %R1
	.loc	43 126 34 prologue_end  @ /root/Bela/projects/RNBO-KPStrong/rnbo/common/RNBO_UniquePtr.h:126:34
	ldr	r0, [r0, #8]
.Ltmp763:
	.loc	43 126 34 is_stmt 0     @ /root/Bela/projects/RNBO-KPStrong/rnbo/common/RNBO_UniquePtr.h:126:34
	ldr	r0, [r0, #12]
.Ltmp764:
	.loc	85 370 21 is_stmt 1     @ /root/Bela/projects/RNBO-KPStrong/rnbo/src/RNBO_EngineCore.h:370:21
	ldr	r2, [r0]
	ldr	r2, [r2, #120]
.Ltmp765:
	@DEBUG_VALUE: resolveTag:tag <- %R1
	.loc	85 370 21 is_stmt 0 discriminator 1 @ /root/Bela/projects/RNBO-KPStrong/rnbo/src/RNBO_EngineCore.h:370:21
	bx	r2
.Ltmp766:
.Lfunc_end40:
	.size	_ZNK4RNBO10CoreObject10resolveTagEj, .Lfunc_end40-_ZNK4RNBO10CoreObject10resolveTagEj
	.cfi_endproc
	.fnend

	.globl	_ZNK4RNBO10CoreObject14getNumMessagesEv
	.p2align	2
	.type	_ZNK4RNBO10CoreObject14getNumMessagesEv,%function
_ZNK4RNBO10CoreObject14getNumMessagesEv: @ @_ZNK4RNBO10CoreObject14getNumMessagesEv
.Lfunc_begin41:
	.loc	71 219 0 is_stmt 1      @ /root/Bela/projects/RNBO-KPStrong/rnbo/src/RNBO_CoreObject.cpp:219:0
	.fnstart
	.cfi_startproc
@ BB#0:
	@DEBUG_VALUE: getNumMessages:this <- %R0
	.loc	43 126 34 prologue_end  @ /root/Bela/projects/RNBO-KPStrong/rnbo/common/RNBO_UniquePtr.h:126:34
	ldr	r0, [r0, #8]
.Ltmp767:
	.loc	43 126 34 is_stmt 0     @ /root/Bela/projects/RNBO-KPStrong/rnbo/common/RNBO_UniquePtr.h:126:34
	ldr	r0, [r0, #12]
.Ltmp768:
	.loc	85 375 21 is_stmt 1     @ /root/Bela/projects/RNBO-KPStrong/rnbo/src/RNBO_EngineCore.h:375:21
	ldr	r1, [r0]
	ldr	r1, [r1, #124]
	.loc	85 375 21 is_stmt 0 discriminator 1 @ /root/Bela/projects/RNBO-KPStrong/rnbo/src/RNBO_EngineCore.h:375:21
	bx	r1
.Ltmp769:
.Lfunc_end41:
	.size	_ZNK4RNBO10CoreObject14getNumMessagesEv, .Lfunc_end41-_ZNK4RNBO10CoreObject14getNumMessagesEv
	.cfi_endproc
	.fnend

	.globl	_ZNK4RNBO10CoreObject14getMessageInfoEj
	.p2align	2
	.type	_ZNK4RNBO10CoreObject14getMessageInfoEj,%function
_ZNK4RNBO10CoreObject14getMessageInfoEj: @ @_ZNK4RNBO10CoreObject14getMessageInfoEj
.Lfunc_begin42:
	.loc	71 224 0 is_stmt 1      @ /root/Bela/projects/RNBO-KPStrong/rnbo/src/RNBO_CoreObject.cpp:224:0
	.fnstart
	.cfi_startproc
@ BB#0:
	.save	{r11, lr}
	push	{r11, lr}
.Ltmp770:
	.cfi_def_cfa_offset 8
.Ltmp771:
	.cfi_offset lr, -4
.Ltmp772:
	.cfi_offset r11, -8
	.setfp	r11, sp
	mov	r11, sp
.Ltmp773:
	.cfi_def_cfa_register r11
	@DEBUG_VALUE: getMessageInfo:this <- %R0
	@DEBUG_VALUE: getMessageInfo:index <- %R1
.Ltmp774:
	.loc	43 126 34 prologue_end  @ /root/Bela/projects/RNBO-KPStrong/rnbo/common/RNBO_UniquePtr.h:126:34
	ldr	r0, [r0, #8]
.Ltmp775:
	.loc	43 126 34 is_stmt 0     @ /root/Bela/projects/RNBO-KPStrong/rnbo/common/RNBO_UniquePtr.h:126:34
	ldr	r0, [r0, #12]
.Ltmp776:
	.loc	85 380 21 is_stmt 1     @ /root/Bela/projects/RNBO-KPStrong/rnbo/src/RNBO_EngineCore.h:380:21
	ldr	r2, [r0]
	ldr	r2, [r2, #128]
.Ltmp777:
	@DEBUG_VALUE: getMessageInfo:index <- %R1
	.loc	85 380 21 is_stmt 0 discriminator 1 @ /root/Bela/projects/RNBO-KPStrong/rnbo/src/RNBO_EngineCore.h:380:21
	blx	r2
.Ltmp778:
	.loc	71 225 3 is_stmt 1      @ /root/Bela/projects/RNBO-KPStrong/rnbo/src/RNBO_CoreObject.cpp:225:3
	pop	{r11, pc}
.Ltmp779:
.Lfunc_end42:
	.size	_ZNK4RNBO10CoreObject14getMessageInfoEj, .Lfunc_end42-_ZNK4RNBO10CoreObject14getMessageInfoEj
	.cfi_endproc
	.fnend

	.globl	_ZN4RNBO10CoreObject9setPresetESt10unique_ptrINS_12PatcherStateESt14default_deleteIS2_EE
	.p2align	2
	.type	_ZN4RNBO10CoreObject9setPresetESt10unique_ptrINS_12PatcherStateESt14default_deleteIS2_EE,%function
_ZN4RNBO10CoreObject9setPresetESt10unique_ptrINS_12PatcherStateESt14default_deleteIS2_EE: @ @_ZN4RNBO10CoreObject9setPresetESt10unique_ptrINS_12PatcherStateESt14default_deleteIS2_EE
.Lfunc_begin43:
	.loc	71 229 0                @ /root/Bela/projects/RNBO-KPStrong/rnbo/src/RNBO_CoreObject.cpp:229:0
	.fnstart
	.cfi_startproc
@ BB#0:
	.save	{r4, r5, r6, r7, r11, lr}
	push	{r4, r5, r6, r7, r11, lr}
.Ltmp807:
	.cfi_def_cfa_offset 24
.Ltmp808:
	.cfi_offset lr, -4
.Ltmp809:
	.cfi_offset r11, -8
.Ltmp810:
	.cfi_offset r7, -12
.Ltmp811:
	.cfi_offset r6, -16
.Ltmp812:
	.cfi_offset r5, -20
.Ltmp813:
	.cfi_offset r4, -24
	.setfp	r11, sp, #16
	add	r11, sp, #16
.Ltmp814:
	.cfi_def_cfa r11, 8
	.pad	#96
	sub	sp, sp, #96
	@DEBUG_VALUE: setPreset:this <- %R0
	@DEBUG_VALUE: setPreset:preset <- [%R1+0]
.Ltmp815:
	.loc	43 126 34 prologue_end  @ /root/Bela/projects/RNBO-KPStrong/rnbo/common/RNBO_UniquePtr.h:126:34
	ldr	r4, [r0, #12]
	add	r5, sp, #16
.Ltmp816:
	@DEBUG_VALUE: shared_ptr<RNBO::PatcherState, std::default_delete<RNBO::PatcherState>, void>:__r <- %R1
	@DEBUG_VALUE: ~__shared_ptr:this <- %R5
	@DEBUG_VALUE: ~__shared_ptr:this <- %R5
	@DEBUG_VALUE: shared_ptr<RNBO::PatcherState, std::default_delete<RNBO::PatcherState>, void>:this <- %R5
	.loc	71 233 24               @ /root/Bela/projects/RNBO-KPStrong/rnbo/src/RNBO_CoreObject.cpp:233:24
	ldr	r0, [r4]
.Ltmp817:
	ldr	r6, [r0, #52]
.Ltmp818:
	.loc	29 263 4 discriminator 1 @ /usr/bin/../lib/gcc/arm-linux-gnueabihf/6.3.0/../../../../include/c++/6.3.0/bits/shared_ptr.h:263:4
	mov	r0, r5
	bl	_ZNSt12__shared_ptrIN4RNBO12PatcherStateELN9__gnu_cxx12_Lock_policyE2EEC2IS1_St14default_deleteIS1_EvEEOSt10unique_ptrIT_T0_E
.Ltmp819:
	mov	r0, #0
	mov	r3, sp
.Ltmp820:
	@DEBUG_VALUE: function:this <- %R3
	.loc	33 1685 24              @ /usr/bin/../lib/gcc/arm-linux-gnueabihf/6.3.0/../../../../include/c++/6.3.0/functional:1685:24
	str	r0, [sp, #8]
.Ltmp821:
	.loc	71 234 4                @ /root/Bela/projects/RNBO-KPStrong/rnbo/src/RNBO_CoreObject.cpp:234:4
.Ltmp780:
	vmov.i32	d0, #0x0
	add	r0, sp, #24
	mov	r1, #0
	mov	r2, r5
	bl	_ZN4RNBO11PresetEventC2EfNS0_4TypeESt10shared_ptrINS_12PatcherStateEESt8functionIFvS2_IKS3_EEE
.Ltmp822:
.Ltmp781:
.Ltmp823:
@ BB#1:
	@DEBUG_VALUE: shared_ptr<RNBO::PatcherState, std::default_delete<RNBO::PatcherState>, void>:this <- %R5
	@DEBUG_VALUE: ~__shared_ptr:this <- %R5
	@DEBUG_VALUE: ~__shared_ptr:this <- %R5
	.loc	12 1642 7 discriminator 1 @ /root/Bela/projects/RNBO-KPStrong/rnbo/src/3rdparty/MPark_variant/variant.hpp:1642:7
.Ltmp783:
	add	r5, sp, #24
.Ltmp824:
	@DEBUG_VALUE: alt<RNBO::PresetEvent &>:args <- %R5
	add	r0, sp, #56
.Ltmp825:
	@DEBUG_VALUE: EventVariant<RNBO::PresetEvent>:this <- %R0
	mov	r1, r5
	bl	_ZN4RNBO11PresetEventC2ERKS0_
.Ltmp826:
.Ltmp784:
.Ltmp827:
@ BB#2:
	@DEBUG_VALUE: alt<RNBO::PresetEvent &>:args <- %R5
	.loc	12 1709 4               @ /root/Bela/projects/RNBO-KPStrong/rnbo/src/3rdparty/MPark_variant/variant.hpp:1709:4
	mov	r0, #8
	str	r0, [sp, #88]
.Ltmp828:
	.loc	71 233 24 discriminator 1 @ /root/Bela/projects/RNBO-KPStrong/rnbo/src/RNBO_CoreObject.cpp:233:24
.Ltmp786:
	add	r1, sp, #56
	mov	r0, r4
	blx	r6
.Ltmp787:
.Ltmp829:
@ BB#3:
	@DEBUG_VALUE: alt<RNBO::PresetEvent &>:args <- %R5
	.loc	12 1712 10              @ /root/Bela/projects/RNBO-KPStrong/rnbo/src/3rdparty/MPark_variant/variant.hpp:1712:10
	ldr	r0, [sp, #88]
.Ltmp830:
	@DEBUG_VALUE: at<void (*)(mpark::detail::dtor &&, mpark::detail::base<mpark::detail::Trait::Available, RNBO::EmptyEvent, RNBO::ClockEvent, RNBO::DataRefEvent, RNBO::MidiEvent, RNBO::OutletEvent, RNBO::ParameterEvent, RNBO::UniversalEvent, RNBO::MessageEvent, RNBO::PresetEvent, RNBO::TempoEvent, RNBO::TransportEvent, RNBO::BeatTimeEvent, RNBO::TimeSignatureEvent, RNBO::StartupEvent> &), 14>:i <- %R0
	@DEBUG_VALUE: operator[]:index <- %R0
	.loc	12 1792 473             @ /root/Bela/projects/RNBO-KPStrong/rnbo/src/3rdparty/MPark_variant/variant.hpp:1792:473
	cmn	r0, #1
	beq	.LBB43_5
.Ltmp831:
@ BB#4:
	@DEBUG_VALUE: operator[]:index <- %R0
	@DEBUG_VALUE: at<void (*)(mpark::detail::dtor &&, mpark::detail::base<mpark::detail::Trait::Available, RNBO::EmptyEvent, RNBO::ClockEvent, RNBO::DataRefEvent, RNBO::MidiEvent, RNBO::OutletEvent, RNBO::ParameterEvent, RNBO::UniversalEvent, RNBO::MessageEvent, RNBO::PresetEvent, RNBO::TempoEvent, RNBO::TransportEvent, RNBO::BeatTimeEvent, RNBO::TimeSignatureEvent, RNBO::StartupEvent> &), 14>:i <- %R0
	@DEBUG_VALUE: alt<RNBO::PresetEvent &>:args <- %R5
	@DEBUG_VALUE: operator[]:this <- %R1
	.loc	12 365 12               @ /root/Bela/projects/RNBO-KPStrong/rnbo/src/3rdparty/MPark_variant/variant.hpp:365:12
	movw	r1, :lower16:_ZN5mpark6detail10visitation7fmatrixIONS0_4dtorEJRNS0_4baseILNS0_5TraitE1EJN4RNBO10EmptyEventENS7_10ClockEventENS7_12DataRefEventENS7_9MidiEventENS7_11OutletEventENS7_14ParameterEventENS7_14UniversalEventENS7_12MessageEventENS7_11PresetEventENS7_10TempoEventENS7_14TransportEventENS7_13BeatTimeEventENS7_18TimeSignatureEventENS7_12StartupEventEEEEEE5valueE
.Ltmp832:
	movt	r1, :upper16:_ZN5mpark6detail10visitation7fmatrixIONS0_4dtorEJRNS0_4baseILNS0_5TraitE1EJN4RNBO10EmptyEventENS7_10ClockEventENS7_12DataRefEventENS7_9MidiEventENS7_11OutletEventENS7_14ParameterEventENS7_14UniversalEventENS7_12MessageEventENS7_11PresetEventENS7_10TempoEventENS7_14TransportEventENS7_13BeatTimeEventENS7_18TimeSignatureEventENS7_12StartupEventEEEEEE5valueE
.Ltmp833:
	.loc	12 1516 190             @ /root/Bela/projects/RNBO-KPStrong/rnbo/src/3rdparty/MPark_variant/variant.hpp:1516:190
	ldr	r2, [r1, r0, lsl #2]
	.loc	12 1516 190 is_stmt 0 discriminator 5 @ /root/Bela/projects/RNBO-KPStrong/rnbo/src/3rdparty/MPark_variant/variant.hpp:1516:190
.Ltmp798:
	sub	r0, r11, #20
.Ltmp834:
	@DEBUG_VALUE: visit_alt<mpark::detail::dtor, mpark::detail::destructor<mpark::detail::traits<RNBO::EmptyEvent, RNBO::ClockEvent, RNBO::DataRefEvent, RNBO::MidiEvent, RNBO::OutletEvent, RNBO::ParameterEvent, RNBO::UniversalEvent, RNBO::MessageEvent, RNBO::PresetEvent, RNBO::TempoEvent, RNBO::TransportEvent, RNBO::BeatTimeEvent, RNBO::TimeSignatureEvent, RNBO::StartupEvent>, mpark::detail::Trait::Available> &>:visitor <- %R0
	add	r1, sp, #56
.Ltmp835:
	@DEBUG_VALUE: index:this <- %R1
	@DEBUG_VALUE: valueless_by_exception:this <- %R1
	blx	r2
.Ltmp836:
.Ltmp799:
.Ltmp837:
.LBB43_5:                               @ %_ZN4RNBO12EventVariantD2Ev.exit
	@DEBUG_VALUE: alt<RNBO::PresetEvent &>:args <- %R5
	.loc	33 1689 11 is_stmt 1    @ /usr/bin/../lib/gcc/arm-linux-gnueabihf/6.3.0/../../../../include/c++/6.3.0/functional:1689:11
	ldr	r3, [sp, #48]
.Ltmp838:
	.loc	12 1792 566 discriminator 4 @ /root/Bela/projects/RNBO-KPStrong/rnbo/src/3rdparty/MPark_variant/variant.hpp:1792:566
	mvn	r0, #0
	str	r0, [sp, #88]
.Ltmp839:
	.loc	33 1689 11              @ /usr/bin/../lib/gcc/arm-linux-gnueabihf/6.3.0/../../../../include/c++/6.3.0/functional:1689:11
	cmp	r3, #0
	beq	.LBB43_7
.Ltmp840:
@ BB#6:
	@DEBUG_VALUE: alt<RNBO::PresetEvent &>:args <- %R5
	.loc	33 1690 2               @ /usr/bin/../lib/gcc/arm-linux-gnueabihf/6.3.0/../../../../include/c++/6.3.0/functional:1690:2
.Ltmp801:
	.loc	33 1690 13 is_stmt 0    @ /usr/bin/../lib/gcc/arm-linux-gnueabihf/6.3.0/../../../../include/c++/6.3.0/functional:1690:13
	add	r0, r5, #16
	.loc	33 1690 2               @ /usr/bin/../lib/gcc/arm-linux-gnueabihf/6.3.0/../../../../include/c++/6.3.0/functional:1690:2
	mov	r2, #3
	mov	r1, r0
	blx	r3
.Ltmp802:
.Ltmp841:
.LBB43_7:                               @ %_ZNSt14_Function_baseD2Ev.exit.i
	@DEBUG_VALUE: alt<RNBO::PresetEvent &>:args <- %R5
	.loc	25 661 6 is_stmt 1      @ /usr/bin/../lib/gcc/arm-linux-gnueabihf/6.3.0/../../../../include/c++/6.3.0/bits/shared_ptr_base.h:661:6
	ldr	r4, [sp, #36]
.Ltmp842:
	@DEBUG_VALUE: _M_release:this <- %R4
	.loc	25 661 6 is_stmt 0      @ /usr/bin/../lib/gcc/arm-linux-gnueabihf/6.3.0/../../../../include/c++/6.3.0/bits/shared_ptr_base.h:661:6
	cmp	r4, #0
	beq	.LBB43_21
.Ltmp843:
@ BB#8:
	@DEBUG_VALUE: _M_release:this <- %R4
	@DEBUG_VALUE: alt<RNBO::PresetEvent &>:args <- %R5
	@DEBUG_VALUE: __exchange_and_add_dispatch:__val <- -1
	.loc	87 81 9 is_stmt 1       @ /usr/bin/../lib/gcc/arm-linux-gnueabihf/6.3.0/../../../../include/c++/6.3.0/ext/atomicity.h:81:9
	movw	r5, :lower16:__pthread_key_create
.Ltmp844:
	.loc	25 147 46               @ /usr/bin/../lib/gcc/arm-linux-gnueabihf/6.3.0/../../../../include/c++/6.3.0/bits/shared_ptr_base.h:147:46
	add	r0, r4, #4
.Ltmp845:
	.loc	87 81 9                 @ /usr/bin/../lib/gcc/arm-linux-gnueabihf/6.3.0/../../../../include/c++/6.3.0/ext/atomicity.h:81:9
	movt	r5, :upper16:__pthread_key_create
	cmp	r5, #0
	beq	.LBB43_12
.Ltmp846:
@ BB#9:
	@DEBUG_VALUE: _M_release:this <- %R4
	@DEBUG_VALUE: __exchange_and_add:__val <- -1
	.loc	87 49 12                @ /usr/bin/../lib/gcc/arm-linux-gnueabihf/6.3.0/../../../../include/c++/6.3.0/ext/atomicity.h:49:12
	dmb	ish
.Ltmp847:
.LBB43_10:                              @ %atomicrmw.start
                                        @ =>This Inner Loop Header: Depth=1
	ldrex	r1, [r0]
	sub	r2, r1, #1
	strex	r3, r2, [r0]
	cmp	r3, #0
	bne	.LBB43_10
@ BB#11:                                @ %atomicrmw.end
	dmb	ish
	b	.LBB43_13
.Ltmp848:
.LBB43_12:
	@DEBUG_VALUE: _M_release:this <- %R4
	@DEBUG_VALUE: __exchange_and_add_single:__val <- -1
	.loc	87 67 29                @ /usr/bin/../lib/gcc/arm-linux-gnueabihf/6.3.0/../../../../include/c++/6.3.0/ext/atomicity.h:67:29
	ldr	r1, [r0]
.Ltmp849:
	@DEBUG_VALUE: __exchange_and_add_single:__result <- %R1
	.loc	87 68 12                @ /usr/bin/../lib/gcc/arm-linux-gnueabihf/6.3.0/../../../../include/c++/6.3.0/ext/atomicity.h:68:12
	sub	r2, r1, #1
	str	r2, [r0]
.Ltmp850:
.LBB43_13:                              @ %_ZN9__gnu_cxxL27__exchange_and_add_dispatchEPii.exit.i.i.i.i
	.loc	25 147 6 discriminator 1 @ /usr/bin/../lib/gcc/arm-linux-gnueabihf/6.3.0/../../../../include/c++/6.3.0/bits/shared_ptr_base.h:147:6
	cmp	r1, #1
	bne	.LBB43_21
@ BB#14:
.Ltmp851:
	.loc	25 150 6                @ /usr/bin/../lib/gcc/arm-linux-gnueabihf/6.3.0/../../../../include/c++/6.3.0/bits/shared_ptr_base.h:150:6
	mov	r6, r4
	ldr	r0, [r6], #8
	ldr	r1, [r0, #8]
	mov	r0, r4
	blx	r1
.Ltmp852:
	@DEBUG_VALUE: __exchange_and_add_dispatch:__val <- -1
	.loc	87 81 9                 @ /usr/bin/../lib/gcc/arm-linux-gnueabihf/6.3.0/../../../../include/c++/6.3.0/ext/atomicity.h:81:9
	cmp	r5, #0
	beq	.LBB43_18
@ BB#15:
.Ltmp853:
	@DEBUG_VALUE: __exchange_and_add:__val <- -1
	.loc	87 49 12                @ /usr/bin/../lib/gcc/arm-linux-gnueabihf/6.3.0/../../../../include/c++/6.3.0/ext/atomicity.h:49:12
	dmb	ish
.LBB43_16:                              @ %atomicrmw.start19
                                        @ =>This Inner Loop Header: Depth=1
	ldrex	r0, [r6]
	sub	r1, r0, #1
	strex	r2, r1, [r6]
	cmp	r2, #0
	bne	.LBB43_16
@ BB#17:                                @ %atomicrmw.end18
	dmb	ish
	b	.LBB43_19
.Ltmp854:
.LBB43_18:
	@DEBUG_VALUE: __exchange_and_add_single:__val <- -1
	.loc	87 67 29                @ /usr/bin/../lib/gcc/arm-linux-gnueabihf/6.3.0/../../../../include/c++/6.3.0/ext/atomicity.h:67:29
	ldr	r0, [r6]
.Ltmp855:
	@DEBUG_VALUE: __exchange_and_add_single:__result <- %R0
	.loc	87 68 12                @ /usr/bin/../lib/gcc/arm-linux-gnueabihf/6.3.0/../../../../include/c++/6.3.0/ext/atomicity.h:68:12
	sub	r1, r0, #1
	str	r1, [r6]
.Ltmp856:
.LBB43_19:                              @ %_ZN9__gnu_cxxL27__exchange_and_add_dispatchEPii.exit2.i.i.i.i
	.loc	25 162 10 discriminator 1 @ /usr/bin/../lib/gcc/arm-linux-gnueabihf/6.3.0/../../../../include/c++/6.3.0/bits/shared_ptr_base.h:162:10
	cmp	r0, #1
	bne	.LBB43_21
@ BB#20:
.Ltmp857:
	.loc	25 166 10               @ /usr/bin/../lib/gcc/arm-linux-gnueabihf/6.3.0/../../../../include/c++/6.3.0/bits/shared_ptr_base.h:166:10
	ldr	r0, [r4]
	ldr	r1, [r0, #12]
	mov	r0, r4
	blx	r1
.Ltmp858:
.LBB43_21:                              @ %_ZN4RNBO11PresetEventD2Ev.exit
	.loc	33 1689 11              @ /usr/bin/../lib/gcc/arm-linux-gnueabihf/6.3.0/../../../../include/c++/6.3.0/functional:1689:11
	ldr	r3, [sp, #8]
.Ltmp859:
	.loc	33 1689 11 is_stmt 0    @ /usr/bin/../lib/gcc/arm-linux-gnueabihf/6.3.0/../../../../include/c++/6.3.0/functional:1689:11
	cmp	r3, #0
	beq	.LBB43_23
@ BB#22:
.Ltmp860:
	.loc	33 1690 2 is_stmt 1     @ /usr/bin/../lib/gcc/arm-linux-gnueabihf/6.3.0/../../../../include/c++/6.3.0/functional:1690:2
.Ltmp804:
	mov	r0, sp
	mov	r2, #3
	mov	r1, r0
	blx	r3
.Ltmp805:
.Ltmp861:
.LBB43_23:                              @ %_ZNSt14_Function_baseD2Ev.exit4
	.loc	25 661 6                @ /usr/bin/../lib/gcc/arm-linux-gnueabihf/6.3.0/../../../../include/c++/6.3.0/bits/shared_ptr_base.h:661:6
	ldr	r4, [sp, #20]
.Ltmp862:
	@DEBUG_VALUE: _M_release:this <- %R4
	.loc	25 661 6 is_stmt 0      @ /usr/bin/../lib/gcc/arm-linux-gnueabihf/6.3.0/../../../../include/c++/6.3.0/bits/shared_ptr_base.h:661:6
	cmp	r4, #0
	beq	.LBB43_37
.Ltmp863:
@ BB#24:
	@DEBUG_VALUE: _M_release:this <- %R4
	@DEBUG_VALUE: __exchange_and_add_dispatch:__val <- -1
	.loc	87 81 9 is_stmt 1       @ /usr/bin/../lib/gcc/arm-linux-gnueabihf/6.3.0/../../../../include/c++/6.3.0/ext/atomicity.h:81:9
	movw	r5, :lower16:__pthread_key_create
.Ltmp864:
	.loc	25 147 46               @ /usr/bin/../lib/gcc/arm-linux-gnueabihf/6.3.0/../../../../include/c++/6.3.0/bits/shared_ptr_base.h:147:46
	add	r0, r4, #4
.Ltmp865:
	.loc	87 81 9                 @ /usr/bin/../lib/gcc/arm-linux-gnueabihf/6.3.0/../../../../include/c++/6.3.0/ext/atomicity.h:81:9
	movt	r5, :upper16:__pthread_key_create
	cmp	r5, #0
	beq	.LBB43_28
.Ltmp866:
@ BB#25:
	@DEBUG_VALUE: _M_release:this <- %R4
	@DEBUG_VALUE: __exchange_and_add:__val <- -1
	.loc	87 49 12                @ /usr/bin/../lib/gcc/arm-linux-gnueabihf/6.3.0/../../../../include/c++/6.3.0/ext/atomicity.h:49:12
	dmb	ish
.Ltmp867:
.LBB43_26:                              @ %atomicrmw.start23
                                        @ =>This Inner Loop Header: Depth=1
	ldrex	r1, [r0]
	sub	r2, r1, #1
	strex	r3, r2, [r0]
	cmp	r3, #0
	bne	.LBB43_26
@ BB#27:                                @ %atomicrmw.end22
	dmb	ish
	b	.LBB43_29
.Ltmp868:
.LBB43_28:
	@DEBUG_VALUE: _M_release:this <- %R4
	@DEBUG_VALUE: __exchange_and_add_single:__val <- -1
	.loc	87 67 29                @ /usr/bin/../lib/gcc/arm-linux-gnueabihf/6.3.0/../../../../include/c++/6.3.0/ext/atomicity.h:67:29
	ldr	r1, [r0]
.Ltmp869:
	@DEBUG_VALUE: __exchange_and_add_single:__result <- %R1
	.loc	87 68 12                @ /usr/bin/../lib/gcc/arm-linux-gnueabihf/6.3.0/../../../../include/c++/6.3.0/ext/atomicity.h:68:12
	sub	r2, r1, #1
	str	r2, [r0]
.Ltmp870:
.LBB43_29:                              @ %_ZN9__gnu_cxxL27__exchange_and_add_dispatchEPii.exit.i.i.i6
	.loc	25 147 6 discriminator 1 @ /usr/bin/../lib/gcc/arm-linux-gnueabihf/6.3.0/../../../../include/c++/6.3.0/bits/shared_ptr_base.h:147:6
	cmp	r1, #1
	bne	.LBB43_37
@ BB#30:
.Ltmp871:
	.loc	25 150 6                @ /usr/bin/../lib/gcc/arm-linux-gnueabihf/6.3.0/../../../../include/c++/6.3.0/bits/shared_ptr_base.h:150:6
	mov	r6, r4
	ldr	r0, [r6], #8
	ldr	r1, [r0, #8]
	mov	r0, r4
	blx	r1
.Ltmp872:
	@DEBUG_VALUE: __exchange_and_add_dispatch:__val <- -1
	.loc	87 81 9                 @ /usr/bin/../lib/gcc/arm-linux-gnueabihf/6.3.0/../../../../include/c++/6.3.0/ext/atomicity.h:81:9
	cmp	r5, #0
	beq	.LBB43_34
@ BB#31:
.Ltmp873:
	@DEBUG_VALUE: __exchange_and_add:__val <- -1
	.loc	87 49 12                @ /usr/bin/../lib/gcc/arm-linux-gnueabihf/6.3.0/../../../../include/c++/6.3.0/ext/atomicity.h:49:12
	dmb	ish
.LBB43_32:                              @ %atomicrmw.start27
                                        @ =>This Inner Loop Header: Depth=1
	ldrex	r0, [r6]
	sub	r1, r0, #1
	strex	r2, r1, [r6]
	cmp	r2, #0
	bne	.LBB43_32
@ BB#33:                                @ %atomicrmw.end26
	dmb	ish
	b	.LBB43_35
.Ltmp874:
.LBB43_34:
	@DEBUG_VALUE: __exchange_and_add_single:__val <- -1
	.loc	87 67 29                @ /usr/bin/../lib/gcc/arm-linux-gnueabihf/6.3.0/../../../../include/c++/6.3.0/ext/atomicity.h:67:29
	ldr	r0, [r6]
.Ltmp875:
	@DEBUG_VALUE: __exchange_and_add_single:__result <- %R0
	.loc	87 68 12                @ /usr/bin/../lib/gcc/arm-linux-gnueabihf/6.3.0/../../../../include/c++/6.3.0/ext/atomicity.h:68:12
	sub	r1, r0, #1
	str	r1, [r6]
.Ltmp876:
.LBB43_35:                              @ %_ZN9__gnu_cxxL27__exchange_and_add_dispatchEPii.exit2.i.i.i8
	.loc	25 162 10 discriminator 1 @ /usr/bin/../lib/gcc/arm-linux-gnueabihf/6.3.0/../../../../include/c++/6.3.0/bits/shared_ptr_base.h:162:10
	cmp	r0, #1
	bne	.LBB43_37
@ BB#36:
.Ltmp877:
	.loc	25 166 10               @ /usr/bin/../lib/gcc/arm-linux-gnueabihf/6.3.0/../../../../include/c++/6.3.0/bits/shared_ptr_base.h:166:10
	ldr	r0, [r4]
	ldr	r1, [r0, #12]
	mov	r0, r4
	blx	r1
.Ltmp878:
.LBB43_37:                              @ %_ZNSt12__shared_ptrIN4RNBO12PatcherStateELN9__gnu_cxx12_Lock_policyE2EED2Ev.exit9
	.loc	71 236 2                @ /root/Bela/projects/RNBO-KPStrong/rnbo/src/RNBO_CoreObject.cpp:236:2
	sub	sp, r11, #16
	pop	{r4, r5, r6, r7, r11, pc}
.LBB43_38:
.Ltmp806:
.Ltmp879:
	.loc	33 1690 2 discriminator 2 @ /usr/bin/../lib/gcc/arm-linux-gnueabihf/6.3.0/../../../../include/c++/6.3.0/functional:1690:2
	mov	lr, pc
	b	__clang_call_terminate
.Ltmp880:
.LBB43_39:
	@DEBUG_VALUE: alt<RNBO::PresetEvent &>:args <- %R5
.Ltmp803:
.Ltmp881:
	.loc	33 1690 2 is_stmt 0 discriminator 2 @ /usr/bin/../lib/gcc/arm-linux-gnueabihf/6.3.0/../../../../include/c++/6.3.0/functional:1690:2
	mov	lr, pc
	b	__clang_call_terminate
.Ltmp882:
.LBB43_40:
	@DEBUG_VALUE: alt<RNBO::PresetEvent &>:args <- %R5
.Ltmp800:
.Ltmp883:
	.loc	12 1792 508 is_stmt 1 discriminator 5 @ /root/Bela/projects/RNBO-KPStrong/rnbo/src/3rdparty/MPark_variant/variant.hpp:1792:508
	mov	lr, pc
	b	__clang_call_terminate
.Ltmp884:
.LBB43_41:
	@DEBUG_VALUE: alt<RNBO::PresetEvent &>:args <- %R5
.Ltmp788:
	mov	r4, r0
.Ltmp885:
	.loc	12 1712 10              @ /root/Bela/projects/RNBO-KPStrong/rnbo/src/3rdparty/MPark_variant/variant.hpp:1712:10
	ldr	r0, [sp, #88]
.Ltmp886:
	@DEBUG_VALUE: at<void (*)(mpark::detail::dtor &&, mpark::detail::base<mpark::detail::Trait::Available, RNBO::EmptyEvent, RNBO::ClockEvent, RNBO::DataRefEvent, RNBO::MidiEvent, RNBO::OutletEvent, RNBO::ParameterEvent, RNBO::UniversalEvent, RNBO::MessageEvent, RNBO::PresetEvent, RNBO::TempoEvent, RNBO::TransportEvent, RNBO::BeatTimeEvent, RNBO::TimeSignatureEvent, RNBO::StartupEvent> &), 14>:i <- %R0
	@DEBUG_VALUE: operator[]:index <- %R0
	.loc	12 1792 473             @ /root/Bela/projects/RNBO-KPStrong/rnbo/src/3rdparty/MPark_variant/variant.hpp:1792:473
	cmn	r0, #1
	beq	.LBB43_43
.Ltmp887:
@ BB#42:
	@DEBUG_VALUE: operator[]:index <- %R0
	@DEBUG_VALUE: at<void (*)(mpark::detail::dtor &&, mpark::detail::base<mpark::detail::Trait::Available, RNBO::EmptyEvent, RNBO::ClockEvent, RNBO::DataRefEvent, RNBO::MidiEvent, RNBO::OutletEvent, RNBO::ParameterEvent, RNBO::UniversalEvent, RNBO::MessageEvent, RNBO::PresetEvent, RNBO::TempoEvent, RNBO::TransportEvent, RNBO::BeatTimeEvent, RNBO::TimeSignatureEvent, RNBO::StartupEvent> &), 14>:i <- %R0
	@DEBUG_VALUE: alt<RNBO::PresetEvent &>:args <- %R5
	@DEBUG_VALUE: operator[]:this <- %R1
	.loc	12 365 12               @ /root/Bela/projects/RNBO-KPStrong/rnbo/src/3rdparty/MPark_variant/variant.hpp:365:12
	movw	r1, :lower16:_ZN5mpark6detail10visitation7fmatrixIONS0_4dtorEJRNS0_4baseILNS0_5TraitE1EJN4RNBO10EmptyEventENS7_10ClockEventENS7_12DataRefEventENS7_9MidiEventENS7_11OutletEventENS7_14ParameterEventENS7_14UniversalEventENS7_12MessageEventENS7_11PresetEventENS7_10TempoEventENS7_14TransportEventENS7_13BeatTimeEventENS7_18TimeSignatureEventENS7_12StartupEventEEEEEE5valueE
.Ltmp888:
	movt	r1, :upper16:_ZN5mpark6detail10visitation7fmatrixIONS0_4dtorEJRNS0_4baseILNS0_5TraitE1EJN4RNBO10EmptyEventENS7_10ClockEventENS7_12DataRefEventENS7_9MidiEventENS7_11OutletEventENS7_14ParameterEventENS7_14UniversalEventENS7_12MessageEventENS7_11PresetEventENS7_10TempoEventENS7_14TransportEventENS7_13BeatTimeEventENS7_18TimeSignatureEventENS7_12StartupEventEEEEEE5valueE
.Ltmp889:
	.loc	12 1516 190             @ /root/Bela/projects/RNBO-KPStrong/rnbo/src/3rdparty/MPark_variant/variant.hpp:1516:190
	ldr	r2, [r1, r0, lsl #2]
	.loc	12 1516 190 is_stmt 0 discriminator 5 @ /root/Bela/projects/RNBO-KPStrong/rnbo/src/3rdparty/MPark_variant/variant.hpp:1516:190
.Ltmp789:
	sub	r0, r11, #20
.Ltmp890:
	@DEBUG_VALUE: visit_alt<mpark::detail::dtor, mpark::detail::destructor<mpark::detail::traits<RNBO::EmptyEvent, RNBO::ClockEvent, RNBO::DataRefEvent, RNBO::MidiEvent, RNBO::OutletEvent, RNBO::ParameterEvent, RNBO::UniversalEvent, RNBO::MessageEvent, RNBO::PresetEvent, RNBO::TempoEvent, RNBO::TransportEvent, RNBO::BeatTimeEvent, RNBO::TimeSignatureEvent, RNBO::StartupEvent>, mpark::detail::Trait::Available> &>:visitor <- %R0
	add	r1, sp, #56
.Ltmp891:
	@DEBUG_VALUE: index:this <- %R1
	@DEBUG_VALUE: valueless_by_exception:this <- %R1
	blx	r2
.Ltmp892:
.Ltmp790:
.Ltmp893:
.LBB43_43:                              @ %_ZN4RNBO12EventVariantD2Ev.exit11
	@DEBUG_VALUE: alt<RNBO::PresetEvent &>:args <- %R5
	.loc	12 1792 566 is_stmt 1 discriminator 4 @ /root/Bela/projects/RNBO-KPStrong/rnbo/src/3rdparty/MPark_variant/variant.hpp:1792:566
	mvn	r0, #0
	str	r0, [sp, #88]
	b	.LBB43_46
.Ltmp894:
.LBB43_44:
	@DEBUG_VALUE: alt<RNBO::PresetEvent &>:args <- %R5
.Ltmp791:
.Ltmp895:
	.loc	12 1792 508 is_stmt 0 discriminator 5 @ /root/Bela/projects/RNBO-KPStrong/rnbo/src/3rdparty/MPark_variant/variant.hpp:1792:508
	mov	lr, pc
	b	__clang_call_terminate
.Ltmp896:
.LBB43_45:
	@DEBUG_VALUE: alt<RNBO::PresetEvent &>:args <- %R5
.Ltmp785:
	mov	r4, r0
.Ltmp897:
.LBB43_46:
	@DEBUG_VALUE: alt<RNBO::PresetEvent &>:args <- %R5
	.loc	33 1689 11 is_stmt 1    @ /usr/bin/../lib/gcc/arm-linux-gnueabihf/6.3.0/../../../../include/c++/6.3.0/functional:1689:11
	ldr	r3, [sp, #48]
.Ltmp898:
	.loc	33 1689 11 is_stmt 0    @ /usr/bin/../lib/gcc/arm-linux-gnueabihf/6.3.0/../../../../include/c++/6.3.0/functional:1689:11
	cmp	r3, #0
	beq	.LBB43_48
.Ltmp899:
@ BB#47:
	@DEBUG_VALUE: alt<RNBO::PresetEvent &>:args <- %R5
	.loc	33 1690 2 is_stmt 1     @ /usr/bin/../lib/gcc/arm-linux-gnueabihf/6.3.0/../../../../include/c++/6.3.0/functional:1690:2
.Ltmp792:
	.loc	33 1690 13 is_stmt 0    @ /usr/bin/../lib/gcc/arm-linux-gnueabihf/6.3.0/../../../../include/c++/6.3.0/functional:1690:13
	add	r0, r5, #16
	.loc	33 1690 2               @ /usr/bin/../lib/gcc/arm-linux-gnueabihf/6.3.0/../../../../include/c++/6.3.0/functional:1690:2
	mov	r2, #3
	mov	r1, r0
	blx	r3
.Ltmp793:
.Ltmp900:
.LBB43_48:                              @ %_ZNSt14_Function_baseD2Ev.exit.i12
	@DEBUG_VALUE: alt<RNBO::PresetEvent &>:args <- %R5
	.loc	25 661 6 is_stmt 1      @ /usr/bin/../lib/gcc/arm-linux-gnueabihf/6.3.0/../../../../include/c++/6.3.0/bits/shared_ptr_base.h:661:6
	ldr	r5, [sp, #36]
.Ltmp901:
	@DEBUG_VALUE: _M_release:this <- %R5
	.loc	25 661 6 is_stmt 0      @ /usr/bin/../lib/gcc/arm-linux-gnueabihf/6.3.0/../../../../include/c++/6.3.0/bits/shared_ptr_base.h:661:6
	cmp	r5, #0
	beq	.LBB43_64
.Ltmp902:
@ BB#49:
	@DEBUG_VALUE: _M_release:this <- %R5
	@DEBUG_VALUE: __exchange_and_add_dispatch:__val <- -1
	.loc	87 81 9 is_stmt 1       @ /usr/bin/../lib/gcc/arm-linux-gnueabihf/6.3.0/../../../../include/c++/6.3.0/ext/atomicity.h:81:9
	movw	r6, :lower16:__pthread_key_create
.Ltmp903:
	.loc	25 147 46               @ /usr/bin/../lib/gcc/arm-linux-gnueabihf/6.3.0/../../../../include/c++/6.3.0/bits/shared_ptr_base.h:147:46
	add	r0, r5, #4
.Ltmp904:
	.loc	87 81 9                 @ /usr/bin/../lib/gcc/arm-linux-gnueabihf/6.3.0/../../../../include/c++/6.3.0/ext/atomicity.h:81:9
	movt	r6, :upper16:__pthread_key_create
	cmp	r6, #0
	beq	.LBB43_53
.Ltmp905:
@ BB#50:
	@DEBUG_VALUE: _M_release:this <- %R5
	@DEBUG_VALUE: __exchange_and_add:__val <- -1
	.loc	87 49 12                @ /usr/bin/../lib/gcc/arm-linux-gnueabihf/6.3.0/../../../../include/c++/6.3.0/ext/atomicity.h:49:12
	dmb	ish
.Ltmp906:
.LBB43_51:                              @ %atomicrmw.start31
                                        @ =>This Inner Loop Header: Depth=1
	ldrex	r1, [r0]
	sub	r2, r1, #1
	strex	r3, r2, [r0]
	cmp	r3, #0
	bne	.LBB43_51
@ BB#52:                                @ %atomicrmw.end30
	dmb	ish
	b	.LBB43_54
.Ltmp907:
.LBB43_53:
	@DEBUG_VALUE: _M_release:this <- %R5
	@DEBUG_VALUE: __exchange_and_add_single:__val <- -1
	.loc	87 67 29                @ /usr/bin/../lib/gcc/arm-linux-gnueabihf/6.3.0/../../../../include/c++/6.3.0/ext/atomicity.h:67:29
	ldr	r1, [r0]
.Ltmp908:
	@DEBUG_VALUE: __exchange_and_add_single:__result <- %R1
	.loc	87 68 12                @ /usr/bin/../lib/gcc/arm-linux-gnueabihf/6.3.0/../../../../include/c++/6.3.0/ext/atomicity.h:68:12
	sub	r2, r1, #1
	str	r2, [r0]
.Ltmp909:
.LBB43_54:                              @ %_ZN9__gnu_cxxL27__exchange_and_add_dispatchEPii.exit.i.i.i.i14
	.loc	25 147 6 discriminator 1 @ /usr/bin/../lib/gcc/arm-linux-gnueabihf/6.3.0/../../../../include/c++/6.3.0/bits/shared_ptr_base.h:147:6
	cmp	r1, #1
	bne	.LBB43_64
@ BB#55:
.Ltmp910:
	.loc	25 150 6                @ /usr/bin/../lib/gcc/arm-linux-gnueabihf/6.3.0/../../../../include/c++/6.3.0/bits/shared_ptr_base.h:150:6
	mov	r7, r5
	ldr	r0, [r7], #8
	ldr	r1, [r0, #8]
	mov	r0, r5
	blx	r1
.Ltmp911:
	@DEBUG_VALUE: __exchange_and_add_dispatch:__val <- -1
	.loc	87 81 9                 @ /usr/bin/../lib/gcc/arm-linux-gnueabihf/6.3.0/../../../../include/c++/6.3.0/ext/atomicity.h:81:9
	cmp	r6, #0
	beq	.LBB43_59
@ BB#56:
.Ltmp912:
	@DEBUG_VALUE: __exchange_and_add:__val <- -1
	.loc	87 49 12                @ /usr/bin/../lib/gcc/arm-linux-gnueabihf/6.3.0/../../../../include/c++/6.3.0/ext/atomicity.h:49:12
	dmb	ish
.LBB43_57:                              @ %atomicrmw.start35
                                        @ =>This Inner Loop Header: Depth=1
	ldrex	r0, [r7]
	sub	r1, r0, #1
	strex	r2, r1, [r7]
	cmp	r2, #0
	bne	.LBB43_57
@ BB#58:                                @ %atomicrmw.end34
	dmb	ish
	b	.LBB43_60
.Ltmp913:
.LBB43_59:
	@DEBUG_VALUE: __exchange_and_add_single:__val <- -1
	.loc	87 67 29                @ /usr/bin/../lib/gcc/arm-linux-gnueabihf/6.3.0/../../../../include/c++/6.3.0/ext/atomicity.h:67:29
	ldr	r0, [r7]
.Ltmp914:
	@DEBUG_VALUE: __exchange_and_add_single:__result <- %R0
	.loc	87 68 12                @ /usr/bin/../lib/gcc/arm-linux-gnueabihf/6.3.0/../../../../include/c++/6.3.0/ext/atomicity.h:68:12
	sub	r1, r0, #1
	str	r1, [r7]
.Ltmp915:
.LBB43_60:                              @ %_ZN9__gnu_cxxL27__exchange_and_add_dispatchEPii.exit2.i.i.i.i16
	.loc	25 162 10 discriminator 1 @ /usr/bin/../lib/gcc/arm-linux-gnueabihf/6.3.0/../../../../include/c++/6.3.0/bits/shared_ptr_base.h:162:10
	cmp	r0, #1
	bne	.LBB43_64
@ BB#61:
.Ltmp916:
	.loc	25 166 10               @ /usr/bin/../lib/gcc/arm-linux-gnueabihf/6.3.0/../../../../include/c++/6.3.0/bits/shared_ptr_base.h:166:10
	ldr	r0, [r5]
	ldr	r1, [r0, #12]
	mov	r0, r5
	blx	r1
	b	.LBB43_64
.Ltmp917:
.LBB43_62:
	@DEBUG_VALUE: alt<RNBO::PresetEvent &>:args <- %R5
.Ltmp794:
.Ltmp918:
	.loc	33 1690 2 discriminator 2 @ /usr/bin/../lib/gcc/arm-linux-gnueabihf/6.3.0/../../../../include/c++/6.3.0/functional:1690:2
	mov	lr, pc
	b	__clang_call_terminate
.Ltmp919:
.LBB43_63:
	@DEBUG_VALUE: shared_ptr<RNBO::PatcherState, std::default_delete<RNBO::PatcherState>, void>:this <- %R5
	@DEBUG_VALUE: ~__shared_ptr:this <- %R5
	@DEBUG_VALUE: ~__shared_ptr:this <- %R5
.Ltmp782:
	mov	r4, r0
.Ltmp920:
.LBB43_64:                              @ %_ZN4RNBO11PresetEventD2Ev.exit17
	.loc	33 1689 11              @ /usr/bin/../lib/gcc/arm-linux-gnueabihf/6.3.0/../../../../include/c++/6.3.0/functional:1689:11
	ldr	r3, [sp, #8]
.Ltmp921:
	.loc	33 1689 11 is_stmt 0    @ /usr/bin/../lib/gcc/arm-linux-gnueabihf/6.3.0/../../../../include/c++/6.3.0/functional:1689:11
	cmp	r3, #0
	beq	.LBB43_66
@ BB#65:
.Ltmp922:
	.loc	33 1690 2 is_stmt 1     @ /usr/bin/../lib/gcc/arm-linux-gnueabihf/6.3.0/../../../../include/c++/6.3.0/functional:1690:2
.Ltmp795:
	mov	r0, sp
	mov	r2, #3
	mov	r1, r0
	blx	r3
.Ltmp796:
.Ltmp923:
.LBB43_66:                              @ %_ZNSt14_Function_baseD2Ev.exit
	.loc	25 661 6                @ /usr/bin/../lib/gcc/arm-linux-gnueabihf/6.3.0/../../../../include/c++/6.3.0/bits/shared_ptr_base.h:661:6
	ldr	r5, [sp, #20]
.Ltmp924:
	@DEBUG_VALUE: _M_release:this <- %R5
	.loc	25 661 6 is_stmt 0      @ /usr/bin/../lib/gcc/arm-linux-gnueabihf/6.3.0/../../../../include/c++/6.3.0/bits/shared_ptr_base.h:661:6
	cmp	r5, #0
	beq	.LBB43_79
.Ltmp925:
@ BB#67:
	@DEBUG_VALUE: _M_release:this <- %R5
	@DEBUG_VALUE: __exchange_and_add_dispatch:__val <- -1
	.loc	87 81 9 is_stmt 1       @ /usr/bin/../lib/gcc/arm-linux-gnueabihf/6.3.0/../../../../include/c++/6.3.0/ext/atomicity.h:81:9
	movw	r6, :lower16:__pthread_key_create
.Ltmp926:
	.loc	25 147 46               @ /usr/bin/../lib/gcc/arm-linux-gnueabihf/6.3.0/../../../../include/c++/6.3.0/bits/shared_ptr_base.h:147:46
	add	r0, r5, #4
.Ltmp927:
	.loc	87 81 9                 @ /usr/bin/../lib/gcc/arm-linux-gnueabihf/6.3.0/../../../../include/c++/6.3.0/ext/atomicity.h:81:9
	movt	r6, :upper16:__pthread_key_create
	cmp	r6, #0
	beq	.LBB43_71
.Ltmp928:
@ BB#68:
	@DEBUG_VALUE: _M_release:this <- %R5
	@DEBUG_VALUE: __exchange_and_add:__val <- -1
	.loc	87 49 12                @ /usr/bin/../lib/gcc/arm-linux-gnueabihf/6.3.0/../../../../include/c++/6.3.0/ext/atomicity.h:49:12
	dmb	ish
.Ltmp929:
.LBB43_69:                              @ %atomicrmw.start39
                                        @ =>This Inner Loop Header: Depth=1
	ldrex	r1, [r0]
	sub	r2, r1, #1
	strex	r3, r2, [r0]
	cmp	r3, #0
	bne	.LBB43_69
@ BB#70:                                @ %atomicrmw.end38
	dmb	ish
	b	.LBB43_72
.Ltmp930:
.LBB43_71:
	@DEBUG_VALUE: _M_release:this <- %R5
	@DEBUG_VALUE: __exchange_and_add_single:__val <- -1
	.loc	87 67 29                @ /usr/bin/../lib/gcc/arm-linux-gnueabihf/6.3.0/../../../../include/c++/6.3.0/ext/atomicity.h:67:29
	ldr	r1, [r0]
.Ltmp931:
	@DEBUG_VALUE: __exchange_and_add_single:__result <- %R1
	.loc	87 68 12                @ /usr/bin/../lib/gcc/arm-linux-gnueabihf/6.3.0/../../../../include/c++/6.3.0/ext/atomicity.h:68:12
	sub	r2, r1, #1
	str	r2, [r0]
.Ltmp932:
.LBB43_72:                              @ %_ZN9__gnu_cxxL27__exchange_and_add_dispatchEPii.exit.i.i.i
	.loc	25 147 6 discriminator 1 @ /usr/bin/../lib/gcc/arm-linux-gnueabihf/6.3.0/../../../../include/c++/6.3.0/bits/shared_ptr_base.h:147:6
	cmp	r1, #1
	bne	.LBB43_79
@ BB#73:
.Ltmp933:
	.loc	25 150 6                @ /usr/bin/../lib/gcc/arm-linux-gnueabihf/6.3.0/../../../../include/c++/6.3.0/bits/shared_ptr_base.h:150:6
	mov	r7, r5
	ldr	r0, [r7], #8
	ldr	r1, [r0, #8]
	mov	r0, r5
	blx	r1
.Ltmp934:
	@DEBUG_VALUE: __exchange_and_add_dispatch:__val <- -1
	.loc	87 81 9                 @ /usr/bin/../lib/gcc/arm-linux-gnueabihf/6.3.0/../../../../include/c++/6.3.0/ext/atomicity.h:81:9
	cmp	r6, #0
	beq	.LBB43_80
@ BB#74:
.Ltmp935:
	@DEBUG_VALUE: __exchange_and_add:__val <- -1
	.loc	87 49 12                @ /usr/bin/../lib/gcc/arm-linux-gnueabihf/6.3.0/../../../../include/c++/6.3.0/ext/atomicity.h:49:12
	dmb	ish
.LBB43_75:                              @ %atomicrmw.start43
                                        @ =>This Inner Loop Header: Depth=1
	ldrex	r0, [r7]
	sub	r1, r0, #1
	strex	r2, r1, [r7]
	cmp	r2, #0
	bne	.LBB43_75
@ BB#76:                                @ %atomicrmw.end42
	dmb	ish
.Ltmp936:
.LBB43_77:                              @ %_ZN9__gnu_cxxL27__exchange_and_add_dispatchEPii.exit2.i.i.i
	.loc	25 162 10 discriminator 1 @ /usr/bin/../lib/gcc/arm-linux-gnueabihf/6.3.0/../../../../include/c++/6.3.0/bits/shared_ptr_base.h:162:10
	cmp	r0, #1
	bne	.LBB43_79
@ BB#78:
.Ltmp937:
	.loc	25 166 10               @ /usr/bin/../lib/gcc/arm-linux-gnueabihf/6.3.0/../../../../include/c++/6.3.0/bits/shared_ptr_base.h:166:10
	ldr	r0, [r5]
	ldr	r1, [r0, #12]
	mov	r0, r5
	blx	r1
.Ltmp938:
.LBB43_79:                              @ %_ZNSt12__shared_ptrIN4RNBO12PatcherStateELN9__gnu_cxx12_Lock_policyE2EED2Ev.exit
	mov	r0, r4
	mov	lr, pc
	b	_Unwind_Resume
.LBB43_80:
.Ltmp939:
	@DEBUG_VALUE: __exchange_and_add_single:__val <- -1
	.loc	87 67 29                @ /usr/bin/../lib/gcc/arm-linux-gnueabihf/6.3.0/../../../../include/c++/6.3.0/ext/atomicity.h:67:29
	ldr	r0, [r7]
.Ltmp940:
	@DEBUG_VALUE: __exchange_and_add_single:__result <- %R0
	.loc	87 68 12                @ /usr/bin/../lib/gcc/arm-linux-gnueabihf/6.3.0/../../../../include/c++/6.3.0/ext/atomicity.h:68:12
	sub	r1, r0, #1
	str	r1, [r7]
	b	.LBB43_77
.Ltmp941:
.LBB43_81:
.Ltmp797:
.Ltmp942:
	.loc	33 1690 2 discriminator 2 @ /usr/bin/../lib/gcc/arm-linux-gnueabihf/6.3.0/../../../../include/c++/6.3.0/functional:1690:2
	mov	lr, pc
	b	__clang_call_terminate
.Ltmp943:
.Lfunc_end43:
	.size	_ZN4RNBO10CoreObject9setPresetESt10unique_ptrINS_12PatcherStateESt14default_deleteIS2_EE, .Lfunc_end43-_ZN4RNBO10CoreObject9setPresetESt10unique_ptrINS_12PatcherStateESt14default_deleteIS2_EE
	.cfi_endproc
	.globl	__gxx_personality_v0
	.personality __gxx_personality_v0
	.handlerdata
	.p2align	2
GCC_except_table43:
.Lexception10:
	.byte	255                     @ @LPStart Encoding = omit
	.byte	0                       @ @TType Encoding = absptr
	.asciz	"\277\201"              @ @TType base offset
	.byte	3                       @ Call site Encoding = udata4
	.ascii	"\266\001"              @ Call site table length
	.long	.Lfunc_begin43-.Lfunc_begin43 @ >> Call Site 1 <<
	.long	.Ltmp780-.Lfunc_begin43 @   Call between .Lfunc_begin43 and .Ltmp780
	.long	0                       @     has no landing pad
	.byte	0                       @   On action: cleanup
	.long	.Ltmp780-.Lfunc_begin43 @ >> Call Site 2 <<
	.long	.Ltmp781-.Ltmp780       @   Call between .Ltmp780 and .Ltmp781
	.long	.Ltmp782-.Lfunc_begin43 @     jumps to .Ltmp782
	.byte	0                       @   On action: cleanup
	.long	.Ltmp783-.Lfunc_begin43 @ >> Call Site 3 <<
	.long	.Ltmp784-.Ltmp783       @   Call between .Ltmp783 and .Ltmp784
	.long	.Ltmp785-.Lfunc_begin43 @     jumps to .Ltmp785
	.byte	0                       @   On action: cleanup
	.long	.Ltmp786-.Lfunc_begin43 @ >> Call Site 4 <<
	.long	.Ltmp787-.Ltmp786       @   Call between .Ltmp786 and .Ltmp787
	.long	.Ltmp788-.Lfunc_begin43 @     jumps to .Ltmp788
	.byte	0                       @   On action: cleanup
	.long	.Ltmp798-.Lfunc_begin43 @ >> Call Site 5 <<
	.long	.Ltmp799-.Ltmp798       @   Call between .Ltmp798 and .Ltmp799
	.long	.Ltmp800-.Lfunc_begin43 @     jumps to .Ltmp800
	.byte	1                       @   On action: 1
	.long	.Ltmp801-.Lfunc_begin43 @ >> Call Site 6 <<
	.long	.Ltmp802-.Ltmp801       @   Call between .Ltmp801 and .Ltmp802
	.long	.Ltmp803-.Lfunc_begin43 @     jumps to .Ltmp803
	.byte	1                       @   On action: 1
	.long	.Ltmp802-.Lfunc_begin43 @ >> Call Site 7 <<
	.long	.Ltmp804-.Ltmp802       @   Call between .Ltmp802 and .Ltmp804
	.long	0                       @     has no landing pad
	.byte	0                       @   On action: cleanup
	.long	.Ltmp804-.Lfunc_begin43 @ >> Call Site 8 <<
	.long	.Ltmp805-.Ltmp804       @   Call between .Ltmp804 and .Ltmp805
	.long	.Ltmp806-.Lfunc_begin43 @     jumps to .Ltmp806
	.byte	1                       @   On action: 1
	.long	.Ltmp805-.Lfunc_begin43 @ >> Call Site 9 <<
	.long	.Ltmp789-.Ltmp805       @   Call between .Ltmp805 and .Ltmp789
	.long	0                       @     has no landing pad
	.byte	0                       @   On action: cleanup
	.long	.Ltmp789-.Lfunc_begin43 @ >> Call Site 10 <<
	.long	.Ltmp790-.Ltmp789       @   Call between .Ltmp789 and .Ltmp790
	.long	.Ltmp791-.Lfunc_begin43 @     jumps to .Ltmp791
	.byte	1                       @   On action: 1
	.long	.Ltmp792-.Lfunc_begin43 @ >> Call Site 11 <<
	.long	.Ltmp793-.Ltmp792       @   Call between .Ltmp792 and .Ltmp793
	.long	.Ltmp794-.Lfunc_begin43 @     jumps to .Ltmp794
	.byte	1                       @   On action: 1
	.long	.Ltmp793-.Lfunc_begin43 @ >> Call Site 12 <<
	.long	.Ltmp795-.Ltmp793       @   Call between .Ltmp793 and .Ltmp795
	.long	0                       @     has no landing pad
	.byte	0                       @   On action: cleanup
	.long	.Ltmp795-.Lfunc_begin43 @ >> Call Site 13 <<
	.long	.Ltmp796-.Ltmp795       @   Call between .Ltmp795 and .Ltmp796
	.long	.Ltmp797-.Lfunc_begin43 @     jumps to .Ltmp797
	.byte	1                       @   On action: 1
	.long	.Ltmp796-.Lfunc_begin43 @ >> Call Site 14 <<
	.long	.Lfunc_end43-.Ltmp796   @   Call between .Ltmp796 and .Lfunc_end43
	.long	0                       @     has no landing pad
	.byte	0                       @   On action: cleanup
	.byte	1                       @ >> Action Record 1 <<
                                        @   Catch TypeInfo 1
	.byte	0                       @   No further actions
                                        @ >> Catch TypeInfos <<
	.long	0                       @ TypeInfo 1
	.p2align	2
	.fnend

	.section	.text._ZN4RNBO11PresetEventC2EfNS0_4TypeESt10shared_ptrINS_12PatcherStateEESt8functionIFvS2_IKS3_EEE,"axG",%progbits,_ZN4RNBO11PresetEventC2EfNS0_4TypeESt10shared_ptrINS_12PatcherStateEESt8functionIFvS2_IKS3_EEE,comdat
	.weak	_ZN4RNBO11PresetEventC2EfNS0_4TypeESt10shared_ptrINS_12PatcherStateEESt8functionIFvS2_IKS3_EEE
	.p2align	2
	.type	_ZN4RNBO11PresetEventC2EfNS0_4TypeESt10shared_ptrINS_12PatcherStateEESt8functionIFvS2_IKS3_EEE,%function
_ZN4RNBO11PresetEventC2EfNS0_4TypeESt10shared_ptrINS_12PatcherStateEESt8functionIFvS2_IKS3_EEE: @ @_ZN4RNBO11PresetEventC2EfNS0_4TypeESt10shared_ptrINS_12PatcherStateEESt8functionIFvS2_IKS3_EEE
.Lfunc_begin44:
	.loc	30 87 0                 @ /root/Bela/projects/RNBO-KPStrong/rnbo/src/RNBO_PresetEvent.h:87:0
	.fnstart
	.cfi_startproc
@ BB#0:
	.save	{r4, r5, r6, r7, r11, lr}
	push	{r4, r5, r6, r7, r11, lr}
.Ltmp950:
	.cfi_def_cfa_offset 24
.Ltmp951:
	.cfi_offset lr, -4
.Ltmp952:
	.cfi_offset r11, -8
.Ltmp953:
	.cfi_offset r7, -12
.Ltmp954:
	.cfi_offset r6, -16
.Ltmp955:
	.cfi_offset r5, -20
.Ltmp956:
	.cfi_offset r4, -24
	.setfp	r11, sp, #16
	add	r11, sp, #16
.Ltmp957:
	.cfi_def_cfa r11, 8
	@DEBUG_VALUE: PresetEvent:this <- %R0
	@DEBUG_VALUE: PresetEvent:eventTime <- %S0
	@DEBUG_VALUE: PresetEvent:type <- %R1
	@DEBUG_VALUE: PresetEvent:preset <- [%R2+0]
	@DEBUG_VALUE: PresetEvent:callback <- [%R3+0]
	mov	r5, r0
.Ltmp958:
	@DEBUG_VALUE: PresetEvent:this <- %R5
	mov	r4, r3
.Ltmp959:
	@DEBUG_VALUE: PresetEvent:callback <- [%R4+0]
	.loc	30 83 5 prologue_end    @ /root/Bela/projects/RNBO-KPStrong/rnbo/src/RNBO_PresetEvent.h:83:5
	vstr	s0, [r5]
	.loc	30 84 5                 @ /root/Bela/projects/RNBO-KPStrong/rnbo/src/RNBO_PresetEvent.h:84:5
	str	r1, [r5, #4]
.Ltmp960:
	@DEBUG_VALUE: shared_ptr: <- %R2
	.loc	25 926 7                @ /usr/bin/../lib/gcc/arm-linux-gnueabihf/6.3.0/../../../../include/c++/6.3.0/bits/shared_ptr_base.h:926:7
	ldr	r0, [r2]
	str	r0, [r5, #8]
.Ltmp961:
	.loc	25 666 19               @ /usr/bin/../lib/gcc/arm-linux-gnueabihf/6.3.0/../../../../include/c++/6.3.0/bits/shared_ptr_base.h:666:19
	ldr	r0, [r2, #4]
.Ltmp962:
	@DEBUG_VALUE: _M_add_ref_copy:this <- %R0
	.loc	25 666 9 is_stmt 0      @ /usr/bin/../lib/gcc/arm-linux-gnueabihf/6.3.0/../../../../include/c++/6.3.0/bits/shared_ptr_base.h:666:9
	str	r0, [r5, #12]
.Ltmp963:
	.loc	25 668 6 is_stmt 1      @ /usr/bin/../lib/gcc/arm-linux-gnueabihf/6.3.0/../../../../include/c++/6.3.0/bits/shared_ptr_base.h:668:6
	cmp	r0, #0
	beq	.LBB44_6
.Ltmp964:
@ BB#1:
	@DEBUG_VALUE: _M_add_ref_copy:this <- %R0
	@DEBUG_VALUE: shared_ptr: <- %R2
	@DEBUG_VALUE: PresetEvent:callback <- [%R4+0]
	@DEBUG_VALUE: PresetEvent:this <- %R5
	@DEBUG_VALUE: PresetEvent:preset <- [%R2+0]
	@DEBUG_VALUE: PresetEvent:type <- %R1
	@DEBUG_VALUE: PresetEvent:eventTime <- %S0
	@DEBUG_VALUE: __atomic_add_dispatch:__val <- 1
	.loc	25 134 43               @ /usr/bin/../lib/gcc/arm-linux-gnueabihf/6.3.0/../../../../include/c++/6.3.0/bits/shared_ptr_base.h:134:43
	add	r0, r0, #4
.Ltmp965:
	.loc	87 95 9                 @ /usr/bin/../lib/gcc/arm-linux-gnueabihf/6.3.0/../../../../include/c++/6.3.0/ext/atomicity.h:95:9
	movw	r1, :lower16:__pthread_key_create
.Ltmp966:
	movt	r1, :upper16:__pthread_key_create
	cmp	r1, #0
	beq	.LBB44_5
.Ltmp967:
@ BB#2:
	@DEBUG_VALUE: shared_ptr: <- %R2
	@DEBUG_VALUE: PresetEvent:callback <- [%R4+0]
	@DEBUG_VALUE: PresetEvent:this <- %R5
	@DEBUG_VALUE: PresetEvent:preset <- [%R2+0]
	@DEBUG_VALUE: PresetEvent:eventTime <- %S0
	@DEBUG_VALUE: __atomic_add:__val <- 1
	.loc	87 53 5                 @ /usr/bin/../lib/gcc/arm-linux-gnueabihf/6.3.0/../../../../include/c++/6.3.0/ext/atomicity.h:53:5
	dmb	ish
.Ltmp968:
.LBB44_3:                               @ %atomicrmw.start
                                        @ =>This Inner Loop Header: Depth=1
	ldrex	r1, [r0]
	add	r1, r1, #1
	strex	r2, r1, [r0]
	cmp	r2, #0
	bne	.LBB44_3
@ BB#4:                                 @ %atomicrmw.end
	dmb	ish
	b	.LBB44_6
.Ltmp969:
.LBB44_5:
	@DEBUG_VALUE: shared_ptr: <- %R2
	@DEBUG_VALUE: PresetEvent:callback <- [%R4+0]
	@DEBUG_VALUE: PresetEvent:this <- %R5
	@DEBUG_VALUE: PresetEvent:preset <- [%R2+0]
	@DEBUG_VALUE: PresetEvent:eventTime <- %S0
	@DEBUG_VALUE: __atomic_add_single:__val <- 1
	.loc	87 74 12                @ /usr/bin/../lib/gcc/arm-linux-gnueabihf/6.3.0/../../../../include/c++/6.3.0/ext/atomicity.h:74:12
	ldr	r1, [r0]
	add	r1, r1, #1
	str	r1, [r0]
.Ltmp970:
.LBB44_6:                               @ %_ZNSt10shared_ptrIN4RNBO12PatcherStateEEC2ERKS2_.exit
	mov	r0, #0
.Ltmp971:
	@DEBUG_VALUE: operator bool:this <- %R4
	.loc	33 1685 24              @ /usr/bin/../lib/gcc/arm-linux-gnueabihf/6.3.0/../../../../include/c++/6.3.0/functional:1685:24
	str	r0, [r5, #24]
.Ltmp972:
	.loc	33 1694 37              @ /usr/bin/../lib/gcc/arm-linux-gnueabihf/6.3.0/../../../../include/c++/6.3.0/functional:1694:37
	ldr	r3, [r4, #8]
.Ltmp973:
	.loc	33 2096 11              @ /usr/bin/../lib/gcc/arm-linux-gnueabihf/6.3.0/../../../../include/c++/6.3.0/functional:2096:11
	cmp	r3, #0
	beq	.LBB44_9
.Ltmp974:
@ BB#7:
	@DEBUG_VALUE: operator bool:this <- %R4
	.loc	33 2098 19              @ /usr/bin/../lib/gcc/arm-linux-gnueabihf/6.3.0/../../../../include/c++/6.3.0/functional:2098:19
	add	r6, r5, #16
	.loc	33 2098 4 is_stmt 0     @ /usr/bin/../lib/gcc/arm-linux-gnueabihf/6.3.0/../../../../include/c++/6.3.0/functional:2098:4
.Ltmp944:
	mov	r0, r6
	mov	r1, r4
	mov	r2, #2
	blx	r3
.Ltmp945:
.Ltmp975:
@ BB#8:
	@DEBUG_VALUE: operator bool:this <- %R4
	.loc	33 2099 21 is_stmt 1    @ /usr/bin/../lib/gcc/arm-linux-gnueabihf/6.3.0/../../../../include/c++/6.3.0/functional:2099:21
	ldr	r0, [r4, #12]
	.loc	33 2099 15 is_stmt 0    @ /usr/bin/../lib/gcc/arm-linux-gnueabihf/6.3.0/../../../../include/c++/6.3.0/functional:2099:15
	str	r0, [r5, #28]
	.loc	33 2100 21 is_stmt 1    @ /usr/bin/../lib/gcc/arm-linux-gnueabihf/6.3.0/../../../../include/c++/6.3.0/functional:2100:21
	ldr	r0, [r4, #8]
	.loc	33 2100 15 is_stmt 0    @ /usr/bin/../lib/gcc/arm-linux-gnueabihf/6.3.0/../../../../include/c++/6.3.0/functional:2100:15
	str	r0, [r5, #24]
.Ltmp976:
.LBB44_9:                               @ %_ZNSt8functionIFvSt10shared_ptrIKN4RNBO12PatcherStateEEEEC2ERKS6_.exit
	@DEBUG_VALUE: operator bool:this <- %R4
	.loc	30 88 3 is_stmt 1       @ /root/Bela/projects/RNBO-KPStrong/rnbo/src/RNBO_PresetEvent.h:88:3
	mov	r0, r5
	pop	{r4, r5, r6, r7, r11, pc}
.Ltmp977:
.LBB44_10:
	@DEBUG_VALUE: operator bool:this <- %R4
.Ltmp946:
.Ltmp978:
	.loc	33 1689 11              @ /usr/bin/../lib/gcc/arm-linux-gnueabihf/6.3.0/../../../../include/c++/6.3.0/functional:1689:11
	ldr	r3, [r5, #24]
	mov	r4, r0
.Ltmp979:
	.loc	33 1689 11 is_stmt 0    @ /usr/bin/../lib/gcc/arm-linux-gnueabihf/6.3.0/../../../../include/c++/6.3.0/functional:1689:11
	cmp	r3, #0
	beq	.LBB44_12
@ BB#11:
.Ltmp980:
	.loc	33 1690 2 is_stmt 1     @ /usr/bin/../lib/gcc/arm-linux-gnueabihf/6.3.0/../../../../include/c++/6.3.0/functional:1690:2
.Ltmp947:
	mov	r0, r6
	mov	r1, r6
	mov	r2, #3
	blx	r3
.Ltmp948:
.Ltmp981:
.LBB44_12:                              @ %.body
	.loc	25 661 6                @ /usr/bin/../lib/gcc/arm-linux-gnueabihf/6.3.0/../../../../include/c++/6.3.0/bits/shared_ptr_base.h:661:6
	ldr	r5, [r5, #12]
.Ltmp982:
	@DEBUG_VALUE: _M_release:this <- %R5
	.loc	25 661 6 is_stmt 0      @ /usr/bin/../lib/gcc/arm-linux-gnueabihf/6.3.0/../../../../include/c++/6.3.0/bits/shared_ptr_base.h:661:6
	cmp	r5, #0
	beq	.LBB44_25
.Ltmp983:
@ BB#13:
	@DEBUG_VALUE: _M_release:this <- %R5
	@DEBUG_VALUE: __exchange_and_add_dispatch:__val <- -1
	.loc	87 81 9 is_stmt 1       @ /usr/bin/../lib/gcc/arm-linux-gnueabihf/6.3.0/../../../../include/c++/6.3.0/ext/atomicity.h:81:9
	movw	r6, :lower16:__pthread_key_create
.Ltmp984:
	.loc	25 147 46               @ /usr/bin/../lib/gcc/arm-linux-gnueabihf/6.3.0/../../../../include/c++/6.3.0/bits/shared_ptr_base.h:147:46
	add	r0, r5, #4
.Ltmp985:
	.loc	87 81 9                 @ /usr/bin/../lib/gcc/arm-linux-gnueabihf/6.3.0/../../../../include/c++/6.3.0/ext/atomicity.h:81:9
	movt	r6, :upper16:__pthread_key_create
	cmp	r6, #0
	beq	.LBB44_17
.Ltmp986:
@ BB#14:
	@DEBUG_VALUE: _M_release:this <- %R5
	@DEBUG_VALUE: __exchange_and_add:__val <- -1
	.loc	87 49 12                @ /usr/bin/../lib/gcc/arm-linux-gnueabihf/6.3.0/../../../../include/c++/6.3.0/ext/atomicity.h:49:12
	dmb	ish
.Ltmp987:
.LBB44_15:                              @ %atomicrmw.start5
                                        @ =>This Inner Loop Header: Depth=1
	ldrex	r1, [r0]
	sub	r2, r1, #1
	strex	r3, r2, [r0]
	cmp	r3, #0
	bne	.LBB44_15
@ BB#16:                                @ %atomicrmw.end4
	dmb	ish
	b	.LBB44_18
.Ltmp988:
.LBB44_17:
	@DEBUG_VALUE: _M_release:this <- %R5
	@DEBUG_VALUE: __exchange_and_add_single:__val <- -1
	.loc	87 67 29                @ /usr/bin/../lib/gcc/arm-linux-gnueabihf/6.3.0/../../../../include/c++/6.3.0/ext/atomicity.h:67:29
	ldr	r1, [r0]
.Ltmp989:
	@DEBUG_VALUE: __exchange_and_add_single:__result <- %R1
	.loc	87 68 12                @ /usr/bin/../lib/gcc/arm-linux-gnueabihf/6.3.0/../../../../include/c++/6.3.0/ext/atomicity.h:68:12
	sub	r2, r1, #1
	str	r2, [r0]
.Ltmp990:
.LBB44_18:                              @ %_ZN9__gnu_cxxL27__exchange_and_add_dispatchEPii.exit.i.i.i
	.loc	25 147 6 discriminator 1 @ /usr/bin/../lib/gcc/arm-linux-gnueabihf/6.3.0/../../../../include/c++/6.3.0/bits/shared_ptr_base.h:147:6
	cmp	r1, #1
	bne	.LBB44_25
@ BB#19:
.Ltmp991:
	.loc	25 150 6                @ /usr/bin/../lib/gcc/arm-linux-gnueabihf/6.3.0/../../../../include/c++/6.3.0/bits/shared_ptr_base.h:150:6
	mov	r7, r5
	ldr	r0, [r7], #8
	ldr	r1, [r0, #8]
	mov	r0, r5
	blx	r1
.Ltmp992:
	@DEBUG_VALUE: __exchange_and_add_dispatch:__val <- -1
	.loc	87 81 9                 @ /usr/bin/../lib/gcc/arm-linux-gnueabihf/6.3.0/../../../../include/c++/6.3.0/ext/atomicity.h:81:9
	cmp	r6, #0
	beq	.LBB44_26
@ BB#20:
.Ltmp993:
	@DEBUG_VALUE: __exchange_and_add:__val <- -1
	.loc	87 49 12                @ /usr/bin/../lib/gcc/arm-linux-gnueabihf/6.3.0/../../../../include/c++/6.3.0/ext/atomicity.h:49:12
	dmb	ish
.LBB44_21:                              @ %atomicrmw.start9
                                        @ =>This Inner Loop Header: Depth=1
	ldrex	r0, [r7]
	sub	r1, r0, #1
	strex	r2, r1, [r7]
	cmp	r2, #0
	bne	.LBB44_21
@ BB#22:                                @ %atomicrmw.end8
	dmb	ish
.Ltmp994:
.LBB44_23:                              @ %_ZN9__gnu_cxxL27__exchange_and_add_dispatchEPii.exit2.i.i.i
	.loc	25 162 10 discriminator 1 @ /usr/bin/../lib/gcc/arm-linux-gnueabihf/6.3.0/../../../../include/c++/6.3.0/bits/shared_ptr_base.h:162:10
	cmp	r0, #1
	bne	.LBB44_25
@ BB#24:
.Ltmp995:
	.loc	25 166 10               @ /usr/bin/../lib/gcc/arm-linux-gnueabihf/6.3.0/../../../../include/c++/6.3.0/bits/shared_ptr_base.h:166:10
	ldr	r0, [r5]
	ldr	r1, [r0, #12]
	mov	r0, r5
	blx	r1
.Ltmp996:
.LBB44_25:                              @ %_ZNSt12__shared_ptrIN4RNBO12PatcherStateELN9__gnu_cxx12_Lock_policyE2EED2Ev.exit
	mov	r0, r4
	mov	lr, pc
	b	_Unwind_Resume
.LBB44_26:
.Ltmp997:
	@DEBUG_VALUE: __exchange_and_add_single:__val <- -1
	.loc	87 67 29                @ /usr/bin/../lib/gcc/arm-linux-gnueabihf/6.3.0/../../../../include/c++/6.3.0/ext/atomicity.h:67:29
	ldr	r0, [r7]
.Ltmp998:
	@DEBUG_VALUE: __exchange_and_add_single:__result <- %R0
	.loc	87 68 12                @ /usr/bin/../lib/gcc/arm-linux-gnueabihf/6.3.0/../../../../include/c++/6.3.0/ext/atomicity.h:68:12
	sub	r1, r0, #1
	str	r1, [r7]
	b	.LBB44_23
.Ltmp999:
.LBB44_27:
.Ltmp949:
.Ltmp1000:
	.loc	33 1690 2 discriminator 2 @ /usr/bin/../lib/gcc/arm-linux-gnueabihf/6.3.0/../../../../include/c++/6.3.0/functional:1690:2
	mov	lr, pc
	b	__clang_call_terminate
.Ltmp1001:
.Lfunc_end44:
	.size	_ZN4RNBO11PresetEventC2EfNS0_4TypeESt10shared_ptrINS_12PatcherStateEESt8functionIFvS2_IKS3_EEE, .Lfunc_end44-_ZN4RNBO11PresetEventC2EfNS0_4TypeESt10shared_ptrINS_12PatcherStateEESt8functionIFvS2_IKS3_EEE
	.cfi_endproc
	.globl	__gxx_personality_v0
	.personality __gxx_personality_v0
	.handlerdata
	.p2align	2
GCC_except_table44:
.Lexception11:
	.byte	255                     @ @LPStart Encoding = omit
	.byte	0                       @ @TType Encoding = absptr
	.asciz	"\257\200"              @ @TType base offset
	.byte	3                       @ Call site Encoding = udata4
	.byte	39                      @ Call site table length
	.long	.Ltmp944-.Lfunc_begin44 @ >> Call Site 1 <<
	.long	.Ltmp945-.Ltmp944       @   Call between .Ltmp944 and .Ltmp945
	.long	.Ltmp946-.Lfunc_begin44 @     jumps to .Ltmp946
	.byte	0                       @   On action: cleanup
	.long	.Ltmp947-.Lfunc_begin44 @ >> Call Site 2 <<
	.long	.Ltmp948-.Ltmp947       @   Call between .Ltmp947 and .Ltmp948
	.long	.Ltmp949-.Lfunc_begin44 @     jumps to .Ltmp949
	.byte	1                       @   On action: 1
	.long	.Ltmp948-.Lfunc_begin44 @ >> Call Site 3 <<
	.long	.Lfunc_end44-.Ltmp948   @   Call between .Ltmp948 and .Lfunc_end44
	.long	0                       @     has no landing pad
	.byte	0                       @   On action: cleanup
	.byte	1                       @ >> Action Record 1 <<
                                        @   Catch TypeInfo 1
	.byte	0                       @   No further actions
                                        @ >> Catch TypeInfos <<
	.long	0                       @ TypeInfo 1
	.p2align	2
	.fnend

	.text
	.globl	_ZN4RNBO10CoreObject13setPresetSyncESt10unique_ptrINS_12PatcherStateESt14default_deleteIS2_EE
	.p2align	2
	.type	_ZN4RNBO10CoreObject13setPresetSyncESt10unique_ptrINS_12PatcherStateESt14default_deleteIS2_EE,%function
_ZN4RNBO10CoreObject13setPresetSyncESt10unique_ptrINS_12PatcherStateESt14default_deleteIS2_EE: @ @_ZN4RNBO10CoreObject13setPresetSyncESt10unique_ptrINS_12PatcherStateESt14default_deleteIS2_EE
.Lfunc_begin45:
	.loc	71 239 0                @ /root/Bela/projects/RNBO-KPStrong/rnbo/src/RNBO_CoreObject.cpp:239:0
	.fnstart
	.cfi_startproc
@ BB#0:
	.save	{r4, r10, r11, lr}
	push	{r4, r10, r11, lr}
.Ltmp1005:
	.cfi_def_cfa_offset 16
.Ltmp1006:
	.cfi_offset lr, -4
.Ltmp1007:
	.cfi_offset r11, -8
.Ltmp1008:
	.cfi_offset r10, -12
.Ltmp1009:
	.cfi_offset r4, -16
	.setfp	r11, sp, #8
	add	r11, sp, #8
.Ltmp1010:
	.cfi_def_cfa r11, 8
	.pad	#8
	sub	sp, sp, #8
	@DEBUG_VALUE: setPresetSync:this <- %R0
	@DEBUG_VALUE: setPresetSync:preset <- [%R1+0]
.Ltmp1011:
	.loc	43 126 34 prologue_end  @ /root/Bela/projects/RNBO-KPStrong/rnbo/common/RNBO_UniquePtr.h:126:34
	ldr	r0, [r0, #8]
.Ltmp1012:
	mov	r4, #0
.Ltmp1013:
	.loc	7 308 16                @ /usr/bin/../lib/gcc/arm-linux-gnueabihf/6.3.0/../../../../include/c++/6.3.0/bits/unique_ptr.h:308:16
	ldr	r3, [r1]
.Ltmp1014:
	.loc	71 243 19               @ /root/Bela/projects/RNBO-KPStrong/rnbo/src/RNBO_CoreObject.cpp:243:19
	ldr	r2, [r0]
.Ltmp1015:
	@DEBUG_VALUE: get:this <- %R1
	@DEBUG_VALUE: release:this <- %R1
	@DEBUG_VALUE: unique_ptr:__u <- %R1
	ldr	r2, [r2, #164]
.Ltmp1016:
	.loc	7 331 20                @ /usr/bin/../lib/gcc/arm-linux-gnueabihf/6.3.0/../../../../include/c++/6.3.0/bits/unique_ptr.h:331:20
	str	r4, [r1]
.Ltmp1017:
	.loc	8 115 4                 @ /usr/bin/../lib/gcc/arm-linux-gnueabihf/6.3.0/../../../../include/c++/6.3.0/tuple:115:4
	str	r3, [sp, #4]
.Ltmp1018:
	.loc	71 243 19               @ /root/Bela/projects/RNBO-KPStrong/rnbo/src/RNBO_CoreObject.cpp:243:19
.Ltmp1002:
	add	r1, sp, #4
.Ltmp1019:
	@DEBUG_VALUE: unique_ptr:this <- %R1
	blx	r2
.Ltmp1020:
.Ltmp1003:
@ BB#1:
.Ltmp1021:
	.loc	7 238 6                 @ /usr/bin/../lib/gcc/arm-linux-gnueabihf/6.3.0/../../../../include/c++/6.3.0/bits/unique_ptr.h:238:6
	ldr	r0, [sp, #4]
.Ltmp1022:
	@DEBUG_VALUE: operator():__ptr <- %R0
	.loc	7 238 6 is_stmt 0       @ /usr/bin/../lib/gcc/arm-linux-gnueabihf/6.3.0/../../../../include/c++/6.3.0/bits/unique_ptr.h:238:6
	cmp	r0, #0
	beq	.LBB45_3
.Ltmp1023:
@ BB#2:                                 @ %_ZNKSt14default_deleteIN4RNBO12PatcherStateEEclEPS1_.exit.i2
	@DEBUG_VALUE: operator():__ptr <- %R0
	.loc	7 76 2 is_stmt 1 discriminator 1 @ /usr/bin/../lib/gcc/arm-linux-gnueabihf/6.3.0/../../../../include/c++/6.3.0/bits/unique_ptr.h:76:2
	ldr	r1, [r0]
	ldr	r1, [r1, #4]
	blx	r1
.Ltmp1024:
.LBB45_3:                               @ %_ZNSt10unique_ptrIN4RNBO12PatcherStateESt14default_deleteIS1_EED2Ev.exit3
	.loc	71 243 3 discriminator 1 @ /root/Bela/projects/RNBO-KPStrong/rnbo/src/RNBO_CoreObject.cpp:243:3
	sub	sp, r11, #8
	pop	{r4, r10, r11, pc}
.LBB45_4:
.Ltmp1004:
	mov	r4, r0
.Ltmp1025:
	.loc	7 238 6                 @ /usr/bin/../lib/gcc/arm-linux-gnueabihf/6.3.0/../../../../include/c++/6.3.0/bits/unique_ptr.h:238:6
	ldr	r0, [sp, #4]
.Ltmp1026:
	@DEBUG_VALUE: operator():__ptr <- %R0
	.loc	7 238 6 is_stmt 0       @ /usr/bin/../lib/gcc/arm-linux-gnueabihf/6.3.0/../../../../include/c++/6.3.0/bits/unique_ptr.h:238:6
	cmp	r0, #0
	beq	.LBB45_6
.Ltmp1027:
@ BB#5:                                 @ %_ZNKSt14default_deleteIN4RNBO12PatcherStateEEclEPS1_.exit.i
	@DEBUG_VALUE: operator():__ptr <- %R0
	.loc	7 76 2 is_stmt 1 discriminator 1 @ /usr/bin/../lib/gcc/arm-linux-gnueabihf/6.3.0/../../../../include/c++/6.3.0/bits/unique_ptr.h:76:2
	ldr	r1, [r0]
	ldr	r1, [r1, #4]
	blx	r1
.Ltmp1028:
.LBB45_6:                               @ %_ZNSt10unique_ptrIN4RNBO12PatcherStateESt14default_deleteIS1_EED2Ev.exit
	mov	r0, r4
	mov	lr, pc
	b	_Unwind_Resume
.Lfunc_end45:
	.size	_ZN4RNBO10CoreObject13setPresetSyncESt10unique_ptrINS_12PatcherStateESt14default_deleteIS2_EE, .Lfunc_end45-_ZN4RNBO10CoreObject13setPresetSyncESt10unique_ptrINS_12PatcherStateESt14default_deleteIS2_EE
	.cfi_endproc
	.globl	__gxx_personality_v0
	.personality __gxx_personality_v0
	.handlerdata
	.p2align	2
GCC_except_table45:
.Lexception12:
	.byte	255                     @ @LPStart Encoding = omit
	.byte	0                       @ @TType Encoding = absptr
	.asciz	"\234"                  @ @TType base offset
	.byte	3                       @ Call site Encoding = udata4
	.byte	26                      @ Call site table length
	.long	.Ltmp1002-.Lfunc_begin45 @ >> Call Site 1 <<
	.long	.Ltmp1003-.Ltmp1002     @   Call between .Ltmp1002 and .Ltmp1003
	.long	.Ltmp1004-.Lfunc_begin45 @     jumps to .Ltmp1004
	.byte	0                       @   On action: cleanup
	.long	.Ltmp1003-.Lfunc_begin45 @ >> Call Site 2 <<
	.long	.Lfunc_end45-.Ltmp1003  @   Call between .Ltmp1003 and .Lfunc_end45
	.long	0                       @     has no landing pad
	.byte	0                       @   On action: cleanup
	.p2align	2
	.fnend

	.globl	_ZN4RNBO10CoreObject9getPresetESt8functionIFvSt10shared_ptrIKNS_12PatcherStateEEEE
	.p2align	2
	.type	_ZN4RNBO10CoreObject9getPresetESt8functionIFvSt10shared_ptrIKNS_12PatcherStateEEEE,%function
_ZN4RNBO10CoreObject9getPresetESt8functionIFvSt10shared_ptrIKNS_12PatcherStateEEEE: @ @_ZN4RNBO10CoreObject9getPresetESt8functionIFvSt10shared_ptrIKNS_12PatcherStateEEEE
.Lfunc_begin46:
	.loc	71 248 0                @ /root/Bela/projects/RNBO-KPStrong/rnbo/src/RNBO_CoreObject.cpp:248:0
	.fnstart
	.cfi_startproc
@ BB#0:
	.save	{r4, r5, r6, r7, r11, lr}
	push	{r4, r5, r6, r7, r11, lr}
.Ltmp1062:
	.cfi_def_cfa_offset 24
.Ltmp1063:
	.cfi_offset lr, -4
.Ltmp1064:
	.cfi_offset r11, -8
.Ltmp1065:
	.cfi_offset r7, -12
.Ltmp1066:
	.cfi_offset r6, -16
.Ltmp1067:
	.cfi_offset r5, -20
.Ltmp1068:
	.cfi_offset r4, -24
	.setfp	r11, sp, #16
	add	r11, sp, #16
.Ltmp1069:
	.cfi_def_cfa r11, 8
	.pad	#96
	sub	sp, sp, #96
	@DEBUG_VALUE: getPreset:this <- %R0
	@DEBUG_VALUE: getPreset:callback <- [%R1+0]
.Ltmp1070:
