	.text
	.syntax unified
	.eabi_attribute	67, "2.09"	@ Tag_conformance
	.cpu	cortex-a8
	.eabi_attribute	6, 10	@ Tag_CPU_arch
	.eabi_attribute	7, 65	@ Tag_CPU_arch_profile
	.eabi_attribute	8, 1	@ Tag_ARM_ISA_use
	.eabi_attribute	9, 2	@ Tag_THUMB_ISA_use
	.fpu	neon
	.eabi_attribute	17, 1	@ Tag_ABI_PCS_GOT_use
	.eabi_attribute	20, 2	@ Tag_ABI_FP_denormal
	.eabi_attribute	23, 1	@ Tag_ABI_FP_number_model
	.eabi_attribute	34, 1	@ Tag_CPU_unaligned_access
	.eabi_attribute	24, 1	@ Tag_ABI_align_needed
	.eabi_attribute	25, 1	@ Tag_ABI_align_preserved
	.eabi_attribute	28, 1	@ Tag_ABI_VFP_args
	.eabi_attribute	38, 1	@ Tag_ABI_FP_16bit_format
	.eabi_attribute	18, 4	@ Tag_ABI_PCS_wchar_t
	.eabi_attribute	26, 2	@ Tag_ABI_enum_size
	.eabi_attribute	14, 0	@ Tag_ABI_PCS_R9_use
	.eabi_attribute	68, 1	@ Tag_Virtualization_use
	.file	"/root/Bela/projects/RNBO-KPStrong/build/rnbo/src/RNBO_DataBuffer.bc"
	.file	1 "/usr/bin/../lib/gcc/arm-linux-gnueabihf/6.3.0/../../../../include/arm-linux-gnueabihf/c++/6.3.0/bits" "c++config.h"
	.file	2 "/usr/bin/../lib/gcc/arm-linux-gnueabihf/6.3.0/../../../../include/c++/6.3.0/ext" "concurrence.h"
	.file	3 "/usr/bin/../lib/gcc/arm-linux-gnueabihf/6.3.0/../../../../include/c++/6.3.0/bits" "cpp_type_traits.h"
	.file	4 "/usr/bin/../lib/gcc/arm-linux-gnueabihf/6.3.0/../../../../include/c++/6.3.0/bits" "stl_vector.h"
	.file	5 "/usr/bin/../lib/gcc/arm-linux-gnueabihf/6.3.0/../../../../include/c++/6.3.0/bits" "alloc_traits.h"
	.file	6 "/usr/bin/../lib/gcc/arm-linux-gnueabihf/6.3.0/../../../../include/c++/6.3.0/ext" "alloc_traits.h"
	.file	7 "/usr/bin/../lib/gcc/arm-linux-gnueabihf/6.3.0/../../../../include/c++/6.3.0/bits" "stl_iterator.h"
	.file	8 "/usr/bin/../lib/gcc/arm-linux-gnueabihf/6.3.0/../../../../include/c++/6.3.0" "type_traits"
	.file	9 "/usr/bin/../lib/gcc/arm-linux-gnueabihf/6.3.0/../../../../include/c++/6.3.0/bits" "stl_iterator_base_types.h"
	.file	10 "/usr/bin/../lib/gcc/arm-linux-gnueabihf/6.3.0/../../../../include/c++/6.3.0/debug" "debug.h"
	.file	11 "/usr/bin/../lib/gcc/arm-linux-gnueabihf/6.3.0/../../../../include/c++/6.3.0/bits" "exception_ptr.h"
	.file	12 "/usr/include" "wchar.h"
	.file	13 "/usr/lib/llvm-3.9/bin/../lib/clang/3.9.1/include" "stddef.h"
	.file	14 "/usr/include" "libio.h"
	.file	15 "/usr/include/arm-linux-gnueabihf/bits" "types.h"
	.file	16 "/usr/include" "stdio.h"
	.file	17 "/usr/lib/llvm-3.9/bin/../lib/clang/3.9.1/include" "stdarg.h"
	.file	18 "/usr/include/arm-linux-gnueabihf/sys" "types.h"
	.file	19 "/usr/include" "stdint.h"
	.file	20 "/usr/include" "locale.h"
	.file	21 "/usr/include" "ctype.h"
	.file	22 "/usr/include" "stdlib.h"
	.file	23 "/usr/include/arm-linux-gnueabihf/bits" "stdlib-float.h"
	.file	24 "/usr/include/arm-linux-gnueabihf/bits" "stdlib-bsearch.h"
	.file	25 "/usr/bin/../lib/gcc/arm-linux-gnueabihf/6.3.0/../../../../include/c++/6.3.0" "cstdlib"
	.file	26 "/usr/include" "_G_config.h"
	.file	27 "/usr/include/arm-linux-gnueabihf/bits" "stdio.h"
	.globl	_ZN4RNBO10DataBufferC2Ej
	.p2align	2
	.type	_ZN4RNBO10DataBufferC2Ej,%function
_ZN4RNBO10DataBufferC2Ej:               @ @_ZN4RNBO10DataBufferC2Ej
.Lfunc_begin0:
	.file	28 "/root/Bela/projects/RNBO-KPStrong/rnbo/src" "RNBO_DataBuffer.cpp"
	.loc	28 16 0                 @ /root/Bela/projects/RNBO-KPStrong/rnbo/src/RNBO_DataBuffer.cpp:16:0
	.fnstart
	.cfi_startproc
@ BB#0:
	.save	{r4, r5, r6, r10, r11, lr}
	push	{r4, r5, r6, r10, r11, lr}
.Ltmp0:
	.cfi_def_cfa_offset 24
.Ltmp1:
	.cfi_offset lr, -4
.Ltmp2:
	.cfi_offset r11, -8
.Ltmp3:
	.cfi_offset r10, -12
.Ltmp4:
	.cfi_offset r6, -16
.Ltmp5:
	.cfi_offset r5, -20
.Ltmp6:
	.cfi_offset r4, -24
	.setfp	r11, sp, #16
	add	r11, sp, #16
.Ltmp7:
	.cfi_def_cfa r11, 8
	@DEBUG_VALUE: DataBuffer:this <- %R0
	@DEBUG_VALUE: DataBuffer:size <- %R1
	mov	r5, r1
.Ltmp8:
	@DEBUG_VALUE: DataBuffer:size <- %R5
	mov	r4, r0
.Ltmp9:
	@DEBUG_VALUE: DataBuffer:this <- %R4
	mov	r6, #0
.Ltmp10:
	@DEBUG_VALUE: _M_allocate:__n <- %R5
	@DEBUG_VALUE: _M_create_storage:__n <- %R5
	@DEBUG_VALUE: _Vector_base:__n <- %R5
	@DEBUG_VALUE: vector:__n <- %R5
	.loc	4 170 9 prologue_end    @ /usr/bin/../lib/gcc/arm-linux-gnueabihf/6.3.0/../../../../include/c++/6.3.0/bits/stl_vector.h:170:9
	cmp	r5, #0
.Ltmp11:
	.loc	4 91 25                 @ /usr/bin/../lib/gcc/arm-linux-gnueabihf/6.3.0/../../../../include/c++/6.3.0/bits/stl_vector.h:91:25
	str	r6, [r4]
	.loc	4 91 37 is_stmt 0       @ /usr/bin/../lib/gcc/arm-linux-gnueabihf/6.3.0/../../../../include/c++/6.3.0/bits/stl_vector.h:91:37
	str	r6, [r4, #4]
	.loc	4 91 50                 @ /usr/bin/../lib/gcc/arm-linux-gnueabihf/6.3.0/../../../../include/c++/6.3.0/bits/stl_vector.h:91:50
	str	r6, [r4, #8]
	beq	.LBB0_2
.Ltmp12:
@ BB#1:                                 @ %.noexc
	@DEBUG_VALUE: vector:__n <- %R5
	@DEBUG_VALUE: _Vector_base:__n <- %R5
	@DEBUG_VALUE: _M_create_storage:__n <- %R5
	@DEBUG_VALUE: _M_allocate:__n <- %R5
	@DEBUG_VALUE: DataBuffer:this <- %R4
	@DEBUG_VALUE: DataBuffer:size <- %R5
	@DEBUG_VALUE: __len <- %R5
	@DEBUG_VALUE: allocate:__n <- %R5
	@DEBUG_VALUE: __uninitialized_default_n<char *, unsigned int>:__assignable <- 1
	.file	29 "/usr/bin/../lib/gcc/arm-linux-gnueabihf/6.3.0/../../../../include/c++/6.3.0/ext" "new_allocator.h"
	.loc	29 104 27 is_stmt 1     @ /usr/bin/../lib/gcc/arm-linux-gnueabihf/6.3.0/../../../../include/c++/6.3.0/ext/new_allocator.h:104:27
	mov	r0, r5
	bl	_Znwj
.Ltmp13:
	@DEBUG_VALUE: __uninitialized_default_n_a<char *, unsigned int, char>:__first <- %R0
	@DEBUG_VALUE: __uninitialized_default_n<char *, unsigned int>:__first <- %R0
	@DEBUG_VALUE: __uninit_default_n<char *, unsigned int>:__first <- %R0
	@DEBUG_VALUE: fill_n<char *, unsigned int, char>:__first <- %R0
	@DEBUG_VALUE: __fill_n_a<unsigned int, char>:__first <- %R0
	@DEBUG_VALUE: __fill_a<char>:__first <- %R0
	.loc	4 187 59                @ /usr/bin/../lib/gcc/arm-linux-gnueabihf/6.3.0/../../../../include/c++/6.3.0/bits/stl_vector.h:187:59
	add	r6, r0, r5
.Ltmp14:
	@DEBUG_VALUE: __fill_a<char>:__last <- %R6
	.file	30 "/usr/bin/../lib/gcc/arm-linux-gnueabihf/6.3.0/../../../../include/c++/6.3.0/bits" "stl_algobase.h"
	.loc	30 707 2                @ /usr/bin/../lib/gcc/arm-linux-gnueabihf/6.3.0/../../../../include/c++/6.3.0/bits/stl_algobase.h:707:2
	mov	r1, #0
	mov	r2, r5
.Ltmp15:
	.loc	4 185 25                @ /usr/bin/../lib/gcc/arm-linux-gnueabihf/6.3.0/../../../../include/c++/6.3.0/bits/stl_vector.h:185:25
	str	r0, [r4]
	.loc	4 186 26                @ /usr/bin/../lib/gcc/arm-linux-gnueabihf/6.3.0/../../../../include/c++/6.3.0/bits/stl_vector.h:186:26
	stmib	r4, {r0, r6}
.Ltmp16:
	.loc	30 707 2                @ /usr/bin/../lib/gcc/arm-linux-gnueabihf/6.3.0/../../../../include/c++/6.3.0/bits/stl_algobase.h:707:2
	bl	memset
.Ltmp17:
	b	.LBB0_3
.Ltmp18:
.LBB0_2:                                @ %_ZNSt12_Vector_baseIcSaIcEEC2EjRKS0_.exit.thread.i
	@DEBUG_VALUE: vector:__n <- %R5
	@DEBUG_VALUE: _Vector_base:__n <- %R5
	@DEBUG_VALUE: _M_create_storage:__n <- %R5
	@DEBUG_VALUE: _M_allocate:__n <- %R5
	@DEBUG_VALUE: DataBuffer:this <- %R4
	@DEBUG_VALUE: DataBuffer:size <- %R5
	@DEBUG_VALUE: allocate: <- %R6
	@DEBUG_VALUE: __uninitialized_default_n<char *, unsigned int>:__assignable <- 1
	.loc	4 185 25                @ /usr/bin/../lib/gcc/arm-linux-gnueabihf/6.3.0/../../../../include/c++/6.3.0/bits/stl_vector.h:185:25
	str	r6, [r4]
	.loc	4 186 26                @ /usr/bin/../lib/gcc/arm-linux-gnueabihf/6.3.0/../../../../include/c++/6.3.0/bits/stl_vector.h:186:26
	str	r6, [r4, #4]
	.loc	4 187 34                @ /usr/bin/../lib/gcc/arm-linux-gnueabihf/6.3.0/../../../../include/c++/6.3.0/bits/stl_vector.h:187:34
	str	r6, [r4, #8]
.Ltmp19:
.LBB0_3:
	@DEBUG_VALUE: vector:__n <- %R5
	@DEBUG_VALUE: _Vector_base:__n <- %R5
	@DEBUG_VALUE: _M_create_storage:__n <- %R5
	@DEBUG_VALUE: _M_allocate:__n <- %R5
	@DEBUG_VALUE: DataBuffer:this <- %R4
	@DEBUG_VALUE: DataBuffer:size <- %R5
	.loc	28 18 2                 @ /root/Bela/projects/RNBO-KPStrong/rnbo/src/RNBO_DataBuffer.cpp:18:2
	mov	r0, r4
.Ltmp20:
	.loc	4 1308 26               @ /usr/bin/../lib/gcc/arm-linux-gnueabihf/6.3.0/../../../../include/c++/6.3.0/bits/stl_vector.h:1308:26
	str	r6, [r4, #4]
.Ltmp21:
	.loc	28 18 2                 @ /root/Bela/projects/RNBO-KPStrong/rnbo/src/RNBO_DataBuffer.cpp:18:2
	pop	{r4, r5, r6, r10, r11, pc}
.Ltmp22:
.Lfunc_end0:
	.size	_ZN4RNBO10DataBufferC2Ej, .Lfunc_end0-_ZN4RNBO10DataBufferC2Ej
	.cfi_endproc
	.file	31 "/usr/bin/../lib/gcc/arm-linux-gnueabihf/6.3.0/../../../../include/c++/6.3.0/ext" "type_traits.h"
	.file	32 "/usr/bin/../lib/gcc/arm-linux-gnueabihf/6.3.0/../../../../include/c++/6.3.0/bits" "stl_uninitialized.h"
	.file	33 "/root/Bela/projects/RNBO-KPStrong/rnbo/src" "RNBO_DataBuffer.h"
	.fnend

	.globl	_ZN4RNBO10DataBufferC2EPKcj
	.p2align	2
	.type	_ZN4RNBO10DataBufferC2EPKcj,%function
_ZN4RNBO10DataBufferC2EPKcj:            @ @_ZN4RNBO10DataBufferC2EPKcj
.Lfunc_begin1:
	.loc	28 22 0                 @ /root/Bela/projects/RNBO-KPStrong/rnbo/src/RNBO_DataBuffer.cpp:22:0
	.fnstart
	.cfi_startproc
@ BB#0:
	.save	{r4, r5, r6, r7, r8, r10, r11, lr}
	push	{r4, r5, r6, r7, r8, r10, r11, lr}
.Ltmp23:
	.cfi_def_cfa_offset 32
.Ltmp24:
	.cfi_offset lr, -4
.Ltmp25:
	.cfi_offset r11, -8
.Ltmp26:
	.cfi_offset r10, -12
.Ltmp27:
	.cfi_offset r8, -16
.Ltmp28:
	.cfi_offset r7, -20
.Ltmp29:
	.cfi_offset r6, -24
.Ltmp30:
	.cfi_offset r5, -28
.Ltmp31:
	.cfi_offset r4, -32
	.setfp	r11, sp, #24
	add	r11, sp, #24
.Ltmp32:
	.cfi_def_cfa r11, 8
	@DEBUG_VALUE: DataBuffer:this <- %R0
	@DEBUG_VALUE: DataBuffer:dataToCopy <- %R1
	@DEBUG_VALUE: DataBuffer:sizeOfDataToCopy <- %R2
	mov	r7, r2
.Ltmp33:
	@DEBUG_VALUE: DataBuffer:sizeOfDataToCopy <- %R7
	mov	r8, r1
.Ltmp34:
	@DEBUG_VALUE: DataBuffer:dataToCopy <- %R8
	mov	r4, r0
.Ltmp35:
	@DEBUG_VALUE: DataBuffer:this <- %R4
	mov	r6, #0
.Ltmp36:
	@DEBUG_VALUE: _M_allocate:__n <- %R7
	@DEBUG_VALUE: _M_create_storage:__n <- %R7
	@DEBUG_VALUE: _Vector_base:__n <- %R7
	@DEBUG_VALUE: vector:__n <- %R7
	.loc	4 91 25 prologue_end    @ /usr/bin/../lib/gcc/arm-linux-gnueabihf/6.3.0/../../../../include/c++/6.3.0/bits/stl_vector.h:91:25
	str	r6, [r4]
.Ltmp37:
	.loc	4 170 9                 @ /usr/bin/../lib/gcc/arm-linux-gnueabihf/6.3.0/../../../../include/c++/6.3.0/bits/stl_vector.h:170:9
	cmp	r7, #0
.Ltmp38:
	.loc	4 91 37                 @ /usr/bin/../lib/gcc/arm-linux-gnueabihf/6.3.0/../../../../include/c++/6.3.0/bits/stl_vector.h:91:37
	str	r6, [r4, #4]
	.loc	4 91 50 is_stmt 0       @ /usr/bin/../lib/gcc/arm-linux-gnueabihf/6.3.0/../../../../include/c++/6.3.0/bits/stl_vector.h:91:50
	str	r6, [r4, #8]
	beq	.LBB1_2
.Ltmp39:
@ BB#1:                                 @ %.noexc
	@DEBUG_VALUE: vector:__n <- %R7
	@DEBUG_VALUE: _Vector_base:__n <- %R7
	@DEBUG_VALUE: _M_create_storage:__n <- %R7
	@DEBUG_VALUE: _M_allocate:__n <- %R7
	@DEBUG_VALUE: DataBuffer:this <- %R4
	@DEBUG_VALUE: DataBuffer:dataToCopy <- %R8
	@DEBUG_VALUE: DataBuffer:sizeOfDataToCopy <- %R7
	@DEBUG_VALUE: __len <- %R7
	@DEBUG_VALUE: allocate:__n <- %R7
	@DEBUG_VALUE: __uninitialized_default_n<char *, unsigned int>:__assignable <- 1
	.loc	29 104 27 is_stmt 1     @ /usr/bin/../lib/gcc/arm-linux-gnueabihf/6.3.0/../../../../include/c++/6.3.0/ext/new_allocator.h:104:27
	mov	r0, r7
	bl	_Znwj
	mov	r6, r0
.Ltmp40:
	@DEBUG_VALUE: __uninitialized_default_n_a<char *, unsigned int, char>:__first <- %R6
	@DEBUG_VALUE: __uninitialized_default_n<char *, unsigned int>:__first <- %R6
	@DEBUG_VALUE: __uninit_default_n<char *, unsigned int>:__first <- %R6
	@DEBUG_VALUE: fill_n<char *, unsigned int, char>:__first <- %R6
	@DEBUG_VALUE: __fill_n_a<unsigned int, char>:__first <- %R6
	@DEBUG_VALUE: __fill_a<char>:__first <- %R6
	.loc	30 707 2                @ /usr/bin/../lib/gcc/arm-linux-gnueabihf/6.3.0/../../../../include/c++/6.3.0/bits/stl_algobase.h:707:2
	mov	r1, #0
	mov	r2, r7
.Ltmp41:
	.loc	4 185 25                @ /usr/bin/../lib/gcc/arm-linux-gnueabihf/6.3.0/../../../../include/c++/6.3.0/bits/stl_vector.h:185:25
	str	r6, [r4]
	.loc	4 187 59                @ /usr/bin/../lib/gcc/arm-linux-gnueabihf/6.3.0/../../../../include/c++/6.3.0/bits/stl_vector.h:187:59
	add	r5, r6, r7
.Ltmp42:
	@DEBUG_VALUE: __fill_a<char>:__last <- %R5
	.loc	4 186 26                @ /usr/bin/../lib/gcc/arm-linux-gnueabihf/6.3.0/../../../../include/c++/6.3.0/bits/stl_vector.h:186:26
	str	r6, [r4, #4]
	.loc	4 187 34                @ /usr/bin/../lib/gcc/arm-linux-gnueabihf/6.3.0/../../../../include/c++/6.3.0/bits/stl_vector.h:187:34
	str	r5, [r4, #8]
.Ltmp43:
	.loc	30 707 2                @ /usr/bin/../lib/gcc/arm-linux-gnueabihf/6.3.0/../../../../include/c++/6.3.0/bits/stl_algobase.h:707:2
	bl	memset
	b	.LBB1_3
.Ltmp44:
.LBB1_2:                                @ %_ZNSt12_Vector_baseIcSaIcEEC2EjRKS0_.exit.thread.i
	@DEBUG_VALUE: vector:__n <- %R7
	@DEBUG_VALUE: _Vector_base:__n <- %R7
	@DEBUG_VALUE: _M_create_storage:__n <- %R7
	@DEBUG_VALUE: _M_allocate:__n <- %R7
	@DEBUG_VALUE: DataBuffer:this <- %R4
	@DEBUG_VALUE: DataBuffer:dataToCopy <- %R8
	@DEBUG_VALUE: DataBuffer:sizeOfDataToCopy <- %R7
	@DEBUG_VALUE: allocate: <- %R6
	@DEBUG_VALUE: __uninitialized_default_n<char *, unsigned int>:__assignable <- 1
	.loc	4 185 25                @ /usr/bin/../lib/gcc/arm-linux-gnueabihf/6.3.0/../../../../include/c++/6.3.0/bits/stl_vector.h:185:25
	str	r6, [r4]
.Ltmp45:
	.loc	28 21 4                 @ /root/Bela/projects/RNBO-KPStrong/rnbo/src/RNBO_DataBuffer.cpp:21:4
	mov	r5, #0
.Ltmp46:
	.loc	4 186 26                @ /usr/bin/../lib/gcc/arm-linux-gnueabihf/6.3.0/../../../../include/c++/6.3.0/bits/stl_vector.h:186:26
	str	r6, [r4, #4]
	.loc	4 187 34                @ /usr/bin/../lib/gcc/arm-linux-gnueabihf/6.3.0/../../../../include/c++/6.3.0/bits/stl_vector.h:187:34
	str	r6, [r4, #8]
.Ltmp47:
.LBB1_3:
	@DEBUG_VALUE: vector:__n <- %R7
	@DEBUG_VALUE: _Vector_base:__n <- %R7
	@DEBUG_VALUE: _M_create_storage:__n <- %R7
	@DEBUG_VALUE: _M_allocate:__n <- %R7
	@DEBUG_VALUE: DataBuffer:this <- %R4
	@DEBUG_VALUE: DataBuffer:dataToCopy <- %R8
	@DEBUG_VALUE: DataBuffer:sizeOfDataToCopy <- %R7
	.loc	4 656 50                @ /usr/bin/../lib/gcc/arm-linux-gnueabihf/6.3.0/../../../../include/c++/6.3.0/bits/stl_vector.h:656:50
	sub	r2, r5, r6
.Ltmp48:
	.loc	28 23 3 discriminator 2 @ /root/Bela/projects/RNBO-KPStrong/rnbo/src/RNBO_DataBuffer.cpp:23:3
	mov	r0, r6
	mov	r1, r8
.Ltmp49:
	.loc	4 1308 26               @ /usr/bin/../lib/gcc/arm-linux-gnueabihf/6.3.0/../../../../include/c++/6.3.0/bits/stl_vector.h:1308:26
	str	r5, [r4, #4]
.Ltmp50:
	.loc	28 23 3 discriminator 2 @ /root/Bela/projects/RNBO-KPStrong/rnbo/src/RNBO_DataBuffer.cpp:23:3
	bl	memcpy
.Ltmp51:
	.loc	28 24 2                 @ /root/Bela/projects/RNBO-KPStrong/rnbo/src/RNBO_DataBuffer.cpp:24:2
	mov	r0, r4
	pop	{r4, r5, r6, r7, r8, r10, r11, pc}
.Ltmp52:
.Lfunc_end1:
	.size	_ZN4RNBO10DataBufferC2EPKcj, .Lfunc_end1-_ZN4RNBO10DataBufferC2EPKcj
	.cfi_endproc
	.fnend

	.globl	_ZN4RNBO10DataBufferC2EPKc
	.p2align	2
	.type	_ZN4RNBO10DataBufferC2EPKc,%function
_ZN4RNBO10DataBufferC2EPKc:             @ @_ZN4RNBO10DataBufferC2EPKc
.Lfunc_begin2:
	.loc	28 28 0                 @ /root/Bela/projects/RNBO-KPStrong/rnbo/src/RNBO_DataBuffer.cpp:28:0
	.fnstart
	.cfi_startproc
@ BB#0:
	.save	{r4, r5, r6, r7, r8, r10, r11, lr}
	push	{r4, r5, r6, r7, r8, r10, r11, lr}
.Ltmp53:
	.cfi_def_cfa_offset 32
.Ltmp54:
	.cfi_offset lr, -4
.Ltmp55:
	.cfi_offset r11, -8
.Ltmp56:
	.cfi_offset r10, -12
.Ltmp57:
	.cfi_offset r8, -16
.Ltmp58:
	.cfi_offset r7, -20
.Ltmp59:
	.cfi_offset r6, -24
.Ltmp60:
	.cfi_offset r5, -28
.Ltmp61:
	.cfi_offset r4, -32
	.setfp	r11, sp, #24
	add	r11, sp, #24
.Ltmp62:
	.cfi_def_cfa r11, 8
	@DEBUG_VALUE: DataBuffer:this <- %R0
	@DEBUG_VALUE: DataBuffer:stringToCopy <- %R1
	mov	r8, r1
.Ltmp63:
	@DEBUG_VALUE: DataBuffer:stringToCopy <- %R8
	mov	r4, r0
.Ltmp64:
	@DEBUG_VALUE: DataBuffer:this <- %R4
	.loc	28 27 10 prologue_end   @ /root/Bela/projects/RNBO-KPStrong/rnbo/src/RNBO_DataBuffer.cpp:27:10
	mov	r0, r8
	bl	strlen
	.loc	28 27 30 is_stmt 0      @ /root/Bela/projects/RNBO-KPStrong/rnbo/src/RNBO_DataBuffer.cpp:27:30
	adds	r7, r0, #1
.Ltmp65:
	@DEBUG_VALUE: vector:__n <- %R7
	@DEBUG_VALUE: _M_create_storage:__n <- %R7
	@DEBUG_VALUE: _M_allocate:__n <- %R7
	@DEBUG_VALUE: allocate:__n <- %R7
	@DEBUG_VALUE: allocate:__n <- %R7
	@DEBUG_VALUE: _M_default_initialize:__n <- %R7
	@DEBUG_VALUE: __uninitialized_default_n_a<char *, unsigned int, char>:__n <- %R7
	@DEBUG_VALUE: __uninitialized_default_n<char *, unsigned int>:__n <- %R7
	@DEBUG_VALUE: __uninit_default_n<char *, unsigned int>:__n <- %R7
	@DEBUG_VALUE: fill_n<char *, unsigned int, char>:__n <- %R7
	@DEBUG_VALUE: __fill_n_a<unsigned int, char>:__n <- %R7
	@DEBUG_VALUE: __len <- %R7
	mov	r6, #0
.Ltmp66:
	@DEBUG_VALUE: _Vector_base:__n <- %R7
	.loc	4 91 25 is_stmt 1       @ /usr/bin/../lib/gcc/arm-linux-gnueabihf/6.3.0/../../../../include/c++/6.3.0/bits/stl_vector.h:91:25
	str	r6, [r4]
	.loc	4 91 37 is_stmt 0       @ /usr/bin/../lib/gcc/arm-linux-gnueabihf/6.3.0/../../../../include/c++/6.3.0/bits/stl_vector.h:91:37
	str	r6, [r4, #4]
	.loc	4 91 50                 @ /usr/bin/../lib/gcc/arm-linux-gnueabihf/6.3.0/../../../../include/c++/6.3.0/bits/stl_vector.h:91:50
	str	r6, [r4, #8]
	beq	.LBB2_2
.Ltmp67:
@ BB#1:                                 @ %.noexc
	@DEBUG_VALUE: _Vector_base:__n <- %R7
	@DEBUG_VALUE: __len <- %R7
	@DEBUG_VALUE: __fill_n_a<unsigned int, char>:__n <- %R7
	@DEBUG_VALUE: fill_n<char *, unsigned int, char>:__n <- %R7
	@DEBUG_VALUE: __uninit_default_n<char *, unsigned int>:__n <- %R7
	@DEBUG_VALUE: __uninitialized_default_n<char *, unsigned int>:__n <- %R7
	@DEBUG_VALUE: __uninitialized_default_n_a<char *, unsigned int, char>:__n <- %R7
	@DEBUG_VALUE: _M_default_initialize:__n <- %R7
	@DEBUG_VALUE: allocate:__n <- %R7
	@DEBUG_VALUE: allocate:__n <- %R7
	@DEBUG_VALUE: _M_allocate:__n <- %R7
	@DEBUG_VALUE: _M_create_storage:__n <- %R7
	@DEBUG_VALUE: vector:__n <- %R7
	@DEBUG_VALUE: DataBuffer:this <- %R4
	@DEBUG_VALUE: DataBuffer:stringToCopy <- %R8
	.loc	29 104 27 is_stmt 1     @ /usr/bin/../lib/gcc/arm-linux-gnueabihf/6.3.0/../../../../include/c++/6.3.0/ext/new_allocator.h:104:27
	mov	r0, r7
	bl	_Znwj
	mov	r6, r0
.Ltmp68:
	@DEBUG_VALUE: __uninitialized_default_n_a<char *, unsigned int, char>:__first <- %R6
	@DEBUG_VALUE: __uninitialized_default_n<char *, unsigned int>:__first <- %R6
	@DEBUG_VALUE: __uninit_default_n<char *, unsigned int>:__first <- %R6
	@DEBUG_VALUE: fill_n<char *, unsigned int, char>:__first <- %R6
	@DEBUG_VALUE: __fill_n_a<unsigned int, char>:__first <- %R6
	@DEBUG_VALUE: __fill_a<char>:__first <- %R6
	.loc	30 707 2                @ /usr/bin/../lib/gcc/arm-linux-gnueabihf/6.3.0/../../../../include/c++/6.3.0/bits/stl_algobase.h:707:2
	mov	r1, #0
	mov	r2, r7
.Ltmp69:
	.loc	4 185 25                @ /usr/bin/../lib/gcc/arm-linux-gnueabihf/6.3.0/../../../../include/c++/6.3.0/bits/stl_vector.h:185:25
	str	r6, [r4]
	.loc	4 187 59                @ /usr/bin/../lib/gcc/arm-linux-gnueabihf/6.3.0/../../../../include/c++/6.3.0/bits/stl_vector.h:187:59
	add	r5, r6, r7
.Ltmp70:
	@DEBUG_VALUE: __fill_a<char>:__last <- %R5
	@DEBUG_VALUE: __uninitialized_default_n<char *, unsigned int>:__assignable <- 1
	.loc	4 186 26                @ /usr/bin/../lib/gcc/arm-linux-gnueabihf/6.3.0/../../../../include/c++/6.3.0/bits/stl_vector.h:186:26
	str	r6, [r4, #4]
	.loc	4 187 34                @ /usr/bin/../lib/gcc/arm-linux-gnueabihf/6.3.0/../../../../include/c++/6.3.0/bits/stl_vector.h:187:34
	str	r5, [r4, #8]
.Ltmp71:
	.loc	30 707 2                @ /usr/bin/../lib/gcc/arm-linux-gnueabihf/6.3.0/../../../../include/c++/6.3.0/bits/stl_algobase.h:707:2
	bl	memset
	b	.LBB2_3
.Ltmp72:
.LBB2_2:                                @ %_ZNSt12_Vector_baseIcSaIcEEC2EjRKS0_.exit.thread.i
	@DEBUG_VALUE: _Vector_base:__n <- %R7
	@DEBUG_VALUE: __len <- %R7
	@DEBUG_VALUE: __fill_n_a<unsigned int, char>:__n <- %R7
	@DEBUG_VALUE: fill_n<char *, unsigned int, char>:__n <- %R7
	@DEBUG_VALUE: __uninit_default_n<char *, unsigned int>:__n <- %R7
	@DEBUG_VALUE: __uninitialized_default_n<char *, unsigned int>:__n <- %R7
	@DEBUG_VALUE: __uninitialized_default_n_a<char *, unsigned int, char>:__n <- %R7
	@DEBUG_VALUE: _M_default_initialize:__n <- %R7
	@DEBUG_VALUE: allocate:__n <- %R7
	@DEBUG_VALUE: allocate:__n <- %R7
	@DEBUG_VALUE: _M_allocate:__n <- %R7
	@DEBUG_VALUE: _M_create_storage:__n <- %R7
	@DEBUG_VALUE: vector:__n <- %R7
	@DEBUG_VALUE: DataBuffer:this <- %R4
	@DEBUG_VALUE: DataBuffer:stringToCopy <- %R8
	@DEBUG_VALUE: allocate: <- %R6
	@DEBUG_VALUE: __uninitialized_default_n<char *, unsigned int>:__assignable <- 1
	.loc	4 185 25                @ /usr/bin/../lib/gcc/arm-linux-gnueabihf/6.3.0/../../../../include/c++/6.3.0/bits/stl_vector.h:185:25
	str	r6, [r4]
.Ltmp73:
	.loc	28 27 4                 @ /root/Bela/projects/RNBO-KPStrong/rnbo/src/RNBO_DataBuffer.cpp:27:4
	mov	r5, #0
.Ltmp74:
	.loc	4 186 26                @ /usr/bin/../lib/gcc/arm-linux-gnueabihf/6.3.0/../../../../include/c++/6.3.0/bits/stl_vector.h:186:26
	str	r6, [r4, #4]
	.loc	4 187 34                @ /usr/bin/../lib/gcc/arm-linux-gnueabihf/6.3.0/../../../../include/c++/6.3.0/bits/stl_vector.h:187:34
	str	r6, [r4, #8]
.Ltmp75:
.LBB2_3:
	@DEBUG_VALUE: _Vector_base:__n <- %R7
	@DEBUG_VALUE: __len <- %R7
	@DEBUG_VALUE: __fill_n_a<unsigned int, char>:__n <- %R7
	@DEBUG_VALUE: fill_n<char *, unsigned int, char>:__n <- %R7
	@DEBUG_VALUE: __uninit_default_n<char *, unsigned int>:__n <- %R7
	@DEBUG_VALUE: __uninitialized_default_n<char *, unsigned int>:__n <- %R7
	@DEBUG_VALUE: __uninitialized_default_n_a<char *, unsigned int, char>:__n <- %R7
	@DEBUG_VALUE: _M_default_initialize:__n <- %R7
	@DEBUG_VALUE: allocate:__n <- %R7
	@DEBUG_VALUE: allocate:__n <- %R7
	@DEBUG_VALUE: _M_allocate:__n <- %R7
	@DEBUG_VALUE: _M_create_storage:__n <- %R7
	@DEBUG_VALUE: vector:__n <- %R7
	@DEBUG_VALUE: DataBuffer:this <- %R4
	@DEBUG_VALUE: DataBuffer:stringToCopy <- %R8
	.loc	4 656 50                @ /usr/bin/../lib/gcc/arm-linux-gnueabihf/6.3.0/../../../../include/c++/6.3.0/bits/stl_vector.h:656:50
	sub	r2, r5, r6
.Ltmp76:
	.loc	28 29 3 discriminator 2 @ /root/Bela/projects/RNBO-KPStrong/rnbo/src/RNBO_DataBuffer.cpp:29:3
	mov	r0, r6
	mov	r1, r8
.Ltmp77:
	.loc	4 1308 26               @ /usr/bin/../lib/gcc/arm-linux-gnueabihf/6.3.0/../../../../include/c++/6.3.0/bits/stl_vector.h:1308:26
	str	r5, [r4, #4]
.Ltmp78:
	.loc	28 29 3 discriminator 2 @ /root/Bela/projects/RNBO-KPStrong/rnbo/src/RNBO_DataBuffer.cpp:29:3
	bl	memcpy
.Ltmp79:
	.loc	28 30 2                 @ /root/Bela/projects/RNBO-KPStrong/rnbo/src/RNBO_DataBuffer.cpp:30:2
	mov	r0, r4
	pop	{r4, r5, r6, r7, r8, r10, r11, pc}
.Ltmp80:
.Lfunc_end2:
	.size	_ZN4RNBO10DataBufferC2EPKc, .Lfunc_end2-_ZN4RNBO10DataBufferC2EPKc
	.cfi_endproc
	.fnend

	.globl	_ZN4RNBO10DataBuffer6resizeEj
	.p2align	2
	.type	_ZN4RNBO10DataBuffer6resizeEj,%function
_ZN4RNBO10DataBuffer6resizeEj:          @ @_ZN4RNBO10DataBuffer6resizeEj
.Lfunc_begin3:
	.loc	28 33 0                 @ /root/Bela/projects/RNBO-KPStrong/rnbo/src/RNBO_DataBuffer.cpp:33:0
	.fnstart
	.cfi_startproc
@ BB#0:
	@DEBUG_VALUE: resize:this <- %R0
	@DEBUG_VALUE: resize:size <- %R1
	.loc	4 656 66 prologue_end   @ /usr/bin/../lib/gcc/arm-linux-gnueabihf/6.3.0/../../../../include/c++/6.3.0/bits/stl_vector.h:656:66
	ldm	r0, {r2, r3}
	.loc	4 656 50 is_stmt 0      @ /usr/bin/../lib/gcc/arm-linux-gnueabihf/6.3.0/../../../../include/c++/6.3.0/bits/stl_vector.h:656:50
	sub	r3, r3, r2
.Ltmp81:
	@DEBUG_VALUE: resize:__new_size <- %R1
	.loc	4 676 6 is_stmt 1       @ /usr/bin/../lib/gcc/arm-linux-gnueabihf/6.3.0/../../../../include/c++/6.3.0/bits/stl_vector.h:676:6
	cmp	r3, r1
	bhs	.LBB3_2
.Ltmp82:
@ BB#1:
	@DEBUG_VALUE: resize:__new_size <- %R1
	@DEBUG_VALUE: resize:size <- %R1
	@DEBUG_VALUE: resize:this <- %R0
	.loc	4 677 33                @ /usr/bin/../lib/gcc/arm-linux-gnueabihf/6.3.0/../../../../include/c++/6.3.0/bits/stl_vector.h:677:33
	sub	r1, r1, r3
.Ltmp83:
	@DEBUG_VALUE: resize:this <- %R0
	@DEBUG_VALUE: size:this <- %R0
	@DEBUG_VALUE: size:this <- %R0
	@DEBUG_VALUE: _M_erase_at_end:this <- %R0
	.loc	4 677 4 is_stmt 0 discriminator 1 @ /usr/bin/../lib/gcc/arm-linux-gnueabihf/6.3.0/../../../../include/c++/6.3.0/bits/stl_vector.h:677:4
	b	_ZNSt6vectorIcSaIcEE17_M_default_appendEj
.LBB3_2:
.Ltmp84:
	@DEBUG_VALUE: resize:__new_size <- %R1
	@DEBUG_VALUE: resize:size <- %R1
	@DEBUG_VALUE: resize:this <- %R0
	.loc	4 679 43 is_stmt 1      @ /usr/bin/../lib/gcc/arm-linux-gnueabihf/6.3.0/../../../../include/c++/6.3.0/bits/stl_vector.h:679:43
	addhi	r1, r2, r1
.Ltmp85:
	@DEBUG_VALUE: _M_erase_at_end:__pos <- %R1
	.loc	4 1437 26               @ /usr/bin/../lib/gcc/arm-linux-gnueabihf/6.3.0/../../../../include/c++/6.3.0/bits/stl_vector.h:1437:26
	strhi	r1, [r0, #4]
.Ltmp86:
	.loc	28 35 2                 @ /root/Bela/projects/RNBO-KPStrong/rnbo/src/RNBO_DataBuffer.cpp:35:2
	bx	lr
.Ltmp87:
.Lfunc_end3:
	.size	_ZN4RNBO10DataBuffer6resizeEj, .Lfunc_end3-_ZN4RNBO10DataBuffer6resizeEj
	.cfi_endproc
	.fnend

	.section	.text._ZNSt6vectorIcSaIcEE17_M_default_appendEj,"axG",%progbits,_ZNSt6vectorIcSaIcEE17_M_default_appendEj,comdat
	.weak	_ZNSt6vectorIcSaIcEE17_M_default_appendEj
	.p2align	2
	.type	_ZNSt6vectorIcSaIcEE17_M_default_appendEj,%function
_ZNSt6vectorIcSaIcEE17_M_default_appendEj: @ @_ZNSt6vectorIcSaIcEE17_M_default_appendEj
.Lfunc_begin4:
	.file	34 "/usr/bin/../lib/gcc/arm-linux-gnueabihf/6.3.0/../../../../include/c++/6.3.0/bits" "vector.tcc"
	.loc	34 542 0                @ /usr/bin/../lib/gcc/arm-linux-gnueabihf/6.3.0/../../../../include/c++/6.3.0/bits/vector.tcc:542:0
	.fnstart
	.cfi_startproc
@ BB#0:
	.save	{r4, r5, r6, r7, r8, r10, r11, lr}
	push	{r4, r5, r6, r7, r8, r10, r11, lr}
.Ltmp88:
	.cfi_def_cfa_offset 32
.Ltmp89:
	.cfi_offset lr, -4
.Ltmp90:
	.cfi_offset r11, -8
.Ltmp91:
	.cfi_offset r10, -12
.Ltmp92:
	.cfi_offset r8, -16
.Ltmp93:
	.cfi_offset r7, -20
.Ltmp94:
	.cfi_offset r6, -24
.Ltmp95:
	.cfi_offset r5, -28
.Ltmp96:
	.cfi_offset r4, -32
	.setfp	r11, sp, #24
	add	r11, sp, #24
.Ltmp97:
	.cfi_def_cfa r11, 8
	@DEBUG_VALUE: _M_default_append:this <- %R0
	@DEBUG_VALUE: _M_default_append:__n <- %R1
	mov	r5, r1
.Ltmp98:
	@DEBUG_VALUE: _M_default_append:__n <- %R5
	mov	r4, r0
.Ltmp99:
	@DEBUG_VALUE: _M_default_append:this <- %R4
	.loc	34 543 11 prologue_end  @ /usr/bin/../lib/gcc/arm-linux-gnueabihf/6.3.0/../../../../include/c++/6.3.0/bits/vector.tcc:543:11
	cmp	r5, #0
	beq	.LBB4_12
.Ltmp100:
@ BB#1:
	@DEBUG_VALUE: _M_default_append:this <- %R4
	@DEBUG_VALUE: _M_default_append:__n <- %R5
	@DEBUG_VALUE: __fill_a<char>:__first <- %R7
	@DEBUG_VALUE: __fill_n_a<unsigned int, char>:__first <- %R7
	@DEBUG_VALUE: fill_n<char *, unsigned int, char>:__first <- %R7
	@DEBUG_VALUE: __uninit_default_n<char *, unsigned int>:__first <- %R7
	@DEBUG_VALUE: __uninitialized_default_n<char *, unsigned int>:__first <- %R7
	@DEBUG_VALUE: __uninitialized_default_n_a<char *, unsigned int, char>:__first <- %R7
	.loc	34 546 20               @ /usr/bin/../lib/gcc/arm-linux-gnueabihf/6.3.0/../../../../include/c++/6.3.0/bits/vector.tcc:546:20
	ldr	r7, [r4, #4]
.Ltmp101:
	.loc	34 545 32               @ /usr/bin/../lib/gcc/arm-linux-gnueabihf/6.3.0/../../../../include/c++/6.3.0/bits/vector.tcc:545:32
	ldr	r0, [r4, #8]
	.loc	34 546 4                @ /usr/bin/../lib/gcc/arm-linux-gnueabihf/6.3.0/../../../../include/c++/6.3.0/bits/vector.tcc:546:4
	sub	r0, r0, r7
.Ltmp102:
	.loc	34 545 8                @ /usr/bin/../lib/gcc/arm-linux-gnueabihf/6.3.0/../../../../include/c++/6.3.0/bits/vector.tcc:545:8
	cmp	r0, r5
	bhs	.LBB4_5
.Ltmp103:
@ BB#2:
	@DEBUG_VALUE: _M_default_append:this <- %R4
	@DEBUG_VALUE: _M_default_append:__n <- %R5
	@DEBUG_VALUE: size:this <- %R4
	.loc	4 656 66                @ /usr/bin/../lib/gcc/arm-linux-gnueabihf/6.3.0/../../../../include/c++/6.3.0/bits/stl_vector.h:656:66
	ldr	r1, [r4]
	.loc	4 656 50 is_stmt 0      @ /usr/bin/../lib/gcc/arm-linux-gnueabihf/6.3.0/../../../../include/c++/6.3.0/bits/stl_vector.h:656:50
	sub	r0, r7, r1
.Ltmp104:
	@DEBUG_VALUE: _M_check_len:__n <- %R5
	.loc	4 1422 17 is_stmt 1     @ /usr/bin/../lib/gcc/arm-linux-gnueabihf/6.3.0/../../../../include/c++/6.3.0/bits/stl_vector.h:1422:17
	mvn	r2, r0
.Ltmp105:
	.loc	4 1422 6 is_stmt 0      @ /usr/bin/../lib/gcc/arm-linux-gnueabihf/6.3.0/../../../../include/c++/6.3.0/bits/stl_vector.h:1422:6
	cmp	r2, r5
	blo	.LBB4_13
.Ltmp106:
@ BB#3:                                 @ %_ZNKSt6vectorIcSaIcEE12_M_check_lenEjPKc.exit
	@DEBUG_VALUE: _M_check_len:__n <- %R5
	@DEBUG_VALUE: size:this <- %R4
	@DEBUG_VALUE: _M_default_append:this <- %R4
	@DEBUG_VALUE: _M_default_append:__n <- %R5
	.loc	4 1425 35 is_stmt 1     @ /usr/bin/../lib/gcc/arm-linux-gnueabihf/6.3.0/../../../../include/c++/6.3.0/bits/stl_vector.h:1425:35
	cmp	r0, r5
	mov	r2, r0
	movlo	r2, r5
	add	r6, r2, r0
	cmp	r6, r2
	.loc	4 1426 25               @ /usr/bin/../lib/gcc/arm-linux-gnueabihf/6.3.0/../../../../include/c++/6.3.0/bits/stl_vector.h:1426:25
	mvnlo	r6, #0
.Ltmp107:
	@DEBUG_VALUE: __len <- %R6
	@DEBUG_VALUE: allocate:__n <- %R6
	@DEBUG_VALUE: allocate:__n <- %R6
	.loc	4 170 9                 @ /usr/bin/../lib/gcc/arm-linux-gnueabihf/6.3.0/../../../../include/c++/6.3.0/bits/stl_vector.h:170:9
	cmp	r6, #0
.Ltmp108:
	@DEBUG_VALUE: _M_check_len:__len <- %R6
	@DEBUG_VALUE: _M_allocate:__n <- %R6
	beq	.LBB4_6
.Ltmp109:
@ BB#4:
	@DEBUG_VALUE: _M_allocate:__n <- %R6
	@DEBUG_VALUE: _M_check_len:__len <- %R6
	@DEBUG_VALUE: allocate:__n <- %R6
	@DEBUG_VALUE: allocate:__n <- %R6
	@DEBUG_VALUE: __len <- %R6
	@DEBUG_VALUE: _M_check_len:__n <- %R5
	@DEBUG_VALUE: size:this <- %R4
	@DEBUG_VALUE: _M_default_append:this <- %R4
	@DEBUG_VALUE: _M_default_append:__n <- %R5
	.loc	29 104 27               @ /usr/bin/../lib/gcc/arm-linux-gnueabihf/6.3.0/../../../../include/c++/6.3.0/ext/new_allocator.h:104:27
	mov	r0, r6
	bl	_Znwj
.Ltmp110:
	.loc	34 563 22               @ /usr/bin/../lib/gcc/arm-linux-gnueabihf/6.3.0/../../../../include/c++/6.3.0/bits/vector.tcc:563:22
	ldm	r4, {r1, r7}
.Ltmp111:
	@DEBUG_VALUE: size:this <- %R4
	.loc	29 104 27               @ /usr/bin/../lib/gcc/arm-linux-gnueabihf/6.3.0/../../../../include/c++/6.3.0/ext/new_allocator.h:104:27
	mov	r8, r0
	b	.LBB4_7
.Ltmp112:
.LBB4_5:                                @ %_ZSt27__uninitialized_default_n_aIPcjcET_S1_T0_RSaIT1_E.exit
	@DEBUG_VALUE: _M_default_append:this <- %R4
	@DEBUG_VALUE: _M_default_append:__n <- %R5
	@DEBUG_VALUE: __uninitialized_default_n<char *, unsigned int>:__assignable <- 1
	@DEBUG_VALUE: __len <- %R5
	@DEBUG_VALUE: __fill_n_a<unsigned int, char>:__n <- %R5
	.loc	30 707 2                @ /usr/bin/../lib/gcc/arm-linux-gnueabihf/6.3.0/../../../../include/c++/6.3.0/bits/stl_algobase.h:707:2
	mov	r0, r7
	mov	r1, #0
	mov	r2, r5
	bl	memset
.Ltmp113:
	.loc	30 763 38               @ /usr/bin/../lib/gcc/arm-linux-gnueabihf/6.3.0/../../../../include/c++/6.3.0/bits/stl_algobase.h:763:38
	add	r0, r7, r5
.Ltmp114:
	@DEBUG_VALUE: __fill_a<char>:__last <- %R0
	.loc	34 548 32               @ /usr/bin/../lib/gcc/arm-linux-gnueabihf/6.3.0/../../../../include/c++/6.3.0/bits/vector.tcc:548:32
	str	r0, [r4, #4]
.Ltmp115:
	.loc	34 586 5 discriminator 2 @ /usr/bin/../lib/gcc/arm-linux-gnueabihf/6.3.0/../../../../include/c++/6.3.0/bits/vector.tcc:586:5
	pop	{r4, r5, r6, r7, r8, r10, r11, pc}
.Ltmp116:
.LBB4_6:                                @ %_ZNKSt6vectorIcSaIcEE12_M_check_lenEjPKc.exit._ZNSt12_Vector_baseIcSaIcEE11_M_allocateEj.exit_crit_edge
	@DEBUG_VALUE: _M_allocate:__n <- %R6
	@DEBUG_VALUE: _M_check_len:__len <- %R6
	@DEBUG_VALUE: allocate:__n <- %R6
	@DEBUG_VALUE: allocate:__n <- %R6
	@DEBUG_VALUE: __len <- %R6
	@DEBUG_VALUE: _M_check_len:__n <- %R5
	@DEBUG_VALUE: size:this <- %R4
	@DEBUG_VALUE: _M_default_append:this <- %R4
	@DEBUG_VALUE: _M_default_append:__n <- %R5
	mov	r8, #0
.Ltmp117:
	@DEBUG_VALUE: allocate: <- %R8
.LBB4_7:                                @ %_ZNSt12_Vector_baseIcSaIcEE11_M_allocateEj.exit
	@DEBUG_VALUE: _M_allocate:__n <- %R6
	@DEBUG_VALUE: _M_check_len:__len <- %R6
	@DEBUG_VALUE: allocate:__n <- %R6
	@DEBUG_VALUE: allocate:__n <- %R6
	@DEBUG_VALUE: __len <- %R6
	@DEBUG_VALUE: _M_check_len:__n <- %R5
	@DEBUG_VALUE: size:this <- %R4
	@DEBUG_VALUE: _M_default_append:this <- %R4
	@DEBUG_VALUE: _M_default_append:__n <- %R5
	@DEBUG_VALUE: __uninitialized_move_if_noexcept_a<char *, char *, std::allocator<char> >:__first <- %R1
	@DEBUG_VALUE: uninitialized_copy<std::move_iterator<char *>, char *>:__assignable <- 1
	@DEBUG_VALUE: __copy_move_a<true, char *, char *>:__simple <- 1
	.loc	30 366 34               @ /usr/bin/../lib/gcc/arm-linux-gnueabihf/6.3.0/../../../../include/c++/6.3.0/bits/stl_algobase.h:366:34
	subs	r7, r7, r1
.Ltmp118:
	@DEBUG_VALUE: __copy_m<char>:_Num <- %R7
	beq	.LBB4_9
.Ltmp119:
@ BB#8:
	@DEBUG_VALUE: __copy_m<char>:_Num <- %R7
	@DEBUG_VALUE: __uninitialized_move_if_noexcept_a<char *, char *, std::allocator<char> >:__first <- %R1
	@DEBUG_VALUE: _M_allocate:__n <- %R6
	@DEBUG_VALUE: _M_check_len:__len <- %R6
	@DEBUG_VALUE: allocate:__n <- %R6
	@DEBUG_VALUE: allocate:__n <- %R6
	@DEBUG_VALUE: __len <- %R6
	@DEBUG_VALUE: _M_check_len:__n <- %R5
	@DEBUG_VALUE: size:this <- %R4
	@DEBUG_VALUE: _M_default_append:this <- %R4
	@DEBUG_VALUE: _M_default_append:__n <- %R5
	@DEBUG_VALUE: __uninitialized_move_if_noexcept_a<char *, char *, std::allocator<char> >:__result <- %R8
	.loc	30 368 6                @ /usr/bin/../lib/gcc/arm-linux-gnueabihf/6.3.0/../../../../include/c++/6.3.0/bits/stl_algobase.h:368:6
	mov	r0, r8
	mov	r2, r7
	bl	memmove
.Ltmp120:
.LBB4_9:
	@DEBUG_VALUE: __copy_m<char>:_Num <- %R7
	@DEBUG_VALUE: _M_allocate:__n <- %R6
	@DEBUG_VALUE: _M_check_len:__len <- %R6
	@DEBUG_VALUE: allocate:__n <- %R6
	@DEBUG_VALUE: allocate:__n <- %R6
	@DEBUG_VALUE: __len <- %R6
	@DEBUG_VALUE: _M_check_len:__n <- %R5
	@DEBUG_VALUE: size:this <- %R4
	@DEBUG_VALUE: _M_default_append:this <- %R4
	@DEBUG_VALUE: _M_default_append:__n <- %R5
	.loc	30 369 20               @ /usr/bin/../lib/gcc/arm-linux-gnueabihf/6.3.0/../../../../include/c++/6.3.0/bits/stl_algobase.h:369:20
	add	r7, r8, r7
.Ltmp121:
	@DEBUG_VALUE: __len <- %R5
	@DEBUG_VALUE: __fill_n_a<unsigned int, char>:__first <- %R7
	@DEBUG_VALUE: fill_n<char *, unsigned int, char>:__first <- %R7
	@DEBUG_VALUE: __uninit_default_n<char *, unsigned int>:__first <- %R7
	@DEBUG_VALUE: __uninitialized_default_n<char *, unsigned int>:__assignable <- 1
	@DEBUG_VALUE: __uninitialized_default_n<char *, unsigned int>:__first <- %R7
	@DEBUG_VALUE: __uninitialized_default_n_a<char *, unsigned int, char>:__first <- %R7
	@DEBUG_VALUE: __new_finish <- %R7
	@DEBUG_VALUE: __fill_a<char>:__first <- %R7
	@DEBUG_VALUE: __fill_n_a<unsigned int, char>:__n <- %R5
	.loc	30 707 2                @ /usr/bin/../lib/gcc/arm-linux-gnueabihf/6.3.0/../../../../include/c++/6.3.0/bits/stl_algobase.h:707:2
	mov	r1, #0
	mov	r2, r5
	mov	r0, r7
	bl	memset
.Ltmp122:
	.loc	34 578 36               @ /usr/bin/../lib/gcc/arm-linux-gnueabihf/6.3.0/../../../../include/c++/6.3.0/bits/vector.tcc:578:36
	ldr	r0, [r4]
.Ltmp123:
	@DEBUG_VALUE: _M_deallocate:__p <- %R0
	@DEBUG_VALUE: deallocate:__p <- %R0
	@DEBUG_VALUE: deallocate:__p <- %R0
	.loc	30 763 38               @ /usr/bin/../lib/gcc/arm-linux-gnueabihf/6.3.0/../../../../include/c++/6.3.0/bits/stl_algobase.h:763:38
	add	r5, r7, r5
.Ltmp124:
	@DEBUG_VALUE: __fill_a<char>:__last <- %R5
	@DEBUG_VALUE: __new_finish <- %R5
	.loc	4 177 6                 @ /usr/bin/../lib/gcc/arm-linux-gnueabihf/6.3.0/../../../../include/c++/6.3.0/bits/stl_vector.h:177:6
	cmp	r0, #0
	beq	.LBB4_11
.Ltmp125:
@ BB#10:
	@DEBUG_VALUE: __new_finish <- %R5
	@DEBUG_VALUE: __fill_a<char>:__last <- %R5
	@DEBUG_VALUE: deallocate:__p <- %R0
	@DEBUG_VALUE: deallocate:__p <- %R0
	@DEBUG_VALUE: _M_deallocate:__p <- %R0
	@DEBUG_VALUE: __fill_a<char>:__first <- %R7
	@DEBUG_VALUE: __uninitialized_default_n_a<char *, unsigned int, char>:__first <- %R7
	@DEBUG_VALUE: __uninitialized_default_n<char *, unsigned int>:__first <- %R7
	@DEBUG_VALUE: __uninit_default_n<char *, unsigned int>:__first <- %R7
	@DEBUG_VALUE: fill_n<char *, unsigned int, char>:__first <- %R7
	@DEBUG_VALUE: __fill_n_a<unsigned int, char>:__first <- %R7
	@DEBUG_VALUE: _M_allocate:__n <- %R6
	@DEBUG_VALUE: _M_check_len:__len <- %R6
	@DEBUG_VALUE: allocate:__n <- %R6
	@DEBUG_VALUE: allocate:__n <- %R6
	@DEBUG_VALUE: __len <- %R6
	@DEBUG_VALUE: size:this <- %R4
	@DEBUG_VALUE: _M_default_append:this <- %R4
	.loc	29 110 9                @ /usr/bin/../lib/gcc/arm-linux-gnueabihf/6.3.0/../../../../include/c++/6.3.0/ext/new_allocator.h:110:9
	bl	_ZdlPv
.Ltmp126:
.LBB4_11:                               @ %_ZNSt12_Vector_baseIcSaIcEE13_M_deallocateEPcj.exit31
	@DEBUG_VALUE: __new_finish <- %R5
	@DEBUG_VALUE: __fill_a<char>:__last <- %R5
	@DEBUG_VALUE: __fill_a<char>:__first <- %R7
	@DEBUG_VALUE: __uninitialized_default_n_a<char *, unsigned int, char>:__first <- %R7
	@DEBUG_VALUE: __uninitialized_default_n<char *, unsigned int>:__first <- %R7
	@DEBUG_VALUE: __uninit_default_n<char *, unsigned int>:__first <- %R7
	@DEBUG_VALUE: fill_n<char *, unsigned int, char>:__first <- %R7
	@DEBUG_VALUE: __fill_n_a<unsigned int, char>:__first <- %R7
	@DEBUG_VALUE: _M_allocate:__n <- %R6
	@DEBUG_VALUE: _M_check_len:__len <- %R6
	@DEBUG_VALUE: allocate:__n <- %R6
	@DEBUG_VALUE: allocate:__n <- %R6
	@DEBUG_VALUE: __len <- %R6
	@DEBUG_VALUE: size:this <- %R4
	@DEBUG_VALUE: _M_default_append:this <- %R4
	.loc	34 581 31               @ /usr/bin/../lib/gcc/arm-linux-gnueabihf/6.3.0/../../../../include/c++/6.3.0/bits/vector.tcc:581:31
	str	r8, [r4]
	.loc	34 583 54               @ /usr/bin/../lib/gcc/arm-linux-gnueabihf/6.3.0/../../../../include/c++/6.3.0/bits/vector.tcc:583:54
	add	r0, r8, r6
	.loc	34 582 32               @ /usr/bin/../lib/gcc/arm-linux-gnueabihf/6.3.0/../../../../include/c++/6.3.0/bits/vector.tcc:582:32
	str	r5, [r4, #4]
	.loc	34 583 40               @ /usr/bin/../lib/gcc/arm-linux-gnueabihf/6.3.0/../../../../include/c++/6.3.0/bits/vector.tcc:583:40
	str	r0, [r4, #8]
.Ltmp127:
.LBB4_12:
	@DEBUG_VALUE: _M_default_append:this <- %R4
	.loc	34 586 5 discriminator 2 @ /usr/bin/../lib/gcc/arm-linux-gnueabihf/6.3.0/../../../../include/c++/6.3.0/bits/vector.tcc:586:5
	pop	{r4, r5, r6, r7, r8, r10, r11, pc}
.Ltmp128:
.LBB4_13:
	@DEBUG_VALUE: _M_check_len:__n <- %R5
	@DEBUG_VALUE: size:this <- %R4
	@DEBUG_VALUE: _M_default_append:this <- %R4
	@DEBUG_VALUE: _M_default_append:__n <- %R5
	.loc	4 1423 4                @ /usr/bin/../lib/gcc/arm-linux-gnueabihf/6.3.0/../../../../include/c++/6.3.0/bits/stl_vector.h:1423:4
	movw	r0, :lower16:.L.str
	movt	r0, :upper16:.L.str
.Ltmp129:
	@DEBUG_VALUE: _M_check_len:__s <- %R0
	mov	lr, pc
	b	_ZSt20__throw_length_errorPKc
.Ltmp130:
.Lfunc_end4:
	.size	_ZNSt6vectorIcSaIcEE17_M_default_appendEj, .Lfunc_end4-_ZNSt6vectorIcSaIcEE17_M_default_appendEj
	.cfi_endproc
	.fnend

	.type	.L.str,%object          @ @.str
	.section	.rodata.str1.1,"aMS",%progbits,1
.L.str:
	.asciz	"vector::_M_default_append"
	.size	.L.str, 26

	.section	".note.GNU-stack","",%progbits
	.eabi_attribute	30, 2	@ Tag_ABI_optimization_goals